 greenworks-win64

 Timestamp is 59f25dbb (Thu Oct 26 15:12:11 2017)

 Preferred load address is 0000000180000000

 Start         Length     Name                   Class
 0001:00000000 000001dbH .text                   CODE
 0001:000001e0 000006a0H .text$di                CODE
 0001:00000880 0005f4dcH .text$mn                CODE
 0001:0005fd60 00000012H .text$mn$00             CODE
 0001:0005fd80 00000530H .text$x                 CODE
 0001:000602b0 0000016cH .text$yd                CODE
 0002:00000000 00000658H .idata$5                DATA
 0002:00000658 00000010H .00cfg                  DATA
 0002:00000668 00000008H .CRT$XCA                DATA
 0002:00000670 00000018H .CRT$XCC                DATA
 0002:00000688 00000010H .CRT$XCL                DATA
 0002:00000698 00000058H .CRT$XCU                DATA
 0002:000006f0 00000008H .CRT$XCZ                DATA
 0002:000006f8 00000008H .CRT$XIA                DATA
 0002:00000700 00000030H .CRT$XIC                DATA
 0002:00000730 00000008H .CRT$XIZ                DATA
 0002:00000738 00000008H .CRT$XLA                DATA
 0002:00000740 00000008H .CRT$XLZ                DATA
 0002:00000748 00000008H .CRT$XPA                DATA
 0002:00000750 00000010H .CRT$XPX                DATA
 0002:00000760 00000008H .CRT$XPXA               DATA
 0002:00000768 00000008H .CRT$XPZ                DATA
 0002:00000770 00000008H .CRT$XTA                DATA
 0002:00000778 00000008H .CRT$XTZ                DATA
 0002:00000780 00000000H .gfids$x                DATA
 0002:00000780 00013134H .rdata                  DATA
 0002:000138b8 00000028H .rdata$T                DATA
 0002:000138e0 00000a94H .rdata$r                DATA
 0002:00014378 00000010H .rdata$zETW0            DATA
 0002:00014388 00000077H .rdata$zETW1            DATA
 0002:000143ff 0000002cH .rdata$zETW2            DATA
 0002:0001442b 00000001H .rdata$zETW9            DATA
 0002:0001442c 000004a0H .rdata$zzzdbg           DATA
 0002:000148d0 00000008H .rtc$IAA                DATA
 0002:000148d8 00000008H .rtc$IZZ                DATA
 0002:000148e0 00000008H .rtc$TAA                DATA
 0002:000148e8 00000008H .rtc$TZZ                DATA
 0002:000148f0 00004ad8H .xdata                  DATA
 0002:000193c8 000002a4H .xdata$x                DATA
 0002:00019670 00000064H .edata                  DATA
 0002:000196d4 00000064H .idata$2                DATA
 0002:00019738 00000014H .idata$3                DATA
 0002:00019750 00000658H .idata$4                DATA
 0002:00019da8 00001cbeH .idata$6                DATA
 0003:00000000 00000e80H .data                   DATA
 0003:00000e80 0000041aH .data$r                 DATA
 0003:000012a0 00001784H .bss                    DATA
 0004:00000000 00004e24H .pdata                  DATA
 0005:00000000 00000001H .tls                    DATA
 0005:00000004 00000004H .tls$                   DATA
 0005:00000008 00000001H .tls$ZZZ                DATA
 0006:00000000 00000058H .rsrc$01                DATA
 0006:00000060 00000180H .rsrc$02                DATA

  Address         Publics by Value              Rva+Base               Lib:Object

 0000:00000000       __guard_fids_count         0000000000000000     <absolute>
 0000:00000000       ___safe_se_handler_count   0000000000000000     <absolute>
 0000:00000000       ___safe_se_handler_table   0000000000000000     <absolute>
 0000:00000000       __guard_fids_table         0000000000000000     <absolute>
 0000:00000100       __guard_flags              0000000000000100     <absolute>
 0000:00000000       __ImageBase                0000000180000000     <linker-defined>
 0001:00000000       ?TraceLoggingRegister@__vcrt_trace_logging_provider@@YAJPEBU_TlgProvider_t@1@PEBU_GUID@@P6AX1KE_K2PEAU_EVENT_FILTER_DESCRIPTOR@@PEAX@Z4@Z 0000000180001000 f i libvcruntime:telemetry.obj
 0001:0000007c       ?_TlgEnableCallback@__vcrt_trace_logging_provider@@YAXPEBU_GUID@@KE_K1PEAU_EVENT_FILTER_DESCRIPTOR@@PEAX@Z 000000018000107c f i libvcruntime:telemetry.obj
 0001:00000140       ?_TlgWrite@__vcrt_trace_logging_provider@@YAJPEBU_TlgProvider_t@1@PEFBXPEBU_GUID@@2IPEAU_EVENT_DATA_DESCRIPTOR@@@Z 0000000180001140 f i libvcruntime:telemetry.obj
 0001:00000950       ?Set@Nan@@YA?AV?$Maybe@_N@v8@@V?$Local@VObject@v8@@@3@V?$Local@VValue@v8@@@3@1@Z 0000000180001950 f i greenworks_api_utils.obj
 0001:000009d0       ?New@?$Factory@VFunctionTemplate@v8@@@imp@Nan@@SA?AV?$Local@VFunctionTemplate@v8@@@v8@@P6AXAEBV?$FunctionCallbackInfo@VValue@v8@@@3@@ZV?$Local@VValue@v8@@@5@V?$Local@VSignature@v8@@@5@@Z 00000001800019d0 f i greenworks_api_utils.obj
 0001:00000bd0       ?ThrowTypeError@Nan@@YAXPEBD@Z 0000000180001bd0 f i greenworks_api_utils.obj
 0001:00000c60       ?AsyncExecute@Nan@@YAXPEAUuv_work_s@@@Z 0000000180001c60 f i greenworks_api_utils.obj
 0001:00000c70       ?AsyncExecuteComplete@Nan@@YAXPEAUuv_work_s@@@Z 0000000180001c70 f i greenworks_api_utils.obj
 0001:00000cb0       ?AsyncQueueWorker@Nan@@YAXPEAVAsyncWorker@1@@Z 0000000180001cb0 f i greenworks_api_utils.obj
 0001:00000ce0       ?GetInstance@SteamAPIRegistry@api@greenworks@@SAPEAV123@XZ 0000000180001ce0 f i greenworks_api_utils.obj
 0001:000019d0       ?push_back@?$vector@V?$function@$$A6AXV?$Local@VObject@v8@@@v8@@@Z@std@@V?$allocator@V?$function@$$A6AXV?$Local@VObject@v8@@@v8@@@Z@std@@@2@@std@@QEAAXAEBV?$function@$$A6AXV?$Local@VObject@v8@@@v8@@@Z@2@@Z 00000001800029d0 f i greenworks_api_utils.obj
 0001:00001ac0       ??0?$basic_string@DU?$char_traits@D@std@@V?$allocator@D@2@@std@@QEAA@PEBD@Z 0000000180002ac0 f i greenworks_api_utils.obj
 0001:00001b00       ?_Reserve@?$vector@V?$function@$$A6AXV?$Local@VObject@v8@@@v8@@@Z@std@@V?$allocator@V?$function@$$A6AXV?$Local@VObject@v8@@@v8@@@Z@std@@@2@@std@@IEAAX_K@Z 0000000180002b00 f i greenworks_api_utils.obj
 0001:00001b90       ?_Myptr@?$_String_alloc@U?$_String_base_types@DV?$allocator@D@std@@@std@@@std@@QEBAPEBDXZ 0000000180002b90 f i greenworks_api_utils.obj
 0001:00001b90       ?c_str@?$basic_string@DU?$char_traits@D@std@@V?$allocator@D@2@@std@@QEBAPEBDXZ 0000000180002b90 f i steam_api_friends.obj
 0001:00001ba0       ?assign@?$basic_string@DU?$char_traits@D@std@@V?$allocator@D@2@@std@@QEAAAEAV12@PEBD_K@Z 0000000180002ba0 f i greenworks_api_utils.obj
 0001:00001ce0       ?assign@?$basic_string@DU?$char_traits@D@std@@V?$allocator@D@2@@std@@QEAAAEAV12@AEBV12@_K1@Z 0000000180002ce0 f i greenworks_api_utils.obj
 0001:00001e10       ?deallocate@?$_Wrap_alloc@V?$allocator@V?$function@$$A6AXV?$Local@VObject@v8@@@v8@@@Z@std@@@std@@@std@@QEAAXPEAV?$function@$$A6AXV?$Local@VObject@v8@@@v8@@@Z@2@_K@Z 0000000180002e10 f i greenworks_api_utils.obj
 0001:00001e80       _guard_check_icall_nop     0000000180002e80 f i LIBCMT:guard_support.obj
 0001:00001e80       ?imbue@?$basic_streambuf@DU?$char_traits@D@std@@@std@@MEAAXAEBVlocale@2@@Z 0000000180002e80 f i steam_api_settings.obj
 0001:00001e80       __except_validate_context_record 0000000180002e80 f i libvcruntime:jbcxrval.obj
 0001:00001e80       ?_Unlock@?$basic_streambuf@DU?$char_traits@D@std@@@std@@UEAAXXZ 0000000180002e80 f i steam_api_settings.obj
 0001:00001e80       ?_Orphan_all@?$_Vector_alloc@U?$_Vec_base_types@V?$function@$$A6AXV?$Local@VObject@v8@@@v8@@@Z@std@@V?$allocator@V?$function@$$A6AXV?$Local@VObject@v8@@@v8@@@Z@std@@@2@@std@@@std@@QEAAXXZ 0000000180002e80 f i greenworks_api_utils.obj
 0001:00001e80       ?_Lock@?$basic_streambuf@DU?$char_traits@D@std@@@std@@UEAAXXZ 0000000180002e80 f i steam_api_settings.obj
 0001:00001e80       ?_Doraise@exception@stdext@@MEBAXXZ 0000000180002e80 f i steam_api_settings.obj
 0001:00001e90       ?_Reallocate@?$vector@V?$function@$$A6AXV?$Local@VObject@v8@@@v8@@@Z@std@@V?$allocator@V?$function@$$A6AXV?$Local@VObject@v8@@@v8@@@Z@std@@@2@@std@@IEAAX_K@Z 0000000180002e90 f i greenworks_api_utils.obj
 0001:00001f50       ?_Destroy@?$vector@V?$function@$$A6AXV?$Local@VObject@v8@@@v8@@@Z@std@@V?$allocator@V?$function@$$A6AXV?$Local@VObject@v8@@@v8@@@Z@std@@@2@@std@@IEAAXPEAV?$function@$$A6AXV?$Local@VObject@v8@@@v8@@@Z@2@0@Z 0000000180002f50 f i greenworks_api_utils.obj
 0001:00001fc0       ?deallocate@?$_Wrap_alloc@V?$allocator@D@std@@@std@@QEAAXPEAD_K@Z 0000000180002fc0 f i greenworks_api_utils.obj
 0001:00001fc0       ?deallocate@?$allocator@D@std@@QEAAXPEAD_K@Z 0000000180002fc0 f i greenworks_api_utils.obj
 0001:00002020       ?erase@?$basic_string@DU?$char_traits@D@std@@V?$allocator@D@2@@std@@QEAAAEAV12@_K0@Z 0000000180003020 f i greenworks_api_utils.obj
 0001:000020f0       ?_Copy@?$basic_string@DU?$char_traits@D@std@@V?$allocator@D@2@@std@@QEAAX_K0@Z 00000001800030f0 f i greenworks_api_utils.obj
 0001:000021d0       ?allocate@?$allocator@D@std@@QEAAPEAD_K@Z 00000001800031d0 f i greenworks_api_utils.obj
 0001:000021d0       ?allocate@?$_Wrap_alloc@V?$allocator@D@std@@@std@@QEAAPEAD_K@Z 00000001800031d0 f i greenworks_api_utils.obj
 0001:00002240       ??$_Allocate@V?$function@$$A6AXV?$Local@VObject@v8@@@v8@@@Z@std@@@std@@YAPEAV?$function@$$A6AXV?$Local@VObject@v8@@@v8@@@Z@0@_KPEAV10@_N@Z 0000000180003240 f i greenworks_api_utils.obj
 0001:000022c0       ?_Delete_this@?$_Func_impl@P6AXV?$Local@VObject@v8@@@v8@@@ZV?$allocator@H@std@@XV12@@std@@EEAAX_N@Z 00000001800032c0 f i greenworks_api_utils.obj
 0001:000022e0       ?_Get@?$_Func_impl@P6AXV?$Local@VObject@v8@@@v8@@@ZV?$allocator@H@std@@XV12@@std@@EEBAPEBXXZ 00000001800032e0 f i greenworks_api_utils.obj
 0001:000022f0       ?_Target_type@?$_Func_impl@P6AXV?$Local@VObject@v8@@@v8@@@ZV?$allocator@H@std@@XV12@@std@@EEBAAEBVtype_info@@XZ 00000001800032f0 f i greenworks_api_utils.obj
 0001:00002300       ?_Do_call@?$_Func_impl@P6AXV?$Local@VObject@v8@@@v8@@@ZV?$allocator@H@std@@XV12@@std@@EEAAX$$QEAV?$Local@VObject@v8@@@v8@@@Z 0000000180003300 f i greenworks_api_utils.obj
 0001:00002310       ?_Move@?$_Func_impl@P6AXV?$Local@VObject@v8@@@v8@@@ZV?$allocator@H@std@@XV12@@std@@EEAAPEAV?$_Func_base@XV?$Local@VObject@v8@@@v8@@@2@PEAX@Z 0000000180003310 f i greenworks_api_utils.obj
 0001:00002310       ?_Copy@?$_Func_impl@P6AXV?$Local@VObject@v8@@@v8@@@ZV?$allocator@H@std@@XV12@@std@@EEBAPEAV?$_Func_base@XV?$Local@VObject@v8@@@v8@@@2@PEAX@Z 0000000180003310 f i greenworks_api_utils.obj
 0001:00002330       ??$?0V?$allocator@H@std@@@?$_Wrap_alloc@V?$allocator@V?$_Func_impl@P6AXV?$Local@VObject@v8@@@v8@@@ZV?$allocator@H@std@@XV12@@std@@@std@@@std@@QEAA@AEBV?$allocator@H@1@@Z 0000000180003330 f i greenworks_api_utils.obj
 0001:00002330       ??$?0V?$allocator@H@std@@@?$_Wrap_alloc@V?$allocator@V?$_Func_impl@P6AXV?$Local@VObject@v8@@@v8@@@ZV?$allocator@H@std@@XV12@@std@@@std@@@std@@QEAA@AEAV?$allocator@H@1@@Z 0000000180003330 f i greenworks_api_utils.obj
 0001:00002330       ?setbuf@?$basic_streambuf@DU?$char_traits@D@std@@@std@@MEAAPEAV12@PEAD_J@Z 0000000180003330 f i steam_api_settings.obj
 0001:00002340       ??0?$function@$$A6AXV?$Local@VObject@v8@@@v8@@@Z@std@@QEAA@$$QEAV01@@Z 0000000180003340 f i greenworks_api_utils.obj
 0001:000023d0       ?SteamInternal_OnContextInit@@YAXPEAX@Z 00000001800033d0 f i steam_api_achievement.obj
 0001:00002460       ?Init@CSteamAPIContext@@QEAA_NXZ 0000000180003460 f i steam_api_achievement.obj
 0001:00003600       ??$To@VInt32@v8@@@imp@Nan@@YA?AV?$Local@VInt32@v8@@@v8@@V?$Local@VInteger@v8@@@3@@Z 0000000180004600 f i steam_api_auth.obj
 0001:000063c0       ??0?$basic_string@DU?$char_traits@D@std@@V?$allocator@D@2@@std@@QEAA@$$QEAV01@@Z 00000001800073c0 f i steam_api_cloud.obj
 0001:00006440       ?_Reserve@?$vector@V?$basic_string@DU?$char_traits@D@std@@V?$allocator@D@2@@std@@V?$allocator@V?$basic_string@DU?$char_traits@D@std@@V?$allocator@D@2@@std@@@2@@std@@IEAAX_K@Z 0000000180007440 f i steam_api_cloud.obj
 0001:000064d0       ?_Assign_rv@?$basic_string@DU?$char_traits@D@std@@V?$allocator@D@2@@std@@QEAAX$$QEAV12@@Z 00000001800074d0 f i steam_api_cloud.obj
 0001:00006540       ?deallocate@?$_Wrap_alloc@V?$allocator@V?$basic_string@DU?$char_traits@D@std@@V?$allocator@D@2@@std@@@std@@@std@@QEAAXPEAV?$basic_string@DU?$char_traits@D@std@@V?$allocator@D@2@@2@_K@Z 0000000180007540 f i steam_api_cloud.obj
 0001:000065b0       ?_Reallocate@?$vector@V?$basic_string@DU?$char_traits@D@std@@V?$allocator@D@2@@std@@V?$allocator@V?$basic_string@DU?$char_traits@D@std@@V?$allocator@D@2@@std@@@2@@std@@IEAAX_K@Z 00000001800075b0 f i steam_api_cloud.obj
 0001:00006640       ??$construct@V?$basic_string@DU?$char_traits@D@std@@V?$allocator@D@2@@std@@V12@@?$_Wrap_alloc@V?$allocator@V?$basic_string@DU?$char_traits@D@std@@V?$allocator@D@2@@std@@@std@@@std@@QEAAXPEAV?$basic_string@DU?$char_traits@D@std@@V?$allocator@D@2@@1@$$QEAV21@@Z 0000000180007640 f i steam_api_cloud.obj
 0001:000066d0       ??$_Allocate@V?$basic_string@DU?$char_traits@D@std@@V?$allocator@D@2@@std@@@std@@YAPEAV?$basic_string@DU?$char_traits@D@std@@V?$allocator@D@2@@0@_KPEAV10@_N@Z 00000001800076d0 f i steam_api_cloud.obj
 0001:00006750       ??$_Destroy_range@U?$_Wrap_alloc@V?$allocator@V?$basic_string@DU?$char_traits@D@std@@V?$allocator@D@2@@std@@@std@@@std@@@std@@YAXPEAV?$basic_string@DU?$char_traits@D@std@@V?$allocator@D@2@@0@0AEAU?$_Wrap_alloc@V?$allocator@V?$basic_string@DU?$char_traits@D@std@@V?$allocator@D@2@@std@@@std@@@0@U_Nonscalar_ptr_iterator_tag@0@@Z 0000000180007750 f i steam_api_cloud.obj
 0001:00006800       ??$_Uninit_move@PEAV?$basic_string@DU?$char_traits@D@std@@V?$allocator@D@2@@std@@PEAV12@V?$allocator@V?$basic_string@DU?$char_traits@D@std@@V?$allocator@D@2@@std@@@2@V12@@std@@YAPEAV?$basic_string@DU?$char_traits@D@std@@V?$allocator@D@2@@0@PEAV10@00AEAU?$_Wrap_alloc@V?$allocator@V?$basic_string@DU?$char_traits@D@std@@V?$allocator@D@2@@std@@@std@@@0@0U_Nonscalar_ptr_iterator_tag@0@@Z 0000000180007800 f i steam_api_cloud.obj
 0001:0000b8d0       __local_stdio_printf_options 000000018000c8d0 f i steam_api_settings.obj
 0001:0000b8e0       sprintf_s                  000000018000c8e0 f i steam_api_settings.obj
 0001:0000b940       ?what@exception@stdext@@UEBAPEBDXZ 000000018000c940 f i steam_api_settings.obj
 0001:0000b960       ??_Gexception@stdext@@UEAAPEAXI@Z 000000018000c960 f i steam_api_settings.obj
 0001:0000b960       ??_Eruntime_error@std@@UEAAPEAXI@Z 000000018000c960 f i * CIL library *:* CIL module *
 0001:0000b960       ??_Eexception@stdext@@UEAAPEAXI@Z 000000018000c960 f i * CIL library *:* CIL module *
 0001:0000b960       ??_Gruntime_error@std@@UEAAPEAXI@Z 000000018000c960 f i steam_api_settings.obj
 0001:0000b990       ?_Doraise@failure@ios_base@std@@MEBAXXZ 000000018000c990 f i steam_api_settings.obj
 0001:0000b990       ?_Doraise@runtime_error@std@@MEBAXXZ 000000018000c990 f i steam_api_settings.obj
 0001:0000b9b0       ??0_Locinfo@std@@QEAA@PEBD@Z 000000018000c9b0 f i steam_api_settings.obj
 0001:0000ba70       ??1_Locinfo@std@@QEAA@XZ   000000018000ca70 f i steam_api_settings.obj
 0001:0000bb10       ??_E_Facet_base@std@@UEAAPEAXI@Z 000000018000cb10 f i * CIL library *:* CIL module *
 0001:0000bb10       ??_G_Facet_base@std@@UEAAPEAXI@Z 000000018000cb10 f i steam_api_settings.obj
 0001:0000bb40       ?_Incref@facet@locale@std@@UEAAXXZ 000000018000cb40 f i steam_api_settings.obj
 0001:0000bb50       ?_Decref@facet@locale@std@@UEAAPEAV_Facet_base@3@XZ 000000018000cb50 f i steam_api_settings.obj
 0001:0000bb70       ?_Getcat@?$ctype@D@std@@SA_KPEAPEBVfacet@locale@2@PEBV42@@Z 000000018000cb70 f i steam_api_settings.obj
 0001:0000bc30       ?do_tolower@?$ctype@D@std@@MEBADD@Z 000000018000cc30 f i steam_api_settings.obj
 0001:0000bc40       ?do_tolower@?$ctype@D@std@@MEBAPEBDPEADPEBD@Z 000000018000cc40 f i steam_api_settings.obj
 0001:0000bca0       ?do_toupper@?$ctype@D@std@@MEBADD@Z 000000018000cca0 f i steam_api_settings.obj
 0001:0000bcb0       ?do_toupper@?$ctype@D@std@@MEBAPEBDPEADPEBD@Z 000000018000ccb0 f i steam_api_settings.obj
 0001:0000bd10       ?do_narrow@?$ctype@D@std@@MEBADDD@Z 000000018000cd10 f i steam_api_settings.obj
 0001:0000bd10       ?do_widen@?$ctype@D@std@@MEBADD@Z 000000018000cd10 f i steam_api_settings.obj
 0001:0000bd20       ?do_widen@?$ctype@D@std@@MEBAPEBDPEBD0PEAD@Z 000000018000cd20 f i steam_api_settings.obj
 0001:0000bd40       ?do_narrow@?$ctype@D@std@@MEBAPEBDPEBD0DPEAD@Z 000000018000cd40 f i steam_api_settings.obj
 0001:0000bd60       ??_G?$ctype@D@std@@MEAAPEAXI@Z 000000018000cd60 f i steam_api_settings.obj
 0001:0000bd60       ??_E?$ctype@D@std@@MEAAPEAXI@Z 000000018000cd60 f i * CIL library *:* CIL module *
 0001:0000bdd0       ??_E_Iostream_error_category@std@@UEAAPEAXI@Z 000000018000cdd0 f i * CIL library *:* CIL module *
 0001:0000bdd0       ??_G_Iostream_error_category@std@@UEAAPEAXI@Z 000000018000cdd0 f i steam_api_settings.obj
 0001:0000bdd0       ??_Eerror_category@std@@UEAAPEAXI@Z 000000018000cdd0 f i * CIL library *:* CIL module *
 0001:0000bdd0       ??_Gerror_category@std@@UEAAPEAXI@Z 000000018000cdd0 f i steam_api_settings.obj
 0001:0000be00       ?default_error_condition@error_category@std@@UEBA?AVerror_condition@2@H@Z 000000018000ce00 f i steam_api_settings.obj
 0001:0000be10       ?equivalent@error_category@std@@UEBA_NHAEBVerror_condition@2@@Z 000000018000ce10 f i steam_api_settings.obj
 0001:0000be30       ?equivalent@error_category@std@@UEBA_NAEBVerror_code@2@H@Z 000000018000ce30 f i steam_api_settings.obj
 0001:0000be50       ??0_System_error@std@@IEAA@Verror_code@1@AEBV?$basic_string@DU?$char_traits@D@std@@V?$allocator@D@2@@1@@Z 000000018000ce50 f i steam_api_settings.obj
 0001:0000bfe0       ??_E_System_error@std@@UEAAPEAXI@Z 000000018000cfe0 f i * CIL library *:* CIL module *
 0001:0000bfe0       ??_Gfailure@ios_base@std@@UEAAPEAXI@Z 000000018000cfe0 f i steam_api_settings.obj
 0001:0000bfe0       ??_G_System_error@std@@UEAAPEAXI@Z 000000018000cfe0 f i steam_api_settings.obj
 0001:0000bfe0       ??_Efailure@ios_base@std@@UEAAPEAXI@Z 000000018000cfe0 f i * CIL library *:* CIL module *
 0001:0000c010       ?name@_Iostream_error_category@std@@UEBAPEBDXZ 000000018000d010 f i steam_api_settings.obj
 0001:0000c020       ?message@_Iostream_error_category@std@@UEBA?AV?$basic_string@DU?$char_traits@D@std@@V?$allocator@D@2@@2@H@Z 000000018000d020 f i steam_api_settings.obj
 0001:0000c0a0       ?clear@ios_base@std@@QEAAXH_N@Z 000000018000d0a0 f i steam_api_settings.obj
 0001:0000c320       ??_Eios_base@std@@UEAAPEAXI@Z 000000018000d320 f i * CIL library *:* CIL module *
 0001:0000c320       ??_Gios_base@std@@UEAAPEAXI@Z 000000018000d320 f i steam_api_settings.obj
 0001:0000c360       ??$To@VUint32@v8@@@imp@Nan@@YA?AV?$Local@VUint32@v8@@@v8@@V?$Local@VInteger@v8@@@3@@Z 000000018000d360 f i steam_api_settings.obj
 0001:0000f2f0       ??A?$map@W4EAccountType@@V?$basic_string@DU?$char_traits@D@std@@V?$allocator@D@2@@std@@U?$less@W4EAccountType@@@3@V?$allocator@U?$pair@$$CBW4EAccountType@@V?$basic_string@DU?$char_traits@D@std@@V?$allocator@D@2@@std@@@std@@@3@@std@@QEAAAEAV?$basic_string@DU?$char_traits@D@std@@V?$allocator@D@2@@1@AEBW4EAccountType@@@Z 00000001800102f0 f i steam_api_settings.obj
 0001:0000f3d0       ??1?$basic_ostringstream@DU?$char_traits@D@std@@V?$allocator@D@2@@std@@UEAA@XZ 00000001800103d0 f i steam_api_settings.obj
 0001:0000f4b0       ??0?$basic_ostringstream@DU?$char_traits@D@std@@V?$allocator@D@2@@std@@QEAA@H@Z 00000001800104b0 f i steam_api_settings.obj
 0001:0000f570       ?seekpos@?$basic_stringbuf@DU?$char_traits@D@std@@V?$allocator@D@2@@std@@MEAA?AV?$fpos@U_Mbstatet@@@2@V32@H@Z 0000000180010570 f i steam_api_settings.obj
 0001:0000f680       ?seekoff@?$basic_stringbuf@DU?$char_traits@D@std@@V?$allocator@D@2@@std@@MEAA?AV?$fpos@U_Mbstatet@@@2@_JHH@Z 0000000180010680 f i steam_api_settings.obj
 0001:0000f810       ?underflow@?$basic_stringbuf@DU?$char_traits@D@std@@V?$allocator@D@2@@std@@MEAAHXZ 0000000180010810 f i steam_api_settings.obj
 0001:0000f870       ?pbackfail@?$basic_stringbuf@DU?$char_traits@D@std@@V?$allocator@D@2@@std@@MEAAHH@Z 0000000180010870 f i steam_api_settings.obj
 0001:0000f8c0       ?overflow@?$basic_stringbuf@DU?$char_traits@D@std@@V?$allocator@D@2@@std@@MEAAHH@Z 00000001800108c0 f i steam_api_settings.obj
 0001:0000fb30       ??6?$basic_ostream@DU?$char_traits@D@std@@@std@@QEAAAEAV01@I@Z 0000000180010b30 f i steam_api_settings.obj
 0001:0000fcd0       ?showmanyc@?$basic_streambuf@DU?$char_traits@D@std@@@std@@MEAA_JXZ 0000000180010cd0 f i steam_api_settings.obj
 0001:0000fcd0       ?sync@?$basic_streambuf@DU?$char_traits@D@std@@@std@@MEAAHXZ 0000000180010cd0 f i steam_api_settings.obj
 0001:0000fce0       ?seekoff@?$basic_streambuf@DU?$char_traits@D@std@@@std@@MEAA?AV?$fpos@U_Mbstatet@@@2@_JHH@Z 0000000180010ce0 f i steam_api_settings.obj
 0001:0000fce0       ?seekpos@?$basic_streambuf@DU?$char_traits@D@std@@@std@@MEAA?AV?$fpos@U_Mbstatet@@@2@V32@H@Z 0000000180010ce0 f i steam_api_settings.obj
 0001:0000fd00       ?xsputn@?$basic_streambuf@DU?$char_traits@D@std@@@std@@MEAA_JPEBD_J@Z 0000000180010d00 f i steam_api_settings.obj
 0001:0000fdc0       ?xsgetn@?$basic_streambuf@DU?$char_traits@D@std@@@std@@MEAA_JPEAD_J@Z 0000000180010dc0 f i steam_api_settings.obj
 0001:0000fe80       ?uflow@?$basic_streambuf@DU?$char_traits@D@std@@@std@@MEAAHXZ 0000000180010e80 f i steam_api_settings.obj
 0001:0000fec0       ?pbackfail@?$basic_streambuf@DU?$char_traits@D@std@@@std@@MEAAHH@Z 0000000180010ec0 f i steam_api_settings.obj
 0001:0000fec0       ?overflow@?$basic_streambuf@DU?$char_traits@D@std@@@std@@MEAAHH@Z 0000000180010ec0 f i steam_api_settings.obj
 0001:0000fec0       ?underflow@?$basic_streambuf@DU?$char_traits@D@std@@@std@@MEAAHXZ 0000000180010ec0 f i steam_api_settings.obj
 0001:0000fed0       ??_E?$basic_ostringstream@DU?$char_traits@D@std@@V?$allocator@D@2@@std@@UEAAPEAXI@Z 0000000180010ed0 f i * CIL library *:* CIL module *
 0001:0000fed0       ??_G?$basic_ostringstream@DU?$char_traits@D@std@@V?$allocator@D@2@@std@@UEAAPEAXI@Z 0000000180010ed0 f i steam_api_settings.obj
 0001:0000ff40       ??_G?$basic_stringbuf@DU?$char_traits@D@std@@V?$allocator@D@2@@std@@UEAAPEAXI@Z 0000000180010f40 f i steam_api_settings.obj
 0001:0000ff40       ??_E?$basic_stringbuf@DU?$char_traits@D@std@@V?$allocator@D@2@@std@@UEAAPEAXI@Z 0000000180010f40 f i * CIL library *:* CIL module *
 0001:0000ffd0       ??_G?$basic_ostream@DU?$char_traits@D@std@@@std@@UEAAPEAXI@Z 0000000180010fd0 f i steam_api_settings.obj
 0001:0000ffd0       ??_E?$basic_ostream@DU?$char_traits@D@std@@@std@@UEAAPEAXI@Z 0000000180010fd0 f i * CIL library *:* CIL module *
 0001:00010040       ??_G?$basic_streambuf@DU?$char_traits@D@std@@@std@@UEAAPEAXI@Z 0000000180011040 f i steam_api_settings.obj
 0001:00010040       ??_E?$basic_streambuf@DU?$char_traits@D@std@@@std@@UEAAPEAXI@Z 0000000180011040 f i * CIL library *:* CIL module *
 0001:000100c0       ??_Glocale@std@@QEAAPEAXI@Z 00000001800110c0 f i steam_api_settings.obj
 0001:00010120       ??_G?$basic_ios@DU?$char_traits@D@std@@@std@@UEAAPEAXI@Z 0000000180011120 f i steam_api_settings.obj
 0001:00010120       ??_E?$basic_ios@DU?$char_traits@D@std@@@std@@UEAAPEAXI@Z 0000000180011120 f i * CIL library *:* CIL module *
 0001:00010160       ??0sentry@?$basic_ostream@DU?$char_traits@D@std@@@std@@QEAA@AEAV12@@Z 0000000180011160 f i steam_api_settings.obj
 0001:000101d0       ?do_put@?$num_put@DV?$ostreambuf_iterator@DU?$char_traits@D@std@@@std@@@std@@MEBA?AV?$ostreambuf_iterator@DU?$char_traits@D@std@@@2@V32@AEAVios_base@2@DPEBX@Z 00000001800111d0 f i steam_api_settings.obj
 0001:00010270       ?do_put@?$num_put@DV?$ostreambuf_iterator@DU?$char_traits@D@std@@@std@@@std@@MEBA?AV?$ostreambuf_iterator@DU?$char_traits@D@std@@@2@V32@AEAVios_base@2@DO@Z 0000000180011270 f i steam_api_settings.obj
 0001:000104b0       ?do_put@?$num_put@DV?$ostreambuf_iterator@DU?$char_traits@D@std@@@std@@@std@@MEBA?AV?$ostreambuf_iterator@DU?$char_traits@D@std@@@2@V32@AEAVios_base@2@DN@Z 00000001800114b0 f i steam_api_settings.obj
 0001:000106f0       ?do_put@?$num_put@DV?$ostreambuf_iterator@DU?$char_traits@D@std@@@std@@@std@@MEBA?AV?$ostreambuf_iterator@DU?$char_traits@D@std@@@2@V32@AEAVios_base@2@D_K@Z 00000001800116f0 f i steam_api_settings.obj
 0001:000107f0       ?do_put@?$num_put@DV?$ostreambuf_iterator@DU?$char_traits@D@std@@@std@@@std@@MEBA?AV?$ostreambuf_iterator@DU?$char_traits@D@std@@@2@V32@AEAVios_base@2@D_J@Z 00000001800117f0 f i steam_api_settings.obj
 0001:000108f0       ?do_put@?$num_put@DV?$ostreambuf_iterator@DU?$char_traits@D@std@@@std@@@std@@MEBA?AV?$ostreambuf_iterator@DU?$char_traits@D@std@@@2@V32@AEAVios_base@2@DK@Z 00000001800118f0 f i steam_api_settings.obj
 0001:000109f0       ?do_put@?$num_put@DV?$ostreambuf_iterator@DU?$char_traits@D@std@@@std@@@std@@MEBA?AV?$ostreambuf_iterator@DU?$char_traits@D@std@@@2@V32@AEAVios_base@2@DJ@Z 00000001800119f0 f i steam_api_settings.obj
 0001:00010af0       ?do_put@?$num_put@DV?$ostreambuf_iterator@DU?$char_traits@D@std@@@std@@@std@@MEBA?AV?$ostreambuf_iterator@DU?$char_traits@D@std@@@2@V32@AEAVios_base@2@D_N@Z 0000000180011af0 f i steam_api_settings.obj
 0001:00010eb0       ?assign@?$basic_string@DU?$char_traits@D@std@@V?$allocator@D@2@@std@@QEAAAEAV12@_KD@Z 0000000180011eb0 f i steam_api_settings.obj
 0001:00010fc0       ?append@?$basic_string@DU?$char_traits@D@std@@V?$allocator@D@2@@std@@QEAAAEAV12@PEBD_K@Z 0000000180011fc0 f i steam_api_settings.obj
 0001:00011110       ?append@?$basic_string@DU?$char_traits@D@std@@V?$allocator@D@2@@std@@QEAAAEAV12@AEBV12@_K1@Z 0000000180012110 f i steam_api_settings.obj
 0001:00011240       ?_Tidy@?$basic_stringbuf@DU?$char_traits@D@std@@V?$allocator@D@2@@std@@IEAAXXZ 0000000180012240 f i steam_api_settings.obj
 0001:00011310       ?str@?$basic_stringbuf@DU?$char_traits@D@std@@V?$allocator@D@2@@std@@QEBA?AV?$basic_string@DU?$char_traits@D@std@@V?$allocator@D@2@@2@XZ 0000000180012310 f i steam_api_settings.obj
 0001:000114a0       ?_Pnavail@?$basic_streambuf@DU?$char_traits@D@std@@@std@@IEBA_JXZ 00000001800124a0 f i steam_api_settings.obj
 0001:000114c0       ?_Gnavail@?$basic_streambuf@DU?$char_traits@D@std@@@std@@IEBA_JXZ 00000001800124c0 f i steam_api_settings.obj
 0001:000114e0       ??_E?$num_get@DV?$istreambuf_iterator@DU?$char_traits@D@std@@@std@@@std@@MEAAPEAXI@Z 00000001800124e0 f i * CIL library *:* CIL module *
 0001:000114e0       ??_G?$codecvt@DDU_Mbstatet@@@std@@MEAAPEAXI@Z 00000001800124e0 f i greenworks_utils.obj
 0001:000114e0       ??_E?$codecvt@DDU_Mbstatet@@@std@@MEAAPEAXI@Z 00000001800124e0 f i * CIL library *:* CIL module *
 0001:000114e0       ??_G?$num_put@DV?$ostreambuf_iterator@DU?$char_traits@D@std@@@std@@@std@@MEAAPEAXI@Z 00000001800124e0 f i steam_api_settings.obj
 0001:000114e0       ??_E?$num_put@DV?$ostreambuf_iterator@DU?$char_traits@D@std@@@std@@@std@@MEAAPEAXI@Z 00000001800124e0 f i * CIL library *:* CIL module *
 0001:000114e0       ??_G?$num_get@DV?$istreambuf_iterator@DU?$char_traits@D@std@@@std@@@std@@MEAAPEAXI@Z 00000001800124e0 f i greenworks_utils.obj
 0001:00011510       ?do_truename@?$numpunct@D@std@@MEBA?AV?$basic_string@DU?$char_traits@D@std@@V?$allocator@D@2@@2@XZ 0000000180012510 f i steam_api_settings.obj
 0001:00011560       ?do_falsename@?$numpunct@D@std@@MEBA?AV?$basic_string@DU?$char_traits@D@std@@V?$allocator@D@2@@2@XZ 0000000180012560 f i steam_api_settings.obj
 0001:000115b0       ?do_grouping@?$numpunct@D@std@@MEBA?AV?$basic_string@DU?$char_traits@D@std@@V?$allocator@D@2@@2@XZ 00000001800125b0 f i steam_api_settings.obj
 0001:00011600       ?do_thousands_sep@?$numpunct@D@std@@MEBADXZ 0000000180012600 f i steam_api_settings.obj
 0001:00011610       ?do_decimal_point@?$numpunct@D@std@@MEBADXZ 0000000180012610 f i steam_api_settings.obj
 0001:00011620       ?_Iput@?$num_put@DV?$ostreambuf_iterator@DU?$char_traits@D@std@@@std@@@std@@AEBA?AV?$ostreambuf_iterator@DU?$char_traits@D@std@@@2@V32@AEAVios_base@2@DPEAD_K@Z 0000000180012620 f i steam_api_settings.obj
 0001:00011c60       ?_Fput@?$num_put@DV?$ostreambuf_iterator@DU?$char_traits@D@std@@@std@@@std@@AEBA?AV?$ostreambuf_iterator@DU?$char_traits@D@std@@@2@V32@AEAVios_base@2@DPEBD_K@Z 0000000180012c60 f i steam_api_settings.obj
 0001:00012430       ?erase@?$_Tree@V?$_Tmap_traits@W4EAccountType@@V?$basic_string@DU?$char_traits@D@std@@V?$allocator@D@2@@std@@U?$less@W4EAccountType@@@3@V?$allocator@U?$pair@$$CBW4EAccountType@@V?$basic_string@DU?$char_traits@D@std@@V?$allocator@D@2@@std@@@std@@@3@$0A@@std@@@std@@QEAA?AV?$_Tree_iterator@V?$_Tree_val@U?$_Tree_simple_types@U?$pair@$$CBW4EAccountType@@V?$basic_string@DU?$char_traits@D@std@@V?$allocator@D@2@@std@@@std@@@std@@@std@@@2@V?$_Tree_const_iterator@V?$_Tree_val@U?$_Tree_simple_types@U?$pair@$$CBW4EAccountType@@V?$basic_string@DU?$char_traits@D@std@@V?$allocator@D@2@@std@@@std@@@std@@@std@@@2@0@Z 0000000180013430 f i steam_api_settings.obj
 0001:00012530       ?append@?$basic_string@DU?$char_traits@D@std@@V?$allocator@D@2@@std@@QEAAAEAV12@_KD@Z 0000000180013530 f i steam_api_settings.obj
 0001:00012640       ?_Init@?$basic_stringbuf@DU?$char_traits@D@std@@V?$allocator@D@2@@std@@IEAAXPEBD_KH@Z 0000000180013640 f i steam_api_settings.obj
 0001:00012710       ?flush@?$basic_ostream@DU?$char_traits@D@std@@@std@@QEAAAEAV12@XZ 0000000180013710 f i steam_api_settings.obj
 0001:000127f0       ??0?$basic_streambuf@DU?$char_traits@D@std@@@std@@IEAA@XZ 00000001800137f0 f i steam_api_settings.obj
 0001:00012890       ?init@?$basic_ios@DU?$char_traits@D@std@@@std@@IEAAXPEAV?$basic_streambuf@DU?$char_traits@D@std@@@2@_N@Z 0000000180013890 f i steam_api_settings.obj
 0001:00012930       ??_G?$numpunct@D@std@@MEAAPEAXI@Z 0000000180013930 f i steam_api_settings.obj
 0001:00012930       ??_E?$numpunct@D@std@@MEAAPEAXI@Z 0000000180013930 f i * CIL library *:* CIL module *
 0001:00012990       ?erase@?$_Tree@V?$_Tmap_traits@W4EAccountType@@V?$basic_string@DU?$char_traits@D@std@@V?$allocator@D@2@@std@@U?$less@W4EAccountType@@@3@V?$allocator@U?$pair@$$CBW4EAccountType@@V?$basic_string@DU?$char_traits@D@std@@V?$allocator@D@2@@std@@@std@@@3@$0A@@std@@@std@@QEAA?AV?$_Tree_iterator@V?$_Tree_val@U?$_Tree_simple_types@U?$pair@$$CBW4EAccountType@@V?$basic_string@DU?$char_traits@D@std@@V?$allocator@D@2@@std@@@std@@@std@@@std@@@2@V?$_Tree_const_iterator@V?$_Tree_val@U?$_Tree_simple_types@U?$pair@$$CBW4EAccountType@@V?$basic_string@DU?$char_traits@D@std@@V?$allocator@D@2@@std@@@std@@@std@@@std@@@2@@Z 0000000180013990 f i steam_api_settings.obj
 0001:00012e20       ?insert@?$basic_string@DU?$char_traits@D@std@@V?$allocator@D@2@@std@@QEAAAEAV12@_K0D@Z 0000000180013e20 f i steam_api_settings.obj
 0001:00012f90       ?widen@?$basic_ios@DU?$char_traits@D@std@@@std@@QEBADD@Z 0000000180013f90 f i steam_api_settings.obj
 0001:00013010       ?_Rrotate@?$_Tree@V?$_Tmap_traits@W4EAccountType@@V?$basic_string@DU?$char_traits@D@std@@V?$allocator@D@2@@std@@U?$less@W4EAccountType@@@3@V?$allocator@U?$pair@$$CBW4EAccountType@@V?$basic_string@DU?$char_traits@D@std@@V?$allocator@D@2@@std@@@std@@@3@$0A@@std@@@std@@IEAAXPEAU?$_Tree_node@U?$pair@$$CBW4EAccountType@@V?$basic_string@DU?$char_traits@D@std@@V?$allocator@D@2@@std@@@std@@PEAX@2@@Z 0000000180014010 f i steam_api_settings.obj
 0001:00013070       ?_Lrotate@?$_Tree@V?$_Tmap_traits@W4EAccountType@@V?$basic_string@DU?$char_traits@D@std@@V?$allocator@D@2@@std@@U?$less@W4EAccountType@@@3@V?$allocator@U?$pair@$$CBW4EAccountType@@V?$basic_string@DU?$char_traits@D@std@@V?$allocator@D@2@@std@@@std@@@3@$0A@@std@@@std@@IEAAXPEAU?$_Tree_node@U?$pair@$$CBW4EAccountType@@V?$basic_string@DU?$char_traits@D@std@@V?$allocator@D@2@@std@@@std@@PEAX@2@@Z 0000000180014070 f i steam_api_settings.obj
 0001:000130d0       ?_Erase@?$_Tree@V?$_Tmap_traits@W4EAccountType@@V?$basic_string@DU?$char_traits@D@std@@V?$allocator@D@2@@std@@U?$less@W4EAccountType@@@3@V?$allocator@U?$pair@$$CBW4EAccountType@@V?$basic_string@DU?$char_traits@D@std@@V?$allocator@D@2@@std@@@std@@@3@$0A@@std@@@std@@IEAAXPEAU?$_Tree_node@U?$pair@$$CBW4EAccountType@@V?$basic_string@DU?$char_traits@D@std@@V?$allocator@D@2@@std@@@std@@PEAX@2@@Z 00000001800140d0 f i steam_api_settings.obj
 0001:000131b0       ??$use_facet@V?$ctype@D@std@@@std@@YAAEBV?$ctype@D@0@AEBVlocale@0@@Z 00000001800141b0 f i steam_api_settings.obj
 0001:000132e0       ??$_Immortalize@V_Iostream_error_category@std@@@std@@YAAEAV_Iostream_error_category@0@XZ 00000001800142e0 f i steam_api_settings.obj
 0001:00013360       ??$New@VString@v8@@V?$basic_string@DU?$char_traits@D@std@@V?$allocator@D@2@@std@@@Nan@@YA?AV?$MaybeLocal@VString@v8@@@v8@@V?$basic_string@DU?$char_traits@D@std@@V?$allocator@D@2@@std@@@Z 0000000180014360 f i steam_api_settings.obj
 0001:00013400       ??$insert@PEBU?$pair@$$CBW4EAccountType@@V?$basic_string@DU?$char_traits@D@std@@V?$allocator@D@2@@std@@@std@@@?$_Tree@V?$_Tmap_traits@W4EAccountType@@V?$basic_string@DU?$char_traits@D@std@@V?$allocator@D@2@@std@@U?$less@W4EAccountType@@@3@V?$allocator@U?$pair@$$CBW4EAccountType@@V?$basic_string@DU?$char_traits@D@std@@V?$allocator@D@2@@std@@@std@@@3@$0A@@std@@@std@@QEAAXPEBU?$pair@$$CBW4EAccountType@@V?$basic_string@DU?$char_traits@D@std@@V?$allocator@D@2@@std@@@1@0@Z 0000000180014400 f i steam_api_settings.obj
 0001:000134f0       ??$use_facet@V?$num_put@DV?$ostreambuf_iterator@DU?$char_traits@D@std@@@std@@@std@@@std@@YAAEBV?$num_put@DV?$ostreambuf_iterator@DU?$char_traits@D@std@@@std@@@0@AEBVlocale@0@@Z 00000001800144f0 f i steam_api_settings.obj
 0001:00013620       ??$use_facet@V?$numpunct@D@std@@@std@@YAAEBV?$numpunct@D@0@AEBVlocale@0@@Z 0000000180014620 f i steam_api_settings.obj
 0001:00013750       ?_Getcat@?$numpunct@D@std@@SA_KPEAPEBVfacet@locale@2@PEBV42@@Z 0000000180014750 f i steam_api_settings.obj
 0001:00013810       ?_Getcat@?$num_put@DV?$ostreambuf_iterator@DU?$char_traits@D@std@@@std@@@std@@SA_KPEAPEBVfacet@locale@2@PEBV42@@Z 0000000180014810 f i steam_api_settings.obj
 0001:000138c0       ?_Init@?$numpunct@D@std@@IEAAXAEBV_Locinfo@2@_N@Z 00000001800148c0 f i steam_api_settings.obj
 0001:00013a40       ??$_Insert_hint@AEAU?$pair@$$CBW4EAccountType@@V?$basic_string@DU?$char_traits@D@std@@V?$allocator@D@2@@std@@@std@@PEAU?$_Tree_node@U?$pair@$$CBW4EAccountType@@V?$basic_string@DU?$char_traits@D@std@@V?$allocator@D@2@@std@@@std@@PEAX@2@@?$_Tree@V?$_Tmap_traits@W4EAccountType@@V?$basic_string@DU?$char_traits@D@std@@V?$allocator@D@2@@std@@U?$less@W4EAccountType@@@3@V?$allocator@U?$pair@$$CBW4EAccountType@@V?$basic_string@DU?$char_traits@D@std@@V?$allocator@D@2@@std@@@std@@@3@$0A@@std@@@std@@IEAA?AV?$_Tree_iterator@V?$_Tree_val@U?$_Tree_simple_types@U?$pair@$$CBW4EAccountType@@V?$basic_string@DU?$char_traits@D@std@@V?$allocator@D@2@@std@@@std@@@std@@@std@@@1@V?$_Tree_const_iterator@V?$_Tree_val@U?$_Tree_simple_types@U?$pair@$$CBW4EAccountType@@V?$basic_string@DU?$char_traits@D@std@@V?$allocator@D@2@@std@@@std@@@std@@@std@@@1@AEAU?$pair@$$CBW4EAccountType@@V?$basic_string@DU?$char_traits@D@std@@V?$allocator@D@2@@std@@@1@PEAU?$_Tree_node@U?$pair@$$CBW4EAccountType@@V?$basic_string@DU?$char_traits@D@std@@V?$allocator@D@2@@std@@@std@@PEAX@1@@Z 0000000180014a40 f i steam_api_settings.obj
 0001:00013c90       ?_Destroy_if_not_nil@?$_Tree@V?$_Tmap_traits@W4EAccountType@@V?$basic_string@DU?$char_traits@D@std@@V?$allocator@D@2@@std@@U?$less@W4EAccountType@@@3@V?$allocator@U?$pair@$$CBW4EAccountType@@V?$basic_string@DU?$char_traits@D@std@@V?$allocator@D@2@@std@@@std@@@3@$0A@@std@@@std@@IEAAXPEAU?$_Tree_node@U?$pair@$$CBW4EAccountType@@V?$basic_string@DU?$char_traits@D@std@@V?$allocator@D@2@@std@@@std@@PEAX@2@@Z 0000000180014c90 f i steam_api_settings.obj
 0001:00013ce0       ??$_Insert_at@AEAU?$pair@$$CBW4EAccountType@@V?$basic_string@DU?$char_traits@D@std@@V?$allocator@D@2@@std@@@std@@PEAU?$_Tree_node@U?$pair@$$CBW4EAccountType@@V?$basic_string@DU?$char_traits@D@std@@V?$allocator@D@2@@std@@@std@@PEAX@2@@?$_Tree@V?$_Tmap_traits@W4EAccountType@@V?$basic_string@DU?$char_traits@D@std@@V?$allocator@D@2@@std@@U?$less@W4EAccountType@@@3@V?$allocator@U?$pair@$$CBW4EAccountType@@V?$basic_string@DU?$char_traits@D@std@@V?$allocator@D@2@@std@@@std@@@3@$0A@@std@@@std@@IEAA?AV?$_Tree_iterator@V?$_Tree_val@U?$_Tree_simple_types@U?$pair@$$CBW4EAccountType@@V?$basic_string@DU?$char_traits@D@std@@V?$allocator@D@2@@std@@@std@@@std@@@std@@@1@_NPEAU?$_Tree_node@U?$pair@$$CBW4EAccountType@@V?$basic_string@DU?$char_traits@D@std@@V?$allocator@D@2@@std@@@std@@PEAX@1@AEAU?$pair@$$CBW4EAccountType@@V?$basic_string@DU?$char_traits@D@std@@V?$allocator@D@2@@std@@@1@1@Z 0000000180014ce0 f i steam_api_settings.obj
 0001:00013fd0       ??$_Insert_nohint@AEAU?$pair@$$CBW4EAccountType@@V?$basic_string@DU?$char_traits@D@std@@V?$allocator@D@2@@std@@@std@@PEAU?$_Tree_node@U?$pair@$$CBW4EAccountType@@V?$basic_string@DU?$char_traits@D@std@@V?$allocator@D@2@@std@@@std@@PEAX@2@@?$_Tree@V?$_Tmap_traits@W4EAccountType@@V?$basic_string@DU?$char_traits@D@std@@V?$allocator@D@2@@std@@U?$less@W4EAccountType@@@3@V?$allocator@U?$pair@$$CBW4EAccountType@@V?$basic_string@DU?$char_traits@D@std@@V?$allocator@D@2@@std@@@std@@@3@$0A@@std@@@std@@IEAA?AU?$pair@V?$_Tree_iterator@V?$_Tree_val@U?$_Tree_simple_types@U?$pair@$$CBW4EAccountType@@V?$basic_string@DU?$char_traits@D@std@@V?$allocator@D@2@@std@@@std@@@std@@@std@@@std@@_N@1@_NAEAU?$pair@$$CBW4EAccountType@@V?$basic_string@DU?$char_traits@D@std@@V?$allocator@D@2@@std@@@1@PEAU?$_Tree_node@U?$pair@$$CBW4EAccountType@@V?$basic_string@DU?$char_traits@D@std@@V?$allocator@D@2@@std@@@std@@PEAX@1@@Z 0000000180014fd0 f i steam_api_settings.obj
 0001:000140e8       ??_E?$basic_ostringstream@DU?$char_traits@D@std@@V?$allocator@D@2@@std@@$4PPPPPPPM@A@EAAPEAXI@Z 00000001800150e8 f i steam_api_settings.obj
 0001:000140f4       ??_E?$basic_ostream@DU?$char_traits@D@std@@@std@@$4PPPPPPPM@A@EAAPEAXI@Z 00000001800150f4 f i steam_api_settings.obj
 0001:00014100       ?Call@Callback@Nan@@QEBA?AV?$Local@VValue@v8@@@v8@@HQEAV34@@Z 0000000180015100 f i steam_api_stats.obj
 0001:00014200       ?WorkComplete@AsyncWorker@Nan@@UEAAXXZ 0000000180015200 f i steam_api_stats.obj
 0001:00014290       ?Destroy@AsyncWorker@Nan@@UEAAXXZ 0000000180015290 f i steam_api_stats.obj
 0001:000142b0       ?SetErrorMessage@AsyncWorker@Nan@@IEAAXPEBD@Z 00000001800152b0 f i steam_api_stats.obj
 0001:000143b0       ??_GStoreUserStatsWorker@?A0x0f10cf66@api@greenworks@@UEAAPEAXI@Z 00000001800153b0 f i steam_api_stats.obj
 0001:000143b0       ??_EStoreUserStatsWorker@?A0x0f10cf66@api@greenworks@@UEAAPEAXI@Z 00000001800153b0 f i * CIL library *:* CIL module *
 0001:00015480       ?GetCallbackSizeBytes@?$CCallResult@VUnsubscribePublishedFileWorker@greenworks@@URemoteStoragePublishedFileUnsubscribed_t@@@@EEAAHXZ 0000000180016480 f i greenworks_workshop_workers.obj
 0001:00015480       ?GetCallbackSizeBytes@?$CCallbackImpl@$0BA@@@MEAAHXZ 0000000180016480 f i steam_api_stats.obj
 0001:00015490       ?Run@?$CCallbackImpl@$03@@MEAAXPEAX_N_K@Z 0000000180016490 f i steam_client.obj
 0001:00015490       ?Run@?$CCallbackImpl@$0BA@@@MEAAXPEAX_N_K@Z 0000000180016490 f i steam_api_stats.obj
 0001:00015490       ?Run@?$CCallbackImpl@$07@@MEAAXPEAX_N_K@Z 0000000180016490 f i greenworks_async_workers.obj
 0001:000154b0       ?Run@?$CCallback@VStoreUserStatsWorker@?A0x0f10cf66@api@greenworks@@UUserStatsStored_t@@$0A@@@MEAAXPEAX@Z 00000001800164b0 f i steam_api_stats.obj
 0001:000154b0       ?Run@?$CCallback@VSteamClient@greenworks@@UMicroTxnAuthorizationResponse_t@@$0A@@@MEAAXPEAX@Z 00000001800164b0 f i steam_client.obj
 0001:000154b0       ?Run@?$CCallback@VSteamClient@greenworks@@USteamServersConnected_t@@$0A@@@MEAAXPEAX@Z 00000001800164b0 f i steam_client.obj
 0001:000154b0       ?Run@?$CCallback@VSteamClient@greenworks@@UPersonaStateChange_t@@$0A@@@MEAAXPEAX@Z 00000001800164b0 f i steam_client.obj
 0001:000154b0       ?Run@?$CCallbackImpl@$0BE@@@MEAAXPEAX_N_K@Z 00000001800164b0 f i steam_client.obj
 0001:000154b0       ?Run@?$CCallback@VSteamClient@greenworks@@USteamServersDisconnected_t@@$0A@@@MEAAXPEAX@Z 00000001800164b0 f i steam_client.obj
 0001:000154b0       ?Run@?$CCallbackImpl@$0BI@@@MEAAXPEAX_N_K@Z 00000001800164b0 f i steam_client.obj
 0001:000154b0       ?Run@?$CCallback@VSteamClient@greenworks@@UAvatarImageLoaded_t@@$0A@@@MEAAXPEAX@Z 00000001800164b0 f i steam_client.obj
 0001:000154b0       ?Run@?$CCallback@VSteamClient@greenworks@@USteamShutdown_t@@$0A@@@MEAAXPEAX@Z 00000001800164b0 f i steam_client.obj
 0001:000154b0       ?Run@?$CCallback@VSteamClient@greenworks@@UGameOverlayActivated_t@@$0A@@@MEAAXPEAX@Z 00000001800164b0 f i steam_client.obj
 0001:000154b0       ?Run@?$CCallbackImpl@$0M@@@MEAAXPEAX_N_K@Z 00000001800164b0 f i steam_client.obj
 0001:000154b0       ?Run@?$CCallback@VSteamClient@greenworks@@UGameConnectedFriendChatMsg_t@@$0A@@@MEAAXPEAX@Z 00000001800164b0 f i steam_client.obj
 0001:000154b0       ?Run@?$CCallback@VSteamClient@greenworks@@UDlcInstalled_t@@$0A@@@MEAAXPEAX@Z 00000001800164b0 f i steam_client.obj
 0001:000154b0       ?Run@?$CCallback@VSteamClient@greenworks@@USteamServerConnectFailure_t@@$0A@@@MEAAXPEAX@Z 00000001800164b0 f i steam_client.obj
 0001:000154b0       ?Run@?$CCallback@VGetAuthSessionTicketWorker@greenworks@@UGetAuthSessionTicketResponse_t@@$0A@@@MEAAXPEAX@Z 00000001800164b0 f i greenworks_async_workers.obj
 0001:00019fa0       ?insert@?$basic_string@DU?$char_traits@D@std@@V?$allocator@D@2@@std@@QEAAAEAV12@_KPEBD0@Z 000000018001afa0 f i steam_api_workshop.obj
 0001:0001a120       ?insert@?$basic_string@DU?$char_traits@D@std@@V?$allocator@D@2@@std@@QEAAAEAV12@_KAEBV12@00@Z 000000018001b120 f i steam_api_workshop.obj
 0001:0001a2c0       ??_EObserver@SteamClient@greenworks@@UEAAPEAXI@Z 000000018001b2c0 f i * CIL library *:* CIL module *
 0001:0001a2c0       ??_GObserver@SteamClient@greenworks@@UEAAPEAXI@Z 000000018001b2c0 f i greenworks_api.obj
 0001:0001a2f0       ??_GSteamEvent@greenworks@@UEAAPEAXI@Z 000000018001b2f0 f i greenworks_api.obj
 0001:0001a2f0       ??_ESteamEvent@greenworks@@UEAAPEAXI@Z 000000018001b2f0 f i * CIL library *:* CIL module *
 0001:0001a610       ?HandleOKCallback@AsyncWorker@Nan@@MEAAXXZ 000000018001b610 f i greenworks_async_workers.obj
 0001:0001a740       ??0FileContentSaveWorker@greenworks@@QEAA@PEAVCallback@Nan@@0V?$basic_string@DU?$char_traits@D@std@@V?$allocator@D@2@@std@@1@Z 000000018001b740 f   greenworks_async_workers.obj
 0001:0001a820       ??_EFileReadWorker@greenworks@@UEAAPEAXI@Z 000000018001b820 f i * CIL library *:* CIL module *
 0001:0001a820       ??_GFileReadWorker@greenworks@@UEAAPEAXI@Z 000000018001b820 f i greenworks_async_workers.obj
 0001:0001a820       ??_EFileContentSaveWorker@greenworks@@UEAAPEAXI@Z 000000018001b820 f i * CIL library *:* CIL module *
 0001:0001a820       ??_GFileContentSaveWorker@greenworks@@UEAAPEAXI@Z 000000018001b820 f i greenworks_async_workers.obj
 0001:0001a860       ??1FileReadWorker@greenworks@@UEAA@XZ 000000018001b860 f i greenworks_async_workers.obj
 0001:0001a860       ??1FileContentSaveWorker@greenworks@@UEAA@XZ 000000018001b860 f i greenworks_async_workers.obj
 0001:0001a920       ?Execute@FileContentSaveWorker@greenworks@@UEAAXXZ 000000018001b920 f   greenworks_async_workers.obj
 0001:0001a9c0       ??_EFilesSaveWorker@greenworks@@UEAAPEAXI@Z 000000018001b9c0 f i * CIL library *:* CIL module *
 0001:0001a9c0       ??_GFilesSaveWorker@greenworks@@UEAAPEAXI@Z 000000018001b9c0 f i greenworks_async_workers.obj
 0001:0001aa00       ??1FilesSaveWorker@greenworks@@UEAA@XZ 000000018001ba00 f i greenworks_async_workers.obj
 0001:0001aab0       ?Execute@FilesSaveWorker@greenworks@@UEAAXXZ 000000018001bab0 f   greenworks_async_workers.obj
 0001:0001b1a0       ??0FileDeleteWorker@greenworks@@QEAA@PEAVCallback@Nan@@0V?$basic_string@DU?$char_traits@D@std@@V?$allocator@D@2@@std@@@Z 000000018001c1a0 f   greenworks_async_workers.obj
 0001:0001b230       ??_GFileDeleteWorker@greenworks@@UEAAPEAXI@Z 000000018001c230 f i greenworks_async_workers.obj
 0001:0001b230       ??_EFileDeleteWorker@greenworks@@UEAAPEAXI@Z 000000018001c230 f i * CIL library *:* CIL module *
 0001:0001b230       ??_GActivateAchievementWorker@greenworks@@UEAAPEAXI@Z 000000018001c230 f i greenworks_async_workers.obj
 0001:0001b230       ??_EActivateAchievementWorker@greenworks@@UEAAPEAXI@Z 000000018001c230 f i * CIL library *:* CIL module *
 0001:0001b270       ??1GetAchievementWorker@greenworks@@UEAA@XZ 000000018001c270 f i greenworks_async_workers.obj
 0001:0001b270       ??1ClearAchievementWorker@greenworks@@UEAA@XZ 000000018001c270 f i greenworks_async_workers.obj
 0001:0001b270       ??1FileDeleteWorker@greenworks@@UEAA@XZ 000000018001c270 f i greenworks_async_workers.obj
 0001:0001b270       ??1ActivateAchievementWorker@greenworks@@UEAA@XZ 000000018001c270 f i greenworks_async_workers.obj
 0001:0001b300       ?Execute@FileDeleteWorker@greenworks@@UEAAXXZ 000000018001c300 f   greenworks_async_workers.obj
 0001:0001b3f0       ??0FileReadWorker@greenworks@@QEAA@PEAVCallback@Nan@@0V?$basic_string@DU?$char_traits@D@std@@V?$allocator@D@2@@std@@@Z 000000018001c3f0 f   greenworks_async_workers.obj
 0001:0001b4a0       ?Execute@FileReadWorker@greenworks@@UEAAXXZ 000000018001c4a0 f   greenworks_async_workers.obj
 0001:0001b6a0       ?HandleOKCallback@FileReadWorker@greenworks@@UEAAXXZ 000000018001c6a0 f   greenworks_async_workers.obj
 0001:0001b860       ??_ECloudQuotaGetWorker@greenworks@@UEAAPEAXI@Z 000000018001c860 f i * CIL library *:* CIL module *
 0001:0001b860       ??_GCloudQuotaGetWorker@greenworks@@UEAAPEAXI@Z 000000018001c860 f i greenworks_async_workers.obj
 0001:0001b8e0       ?Execute@CloudQuotaGetWorker@greenworks@@UEAAXXZ 000000018001c8e0 f   greenworks_async_workers.obj
 0001:0001b970       ?HandleOKCallback@CloudQuotaGetWorker@greenworks@@UEAAXXZ 000000018001c970 f   greenworks_async_workers.obj
 0001:0001bd30       ?Execute@ActivateAchievementWorker@greenworks@@UEAAXXZ 000000018001cd30 f   greenworks_async_workers.obj
 0001:0001be20       ??_EClearAchievementWorker@greenworks@@UEAAPEAXI@Z 000000018001ce20 f i * CIL library *:* CIL module *
 0001:0001be20       ??_GClearAchievementWorker@greenworks@@UEAAPEAXI@Z 000000018001ce20 f i greenworks_async_workers.obj
 0001:0001be20       ??_EGetAchievementWorker@greenworks@@UEAAPEAXI@Z 000000018001ce20 f i * CIL library *:* CIL module *
 0001:0001be20       ??_GGetAchievementWorker@greenworks@@UEAAPEAXI@Z 000000018001ce20 f i greenworks_async_workers.obj
 0001:0001be60       ?Execute@GetAchievementWorker@greenworks@@UEAAXXZ 000000018001ce60 f   greenworks_async_workers.obj
 0001:0001bef0       ?HandleOKCallback@GetAchievementWorker@greenworks@@UEAAXXZ 000000018001cef0 f   greenworks_async_workers.obj
 0001:0001c030       ?Execute@ClearAchievementWorker@greenworks@@UEAAXXZ 000000018001d030 f   greenworks_async_workers.obj
 0001:0001c130       ??0GetNumberOfPlayersWorker@greenworks@@QEAA@PEAVCallback@Nan@@0@Z 000000018001d130 f   greenworks_async_workers.obj
 0001:0001c1b0       ??_EGetNumberOfPlayersWorker@greenworks@@UEAAPEAXI@Z 000000018001d1b0 f i * CIL library *:* CIL module *
 0001:0001c1b0       ??_GGetNumberOfPlayersWorker@greenworks@@UEAAPEAXI@Z 000000018001d1b0 f i greenworks_async_workers.obj
 0001:0001c1f0       ??1GetNumberOfPlayersWorker@greenworks@@UEAA@XZ 000000018001d1f0 f i greenworks_async_workers.obj
 0001:0001c280       ?Execute@GetNumberOfPlayersWorker@greenworks@@UEAAXXZ 000000018001d280 f   greenworks_async_workers.obj
 0001:0001c320       ?OnGetNumberOfPlayersCompleted@GetNumberOfPlayersWorker@greenworks@@QEAAXPEAUNumberOfCurrentPlayers_t@@_N@Z 000000018001d320 f   greenworks_async_workers.obj
 0001:0001c400       ?HandleOKCallback@GetNumberOfPlayersWorker@greenworks@@UEAAXXZ 000000018001d400 f   greenworks_async_workers.obj
 0001:0001c5a0       ??_GCreateArchiveWorker@greenworks@@UEAAPEAXI@Z 000000018001d5a0 f i greenworks_async_workers.obj
 0001:0001c5a0       ??_ECreateArchiveWorker@greenworks@@UEAAPEAXI@Z 000000018001d5a0 f i * CIL library *:* CIL module *
 0001:0001c5e0       ??1ExtractArchiveWorker@greenworks@@UEAA@XZ 000000018001d5e0 f i greenworks_async_workers.obj
 0001:0001c5e0       ??1CreateArchiveWorker@greenworks@@UEAA@XZ 000000018001d5e0 f i greenworks_async_workers.obj
 0001:0001c6d0       ?Execute@CreateArchiveWorker@greenworks@@UEAAXXZ 000000018001d6d0 f   greenworks_async_workers.obj
 0001:0001c770       ??_GExtractArchiveWorker@greenworks@@UEAAPEAXI@Z 000000018001d770 f i greenworks_async_workers.obj
 0001:0001c770       ??_EExtractArchiveWorker@greenworks@@UEAAPEAXI@Z 000000018001d770 f i * CIL library *:* CIL module *
 0001:0001c7b0       ?Execute@ExtractArchiveWorker@greenworks@@UEAAXXZ 000000018001d7b0 f   greenworks_async_workers.obj
 0001:0001c860       ??0GetAuthSessionTicketWorker@greenworks@@QEAA@PEAVCallback@Nan@@0@Z 000000018001d860 f   greenworks_async_workers.obj
 0001:0001c8f0       ??_GGetAuthSessionTicketWorker@greenworks@@UEAAPEAXI@Z 000000018001d8f0 f i greenworks_async_workers.obj
 0001:0001c8f0       ??_EGetAuthSessionTicketWorker@greenworks@@UEAAPEAXI@Z 000000018001d8f0 f i * CIL library *:* CIL module *
 0001:0001c930       ??1GetAuthSessionTicketWorker@greenworks@@UEAA@XZ 000000018001d930 f i greenworks_async_workers.obj
 0001:0001c9b0       ?Execute@GetAuthSessionTicketWorker@greenworks@@UEAAXXZ 000000018001d9b0 f   greenworks_async_workers.obj
 0001:0001ca10       ?OnGetAuthSessionCompleted@GetAuthSessionTicketWorker@greenworks@@QEAAXPEAUGetAuthSessionTicketResponse_t@@@Z 000000018001da10 f   greenworks_async_workers.obj
 0001:0001ca80       ?HandleOKCallback@GetAuthSessionTicketWorker@greenworks@@UEAAXXZ 000000018001da80 f   greenworks_async_workers.obj
 0001:0001cd00       ??0RequestEncryptedAppTicketWorker@greenworks@@QEAA@V?$basic_string@DU?$char_traits@D@std@@V?$allocator@D@2@@std@@PEAVCallback@Nan@@1@Z 000000018001dd00 f   greenworks_async_workers.obj
 0001:0001cdd0       ??_GRequestEncryptedAppTicketWorker@greenworks@@UEAAPEAXI@Z 000000018001ddd0 f i greenworks_async_workers.obj
 0001:0001cdd0       ??_ERequestEncryptedAppTicketWorker@greenworks@@UEAAPEAXI@Z 000000018001ddd0 f i * CIL library *:* CIL module *
 0001:0001ce10       ??1RequestEncryptedAppTicketWorker@greenworks@@UEAA@XZ 000000018001de10 f i greenworks_async_workers.obj
 0001:0001ced0       ?Execute@RequestEncryptedAppTicketWorker@greenworks@@UEAAXXZ 000000018001ded0 f   greenworks_async_workers.obj
 0001:0001cf90       ?OnRequestEncryptedAppTicketCompleted@RequestEncryptedAppTicketWorker@greenworks@@QEAAXPEAUEncryptedAppTicketResponse_t@@_N@Z 000000018001df90 f   greenworks_async_workers.obj
 0001:0001d040       ?HandleOKCallback@RequestEncryptedAppTicketWorker@greenworks@@UEAAXXZ 000000018001e040 f   greenworks_async_workers.obj
 0001:0001d1c0       ?GetCallbackSizeBytes@?$CCallResult@VRequestEncryptedAppTicketWorker@greenworks@@UEncryptedAppTicketResponse_t@@@@EEAAHXZ 000000018001e1c0 f i greenworks_async_workers.obj
 0001:0001d1c0       ?GetCallbackSizeBytes@?$CCallbackImpl@$03@@MEAAHXZ 000000018001e1c0 f i steam_client.obj
 0001:0001d1d0       ?GetCallbackSizeBytes@?$CCallResult@VGetNumberOfPlayersWorker@greenworks@@UNumberOfCurrentPlayers_t@@@@EEAAHXZ 000000018001e1d0 f i greenworks_async_workers.obj
 0001:0001d1d0       ?GetCallbackSizeBytes@?$CCallbackImpl@$07@@MEAAHXZ 000000018001e1d0 f i greenworks_async_workers.obj
 0001:0001d1e0       ?deallocate@?$_Wrap_alloc@V?$allocator@H@std@@@std@@QEAAXPEAH_K@Z 000000018001e1e0 f i greenworks_async_workers.obj
 0001:0001d250       ?deallocate@?$_Wrap_alloc@V?$allocator@PEAVObserver@SteamClient@greenworks@@@std@@@std@@QEAAXPEAPEAVObserver@SteamClient@greenworks@@_K@Z 000000018001e250 f i steam_client.obj
 0001:0001d250       ?deallocate@?$_Wrap_alloc@V?$allocator@_K@std@@@std@@QEAAXPEA_K_K@Z 000000018001e250 f i greenworks_workshop_workers.obj
 0001:0001d250       ?deallocate@?$_Wrap_alloc@V?$allocator@PEAD@std@@@std@@QEAAXPEAPEAD_K@Z 000000018001e250 f i greenworks_async_workers.obj
 0001:0001d2c0       ?Run@?$CCallResult@VSynchronizeItemsWorker@greenworks@@USteamUGCQueryCompleted_t@@@@EEAAXPEAX_N_K@Z 000000018001e2c0 f i greenworks_workshop_workers.obj
 0001:0001d2c0       ?Run@?$CCallResult@VUnsubscribePublishedFileWorker@greenworks@@URemoteStoragePublishedFileUnsubscribed_t@@@@EEAAXPEAX_N_K@Z 000000018001e2c0 f i greenworks_workshop_workers.obj
 0001:0001d2c0       ?Run@?$CCallResult@VDownloadItemWorker@greenworks@@URemoteStorageDownloadUGCResult_t@@@@EEAAXPEAX_N_K@Z 000000018001e2c0 f i greenworks_workshop_workers.obj
 0001:0001d2c0       ?Run@?$CCallResult@VSynchronizeItemsWorker@greenworks@@URemoteStorageDownloadUGCResult_t@@@@EEAAXPEAX_N_K@Z 000000018001e2c0 f i greenworks_workshop_workers.obj
 0001:0001d2c0       ?Run@?$CCallResult@VQueryUGCWorker@greenworks@@USteamUGCQueryCompleted_t@@@@EEAAXPEAX_N_K@Z 000000018001e2c0 f i greenworks_workshop_workers.obj
 0001:0001d2c0       ?Run@?$CCallResult@VRequestEncryptedAppTicketWorker@greenworks@@UEncryptedAppTicketResponse_t@@@@EEAAXPEAX_N_K@Z 000000018001e2c0 f i greenworks_async_workers.obj
 0001:0001d2c0       ?Run@?$CCallResult@VPublishWorkshopFileWorker@greenworks@@URemoteStoragePublishFileResult_t@@@@EEAAXPEAX_N_K@Z 000000018001e2c0 f i greenworks_workshop_workers.obj
 0001:0001d2c0       ?Run@?$CCallResult@VUpdatePublishedWorkshopFileWorker@greenworks@@URemoteStorageUpdatePublishedFileResult_t@@@@EEAAXPEAX_N_K@Z 000000018001e2c0 f i greenworks_workshop_workers.obj
 0001:0001d2c0       ?Run@?$CCallResult@VGetNumberOfPlayersWorker@greenworks@@UNumberOfCurrentPlayers_t@@@@EEAAXPEAX_N_K@Z 000000018001e2c0 f i greenworks_async_workers.obj
 0001:0001d2c0       ?Run@?$CCallResult@VFileShareWorker@greenworks@@URemoteStorageFileShareResult_t@@@@EEAAXPEAX_N_K@Z 000000018001e2c0 f i greenworks_workshop_workers.obj
 0001:0001d2e0       ?Run@?$CCallResult@VFileShareWorker@greenworks@@URemoteStorageFileShareResult_t@@@@EEAAXPEAX@Z 000000018001e2e0 f i greenworks_workshop_workers.obj
 0001:0001d2e0       ?Run@?$CCallResult@VDownloadItemWorker@greenworks@@URemoteStorageDownloadUGCResult_t@@@@EEAAXPEAX@Z 000000018001e2e0 f i greenworks_workshop_workers.obj
 0001:0001d2e0       ?Run@?$CCallResult@VGetNumberOfPlayersWorker@greenworks@@UNumberOfCurrentPlayers_t@@@@EEAAXPEAX@Z 000000018001e2e0 f i greenworks_async_workers.obj
 0001:0001d2e0       ?Run@?$CCallResult@VSynchronizeItemsWorker@greenworks@@USteamUGCQueryCompleted_t@@@@EEAAXPEAX@Z 000000018001e2e0 f i greenworks_workshop_workers.obj
 0001:0001d2e0       ?Run@?$CCallResult@VRequestEncryptedAppTicketWorker@greenworks@@UEncryptedAppTicketResponse_t@@@@EEAAXPEAX@Z 000000018001e2e0 f i greenworks_async_workers.obj
 0001:0001d2e0       ?Run@?$CCallResult@VSynchronizeItemsWorker@greenworks@@URemoteStorageDownloadUGCResult_t@@@@EEAAXPEAX@Z 000000018001e2e0 f i greenworks_workshop_workers.obj
 0001:0001d2e0       ?Run@?$CCallResult@VQueryUGCWorker@greenworks@@USteamUGCQueryCompleted_t@@@@EEAAXPEAX@Z 000000018001e2e0 f i greenworks_workshop_workers.obj
 0001:0001d2e0       ?Run@?$CCallResult@VUnsubscribePublishedFileWorker@greenworks@@URemoteStoragePublishedFileUnsubscribed_t@@@@EEAAXPEAX@Z 000000018001e2e0 f i greenworks_workshop_workers.obj
 0001:0001d2e0       ?Run@?$CCallResult@VPublishWorkshopFileWorker@greenworks@@URemoteStoragePublishFileResult_t@@@@EEAAXPEAX@Z 000000018001e2e0 f i greenworks_workshop_workers.obj
 0001:0001d2e0       ?Run@?$CCallResult@VUpdatePublishedWorkshopFileWorker@greenworks@@URemoteStorageUpdatePublishedFileResult_t@@@@EEAAXPEAX@Z 000000018001e2e0 f i greenworks_workshop_workers.obj
 0001:0001d300       ??$_Allocate@H@std@@YAPEAH_KPEAH_N@Z 000000018001e300 f i greenworks_async_workers.obj
 0001:0001d380       ??$_Allocate@_K@std@@YAPEA_K_KPEA_K_N@Z 000000018001e380 f i greenworks_workshop_workers.obj
 0001:0001d380       ??$_Allocate@PEAD@std@@YAPEAPEAD_KPEAPEAD_N@Z 000000018001e380 f i greenworks_async_workers.obj
 0001:0001d380       ??$_Allocate@PEAVObserver@SteamClient@greenworks@@@std@@YAPEAPEAVObserver@SteamClient@greenworks@@_KPEAPEAV123@_N@Z 000000018001e380 f i steam_client.obj
 0001:0001d400       ??$_Uninit_copy@PEAV?$basic_string@DU?$char_traits@D@std@@V?$allocator@D@2@@std@@PEAV12@U?$_Wrap_alloc@V?$allocator@V?$basic_string@DU?$char_traits@D@std@@V?$allocator@D@2@@std@@@std@@@2@@std@@YAPEAV?$basic_string@DU?$char_traits@D@std@@V?$allocator@D@2@@0@PEAV10@00AEAU?$_Wrap_alloc@V?$allocator@V?$basic_string@DU?$char_traits@D@std@@V?$allocator@D@2@@std@@@std@@@0@@Z 000000018001e400 f i greenworks_zip.obj
 0001:0001d400       ??$_Uninit_copy@PEBV?$basic_string@DU?$char_traits@D@std@@V?$allocator@D@2@@std@@PEAV12@U?$_Wrap_alloc@V?$allocator@V?$basic_string@DU?$char_traits@D@std@@V?$allocator@D@2@@std@@@std@@@2@@std@@YAPEAV?$basic_string@DU?$char_traits@D@std@@V?$allocator@D@2@@0@PEBV10@0PEAV10@AEAU?$_Wrap_alloc@V?$allocator@V?$basic_string@DU?$char_traits@D@std@@V?$allocator@D@2@@std@@@std@@@0@@Z 000000018001e400 f i greenworks_async_workers.obj
 0001:0001d8d0       ?unzip@greenworks@@YAHPEBD00@Z 000000018001e8d0 f   greenworks_unzip.obj
 0001:0001dab0       ?do_max_length@codecvt_base@std@@MEBAHXZ 000000018001eab0 f i greenworks_utils.obj
 0001:0001dab0       ?do_encoding@codecvt_base@std@@MEBAHXZ 000000018001eab0 f i greenworks_utils.obj
 0001:0001dab0       ?GetCallbackSizeBytes@?$CCallbackImpl@$00@@MEAAHXZ 000000018001eab0 f i steam_client.obj
 0001:0001dab0       DllMain                    000000018001eab0 f i LIBCMT:dll_dllmain_stub.obj
 0001:0001dac0       ?ReadFile@utils@@YA_NPEBDPEAPEADPEAH@Z 000000018001eac0 f   greenworks_utils.obj
 0001:0001dc40       ?uint64ToString@utils@@YA?AV?$basic_string@DU?$char_traits@D@std@@V?$allocator@D@2@@std@@_K@Z 000000018001ec40 f   greenworks_utils.obj
 0001:0001dcc0       ?strToUint64@utils@@YA_KV?$basic_string@DU?$char_traits@D@std@@V?$allocator@D@2@@std@@@Z 000000018001ecc0 f   greenworks_utils.obj
 0001:0001dd60       ??1?$basic_ofstream@DU?$char_traits@D@std@@@std@@UEAA@XZ 000000018001ed60 f i greenworks_utils.obj
 0001:0001dde0       ??0?$basic_ofstream@DU?$char_traits@D@std@@@std@@QEAA@PEBDHH@Z 000000018001ede0 f i greenworks_utils.obj
 0001:0001df50       ??1?$basic_ifstream@DU?$char_traits@D@std@@@std@@UEAA@XZ 000000018001ef50 f i greenworks_utils.obj
 0001:0001dfd0       ??0?$basic_ifstream@DU?$char_traits@D@std@@@std@@QEAA@PEBDHH@Z 000000018001efd0 f i greenworks_utils.obj
 0001:0001e140       ?imbue@?$basic_filebuf@DU?$char_traits@D@std@@@std@@MEAAXAEBVlocale@2@@Z 000000018001f140 f i greenworks_utils.obj
 0001:0001e170       ?sync@?$basic_filebuf@DU?$char_traits@D@std@@@std@@MEAAHXZ 000000018001f170 f i greenworks_utils.obj
 0001:0001e1c0       ?setbuf@?$basic_filebuf@DU?$char_traits@D@std@@@std@@MEAAPEAV?$basic_streambuf@DU?$char_traits@D@std@@@2@PEAD_J@Z 000000018001f1c0 f i greenworks_utils.obj
 0001:0001e220       ?seekpos@?$basic_filebuf@DU?$char_traits@D@std@@@std@@MEAA?AV?$fpos@U_Mbstatet@@@2@V32@H@Z 000000018001f220 f i greenworks_utils.obj
 0001:0001e300       ?seekoff@?$basic_filebuf@DU?$char_traits@D@std@@@std@@MEAA?AV?$fpos@U_Mbstatet@@@2@_JHH@Z 000000018001f300 f i greenworks_utils.obj
 0001:0001e3f0       ?uflow@?$basic_filebuf@DU?$char_traits@D@std@@@std@@MEAAHXZ 000000018001f3f0 f i greenworks_utils.obj
 0001:0001e7e0       ?underflow@?$basic_filebuf@DU?$char_traits@D@std@@@std@@MEAAHXZ 000000018001f7e0 f i greenworks_utils.obj
 0001:0001e850       ?pbackfail@?$basic_filebuf@DU?$char_traits@D@std@@@std@@MEAAHH@Z 000000018001f850 f i greenworks_utils.obj
 0001:0001e930       ?overflow@?$basic_filebuf@DU?$char_traits@D@std@@@std@@MEAAHH@Z 000000018001f930 f i greenworks_utils.obj
 0001:0001ebc0       ?_Unlock@?$basic_filebuf@DU?$char_traits@D@std@@@std@@UEAAXXZ 000000018001fbc0 f i greenworks_utils.obj
 0001:0001ebe0       ?_Lock@?$basic_filebuf@DU?$char_traits@D@std@@@std@@UEAAXXZ 000000018001fbe0 f i greenworks_utils.obj
 0001:0001ec00       ??1?$basic_filebuf@DU?$char_traits@D@std@@@std@@UEAA@XZ 000000018001fc00 f i greenworks_utils.obj
 0001:0001ecb0       ??1?$basic_stringstream@DU?$char_traits@D@std@@V?$allocator@D@2@@std@@UEAA@XZ 000000018001fcb0 f i greenworks_utils.obj
 0001:0001ede0       ??0?$basic_stringstream@DU?$char_traits@D@std@@V?$allocator@D@2@@std@@QEAA@AEBV?$basic_string@DU?$char_traits@D@std@@V?$allocator@D@2@@1@H@Z 000000018001fde0 f i greenworks_utils.obj
 0001:0001eeb0       ?write@?$basic_ostream@DU?$char_traits@D@std@@@std@@QEAAAEAV12@PEBD_J@Z 000000018001feb0 f i greenworks_utils.obj
 0001:0001efe0       ??6?$basic_ostream@DU?$char_traits@D@std@@@std@@QEAAAEAV01@_K@Z 000000018001ffe0 f i greenworks_utils.obj
 0001:0001f180       ?seekg@?$basic_istream@DU?$char_traits@D@std@@@std@@QEAAAEAV12@_JH@Z 0000000180020180 f i greenworks_utils.obj
 0001:0001f280       ?read@?$basic_istream@DU?$char_traits@D@std@@@std@@QEAAAEAV12@PEAD_J@Z 0000000180020280 f i greenworks_utils.obj
 0001:0001f380       ??5?$basic_istream@DU?$char_traits@D@std@@@std@@QEAAAEAV01@AEA_K@Z 0000000180020380 f i greenworks_utils.obj
 0001:0001f4f0       ??_E?$basic_ofstream@DU?$char_traits@D@std@@@std@@UEAAPEAXI@Z 00000001800204f0 f i * CIL library *:* CIL module *
 0001:0001f4f0       ??_G?$basic_ofstream@DU?$char_traits@D@std@@@std@@UEAAPEAXI@Z 00000001800204f0 f i greenworks_utils.obj
 0001:0001f560       ??_G?$basic_ifstream@DU?$char_traits@D@std@@@std@@UEAAPEAXI@Z 0000000180020560 f i greenworks_utils.obj
 0001:0001f560       ??_E?$basic_ifstream@DU?$char_traits@D@std@@@std@@UEAAPEAXI@Z 0000000180020560 f i * CIL library *:* CIL module *
 0001:0001f5d0       ??_G?$basic_filebuf@DU?$char_traits@D@std@@@std@@UEAAPEAXI@Z 00000001800205d0 f i greenworks_utils.obj
 0001:0001f5d0       ??_E?$basic_filebuf@DU?$char_traits@D@std@@@std@@UEAAPEAXI@Z 00000001800205d0 f i * CIL library *:* CIL module *
 0001:0001f610       ??_G?$basic_stringstream@DU?$char_traits@D@std@@V?$allocator@D@2@@std@@UEAAPEAXI@Z 0000000180020610 f i greenworks_utils.obj
 0001:0001f610       ??_E?$basic_stringstream@DU?$char_traits@D@std@@V?$allocator@D@2@@std@@UEAAPEAXI@Z 0000000180020610 f i * CIL library *:* CIL module *
 0001:0001f680       ??_G?$basic_iostream@DU?$char_traits@D@std@@@std@@UEAAPEAXI@Z 0000000180020680 f i greenworks_utils.obj
 0001:0001f680       ??_E?$basic_iostream@DU?$char_traits@D@std@@@std@@UEAAPEAXI@Z 0000000180020680 f i * CIL library *:* CIL module *
 0001:0001f6c0       ??_E?$basic_istream@DU?$char_traits@D@std@@@std@@UEAAPEAXI@Z 00000001800206c0 f i * CIL library *:* CIL module *
 0001:0001f6c0       ??_G?$basic_istream@DU?$char_traits@D@std@@@std@@UEAAPEAXI@Z 00000001800206c0 f i greenworks_utils.obj
 0001:0001f730       ??_D?$basic_iostream@DU?$char_traits@D@std@@@std@@QEAAXXZ 0000000180020730 f i greenworks_utils.obj
 0001:0001f7c0       ?do_length@?$codecvt@DDU_Mbstatet@@@std@@MEBAHAEAU_Mbstatet@@PEBD1_K@Z 00000001800207c0 f i greenworks_utils.obj
 0001:0001f7e0       ?do_unshift@?$codecvt@DDU_Mbstatet@@@std@@MEBAHAEAU_Mbstatet@@PEAD1AEAPEAD@Z 00000001800207e0 f i greenworks_utils.obj
 0001:0001f7f0       ?do_in@?$codecvt@DDU_Mbstatet@@@std@@MEBAHAEAU_Mbstatet@@PEBD1AEAPEBDPEAD3AEAPEAD@Z 00000001800207f0 f i greenworks_utils.obj
 0001:0001f7f0       ?do_out@?$codecvt@DDU_Mbstatet@@@std@@MEBAHAEAU_Mbstatet@@PEBD1AEAPEBDPEAD3AEAPEAD@Z 00000001800207f0 f i greenworks_utils.obj
 0001:0001f810       ?do_always_noconv@?$codecvt@DDU_Mbstatet@@@std@@MEBA_NXZ 0000000180020810 f i greenworks_utils.obj
 0001:0001f810       __acrt_uninitialize_command_line 0000000180020810 f i libucrt:argv_data.obj
 0001:0001f820       ?do_get@?$num_get@DV?$istreambuf_iterator@DU?$char_traits@D@std@@@std@@@std@@MEBA?AV?$istreambuf_iterator@DU?$char_traits@D@std@@@2@V32@0AEAVios_base@2@AEAHAEAPEAX@Z 0000000180020820 f i greenworks_utils.obj
 0001:0001f940       ?do_get@?$num_get@DV?$istreambuf_iterator@DU?$char_traits@D@std@@@std@@@std@@MEBA?AV?$istreambuf_iterator@DU?$char_traits@D@std@@@2@V32@0AEAVios_base@2@AEAHAEAO@Z 0000000180020940 f i greenworks_utils.obj
 0001:0001fa40       ?do_get@?$num_get@DV?$istreambuf_iterator@DU?$char_traits@D@std@@@std@@@std@@MEBA?AV?$istreambuf_iterator@DU?$char_traits@D@std@@@2@V32@0AEAVios_base@2@AEAHAEAN@Z 0000000180020a40 f i greenworks_utils.obj
 0001:0001fb40       ?do_get@?$num_get@DV?$istreambuf_iterator@DU?$char_traits@D@std@@@std@@@std@@MEBA?AV?$istreambuf_iterator@DU?$char_traits@D@std@@@2@V32@0AEAVios_base@2@AEAHAEAM@Z 0000000180020b40 f i greenworks_utils.obj
 0001:0001fc50       ?do_get@?$num_get@DV?$istreambuf_iterator@DU?$char_traits@D@std@@@std@@@std@@MEBA?AV?$istreambuf_iterator@DU?$char_traits@D@std@@@2@V32@0AEAVios_base@2@AEAHAEA_K@Z 0000000180020c50 f i greenworks_utils.obj
 0001:0001fd70       ?do_get@?$num_get@DV?$istreambuf_iterator@DU?$char_traits@D@std@@@std@@@std@@MEBA?AV?$istreambuf_iterator@DU?$char_traits@D@std@@@2@V32@0AEAVios_base@2@AEAHAEA_J@Z 0000000180020d70 f i greenworks_utils.obj
 0001:0001fe90       ?do_get@?$num_get@DV?$istreambuf_iterator@DU?$char_traits@D@std@@@std@@@std@@MEBA?AV?$istreambuf_iterator@DU?$char_traits@D@std@@@2@V32@0AEAVios_base@2@AEAHAEAK@Z 0000000180020e90 f i greenworks_utils.obj
 0001:0001ffb0       ?do_get@?$num_get@DV?$istreambuf_iterator@DU?$char_traits@D@std@@@std@@@std@@MEBA?AV?$istreambuf_iterator@DU?$char_traits@D@std@@@2@V32@0AEAVios_base@2@AEAHAEAJ@Z 0000000180020fb0 f i greenworks_utils.obj
 0001:000200d0       ?do_get@?$num_get@DV?$istreambuf_iterator@DU?$char_traits@D@std@@@std@@@std@@MEBA?AV?$istreambuf_iterator@DU?$char_traits@D@std@@@2@V32@0AEAVios_base@2@AEAHAEAI@Z 00000001800210d0 f i greenworks_utils.obj
 0001:00020210       ?do_get@?$num_get@DV?$istreambuf_iterator@DU?$char_traits@D@std@@@std@@@std@@MEBA?AV?$istreambuf_iterator@DU?$char_traits@D@std@@@2@V32@0AEAVios_base@2@AEAHAEAG@Z 0000000180021210 f i greenworks_utils.obj
 0001:00020350       ?do_get@?$num_get@DV?$istreambuf_iterator@DU?$char_traits@D@std@@@std@@@std@@MEBA?AV?$istreambuf_iterator@DU?$char_traits@D@std@@@2@V32@0AEAVios_base@2@AEAHAEA_N@Z 0000000180021350 f i greenworks_utils.obj
 0001:000206e0       ?find_last_of@?$basic_string@DU?$char_traits@D@std@@V?$allocator@D@2@@std@@QEBA_KPEBD_K1@Z 00000001800216e0 f i greenworks_utils.obj
 0001:00020790       ?_Reset_back@?$basic_filebuf@DU?$char_traits@D@std@@@std@@AEAAXXZ 0000000180021790 f i greenworks_utils.obj
 0001:000207c0       ?_Initcvt@?$basic_filebuf@DU?$char_traits@D@std@@@std@@IEAAXPEBV?$codecvt@DDU_Mbstatet@@@2@@Z 00000001800217c0 f i greenworks_utils.obj
 0001:00020860       ?_Endwrite@?$basic_filebuf@DU?$char_traits@D@std@@@std@@IEAA_NXZ 0000000180021860 f i greenworks_utils.obj
 0001:00020ac0       ?_Init@?$basic_filebuf@DU?$char_traits@D@std@@@std@@IEAAXPEAU_iobuf@@W4_Initfl@12@@Z 0000000180021ac0 f i greenworks_utils.obj
 0001:00020bb0       ?close@?$basic_filebuf@DU?$char_traits@D@std@@@std@@QEAAPEAV12@XZ 0000000180021bb0 f i greenworks_utils.obj
 0001:00020c80       ?open@?$basic_filebuf@DU?$char_traits@D@std@@@std@@QEAAPEAV12@PEBDHH@Z 0000000180021c80 f i greenworks_utils.obj
 0001:00020d30       ??0?$basic_iostream@DU?$char_traits@D@std@@@std@@QEAA@PEAV?$basic_streambuf@DU?$char_traits@D@std@@@1@@Z 0000000180021d30 f i greenworks_utils.obj
 0001:00020dc0       ?_Getffld@?$num_get@DV?$istreambuf_iterator@DU?$char_traits@D@std@@@std@@@std@@AEBAHPEADAEAV?$istreambuf_iterator@DU?$char_traits@D@std@@@2@1AEAVios_base@2@PEAH@Z 0000000180021dc0 f i greenworks_utils.obj
 0001:00021bd0       ?_Getifld@?$num_get@DV?$istreambuf_iterator@DU?$char_traits@D@std@@@std@@@std@@AEBAHPEADAEAV?$istreambuf_iterator@DU?$char_traits@D@std@@@2@1HAEBVlocale@2@@Z 0000000180022bd0 f i greenworks_utils.obj
 0001:00022270       ?_Ipfx@?$basic_istream@DU?$char_traits@D@std@@@std@@QEAA_N_N@Z 0000000180023270 f i greenworks_utils.obj
 0001:000223c0       ?_Getffldx@?$num_get@DV?$istreambuf_iterator@DU?$char_traits@D@std@@@std@@@std@@AEBAHPEADAEAV?$istreambuf_iterator@DU?$char_traits@D@std@@@2@1AEAVios_base@2@PEAH@Z 00000001800233c0 f i greenworks_utils.obj
 0001:000232a0       ??E?$istreambuf_iterator@DU?$char_traits@D@std@@@std@@QEAAAEAV01@XZ 00000001800242a0 f i greenworks_utils.obj
 0001:00023310       ??D?$istreambuf_iterator@DU?$char_traits@D@std@@@std@@QEBADXZ 0000000180024310 f i greenworks_utils.obj
 0001:00023380       ?snextc@?$basic_streambuf@DU?$char_traits@D@std@@@std@@QEAAHXZ 0000000180024380 f i greenworks_utils.obj
 0001:00023420       ??$use_facet@V?$codecvt@DDU_Mbstatet@@@std@@@std@@YAAEBV?$codecvt@DDU_Mbstatet@@@0@AEBVlocale@0@@Z 0000000180024420 f i greenworks_utils.obj
 0001:00023550       ??$use_facet@V?$num_get@DV?$istreambuf_iterator@DU?$char_traits@D@std@@@std@@@std@@@std@@YAAEBV?$num_get@DV?$istreambuf_iterator@DU?$char_traits@D@std@@@std@@@0@AEBVlocale@0@@Z 0000000180024550 f i greenworks_utils.obj
 0001:00023680       ??$_Getloctxt@DV?$istreambuf_iterator@DU?$char_traits@D@std@@@std@@@std@@YAHAEAV?$istreambuf_iterator@DU?$char_traits@D@std@@@0@0_KPEBD@Z 0000000180024680 f i greenworks_utils.obj
 0001:00023930       ?_Getcat@?$codecvt@DDU_Mbstatet@@@std@@SA_KPEAPEBVfacet@locale@2@PEBV42@@Z 0000000180024930 f i greenworks_utils.obj
 0001:000239e0       ?_Getcat@?$num_get@DV?$istreambuf_iterator@DU?$char_traits@D@std@@@std@@@std@@SA_KPEAPEBVfacet@locale@2@PEBV42@@Z 00000001800249e0 f i greenworks_utils.obj
 0001:00023a90       ?equal@?$istreambuf_iterator@DU?$char_traits@D@std@@@std@@QEBA_NAEBV12@@Z 0000000180024a90 f i greenworks_utils.obj
 0001:00023b54       ??_E?$basic_istream@DU?$char_traits@D@std@@@std@@$4PPPPPPPM@A@EAAPEAXI@Z 0000000180024b54 f i greenworks_utils.obj
 0001:00023b60       ??_E?$basic_ofstream@DU?$char_traits@D@std@@@std@@$4PPPPPPPM@A@EAAPEAXI@Z 0000000180024b60 f i greenworks_utils.obj
 0001:00023b6c       ??_E?$basic_ifstream@DU?$char_traits@D@std@@@std@@$4PPPPPPPM@A@EAAPEAXI@Z 0000000180024b6c f i greenworks_utils.obj
 0001:00023b78       ??_E?$basic_iostream@DU?$char_traits@D@std@@@std@@$4PPPPPPPM@A@EAAPEAXI@Z 0000000180024b78 f i greenworks_utils.obj
 0001:00023b84       ??_E?$basic_stringstream@DU?$char_traits@D@std@@V?$allocator@D@2@@std@@$4PPPPPPPM@A@EAAPEAXI@Z 0000000180024b84 f i greenworks_utils.obj
 0001:00024da0       ??_EFileShareWorker@greenworks@@UEAAPEAXI@Z 0000000180025da0 f i * CIL library *:* CIL module *
 0001:00024da0       ??_GFileShareWorker@greenworks@@UEAAPEAXI@Z 0000000180025da0 f i greenworks_workshop_workers.obj
 0001:00024de0       ??1FileShareWorker@greenworks@@UEAA@XZ 0000000180025de0 f i greenworks_workshop_workers.obj
 0001:00024ea0       ?Execute@FileShareWorker@greenworks@@UEAAXXZ 0000000180025ea0 f   greenworks_workshop_workers.obj
 0001:00024ff0       ?OnFileShareCompleted@FileShareWorker@greenworks@@QEAAXPEAURemoteStorageFileShareResult_t@@_N@Z 0000000180025ff0 f   greenworks_workshop_workers.obj
 0001:000250d0       ?HandleOKCallback@FileShareWorker@greenworks@@UEAAXXZ 00000001800260d0 f   greenworks_workshop_workers.obj
 0001:00025360       ??_EPublishWorkshopFileWorker@greenworks@@UEAAPEAXI@Z 0000000180026360 f i * CIL library *:* CIL module *
 0001:00025360       ??_GPublishWorkshopFileWorker@greenworks@@UEAAPEAXI@Z 0000000180026360 f i greenworks_workshop_workers.obj
 0001:000253a0       ??1PublishWorkshopFileWorker@greenworks@@UEAA@XZ 00000001800263a0 f i greenworks_workshop_workers.obj
 0001:000254f0       ?Execute@PublishWorkshopFileWorker@greenworks@@UEAAXXZ 00000001800264f0 f   greenworks_workshop_workers.obj
 0001:00025750       ?OnFilePublishCompleted@PublishWorkshopFileWorker@greenworks@@QEAAXPEAURemoteStoragePublishFileResult_t@@_N@Z 0000000180026750 f   greenworks_workshop_workers.obj
 0001:00025830       ?HandleOKCallback@PublishWorkshopFileWorker@greenworks@@UEAAXXZ 0000000180026830 f   greenworks_workshop_workers.obj
 0001:00025ac0       ??_GUpdatePublishedWorkshopFileWorker@greenworks@@UEAAPEAXI@Z 0000000180026ac0 f i greenworks_workshop_workers.obj
 0001:00025ac0       ??_EUpdatePublishedWorkshopFileWorker@greenworks@@UEAAPEAXI@Z 0000000180026ac0 f i * CIL library *:* CIL module *
 0001:00025b00       ??1UpdatePublishedWorkshopFileWorker@greenworks@@UEAA@XZ 0000000180026b00 f i greenworks_workshop_workers.obj
 0001:00025c50       ?Execute@UpdatePublishedWorkshopFileWorker@greenworks@@UEAAXXZ 0000000180026c50 f   greenworks_workshop_workers.obj
 0001:00025ee0       ?OnCommitPublishedFileUpdateCompleted@UpdatePublishedWorkshopFileWorker@greenworks@@QEAAXPEAURemoteStorageUpdatePublishedFileResult_t@@_N@Z 0000000180026ee0 f   greenworks_workshop_workers.obj
 0001:00025fb0       ??0QueryUGCWorker@greenworks@@QEAA@PEAVCallback@Nan@@0W4EUGCMatchingUGCType@@@Z 0000000180026fb0 f   greenworks_workshop_workers.obj
 0001:00026050       ??_GQueryUGCWorker@greenworks@@UEAAPEAXI@Z 0000000180027050 f i greenworks_workshop_workers.obj
 0001:00026050       ??_EQueryUGCWorker@greenworks@@UEAAPEAXI@Z 0000000180027050 f i * CIL library *:* CIL module *
 0001:00026090       ??1QueryUGCWorker@greenworks@@UEAA@XZ 0000000180027090 f i greenworks_workshop_workers.obj
 0001:00026170       ?HandleOKCallback@QueryUGCWorker@greenworks@@UEAAXXZ 0000000180027170 f   greenworks_workshop_workers.obj
 0001:00026390       ?OnUGCQueryCompleted@QueryUGCWorker@greenworks@@QEAAXPEAUSteamUGCQueryCompleted_t@@_N@Z 0000000180027390 f   greenworks_workshop_workers.obj
 0001:00026620       ??_EQueryAllUGCWorker@greenworks@@UEAAPEAXI@Z 0000000180027620 f i * CIL library *:* CIL module *
 0001:00026620       ??_EQueryUserUGCWorker@greenworks@@UEAAPEAXI@Z 0000000180027620 f i * CIL library *:* CIL module *
 0001:00026620       ??_GQueryAllUGCWorker@greenworks@@UEAAPEAXI@Z 0000000180027620 f i greenworks_workshop_workers.obj
 0001:00026620       ??_GQueryUserUGCWorker@greenworks@@UEAAPEAXI@Z 0000000180027620 f i greenworks_workshop_workers.obj
 0001:00026660       ?Execute@QueryAllUGCWorker@greenworks@@UEAAXXZ 0000000180027660 f   greenworks_workshop_workers.obj
 0001:00026750       ?Execute@QueryUserUGCWorker@greenworks@@UEAAXXZ 0000000180027750 f   greenworks_workshop_workers.obj
 0001:00026880       ??_GDownloadItemWorker@greenworks@@UEAAPEAXI@Z 0000000180027880 f i greenworks_workshop_workers.obj
 0001:00026880       ??_EDownloadItemWorker@greenworks@@UEAAPEAXI@Z 0000000180027880 f i * CIL library *:* CIL module *
 0001:000268c0       ??1DownloadItemWorker@greenworks@@UEAA@XZ 00000001800278c0 f i greenworks_workshop_workers.obj
 0001:00026980       ?Execute@DownloadItemWorker@greenworks@@UEAAXXZ 0000000180027980 f   greenworks_workshop_workers.obj
 0001:00026a30       ?OnDownloadCompleted@DownloadItemWorker@greenworks@@QEAAXPEAURemoteStorageDownloadUGCResult_t@@_N@Z 0000000180027a30 f   greenworks_workshop_workers.obj
 0001:00026cf0       ??0SynchronizeItemsWorker@greenworks@@QEAA@PEAVCallback@Nan@@0AEBV?$basic_string@DU?$char_traits@D@std@@V?$allocator@D@2@@std@@@Z 0000000180027cf0 f   greenworks_workshop_workers.obj
 0001:00026e00       ??_GSynchronizeItemsWorker@greenworks@@UEAAPEAXI@Z 0000000180027e00 f i greenworks_workshop_workers.obj
 0001:00026e00       ??_ESynchronizeItemsWorker@greenworks@@UEAAPEAXI@Z 0000000180027e00 f i * CIL library *:* CIL module *
 0001:00026e40       ??1SynchronizeItemsWorker@greenworks@@UEAA@XZ 0000000180027e40 f i greenworks_workshop_workers.obj
 0001:00026fb0       ?Execute@SynchronizeItemsWorker@greenworks@@UEAAXXZ 0000000180027fb0 f   greenworks_workshop_workers.obj
 0001:000270d0       ?OnUGCQueryCompleted@SynchronizeItemsWorker@greenworks@@QEAAXPEAUSteamUGCQueryCompleted_t@@_N@Z 00000001800280d0 f   greenworks_workshop_workers.obj
 0001:000275e0       ?OnDownloadCompleted@SynchronizeItemsWorker@greenworks@@QEAAXPEAURemoteStorageDownloadUGCResult_t@@_N@Z 00000001800285e0 f   greenworks_workshop_workers.obj
 0001:00027960       ?HandleOKCallback@SynchronizeItemsWorker@greenworks@@UEAAXXZ 0000000180028960 f   greenworks_workshop_workers.obj
 0001:00027c40       ??0UnsubscribePublishedFileWorker@greenworks@@QEAA@PEAVCallback@Nan@@0_K@Z 0000000180028c40 f   greenworks_workshop_workers.obj
 0001:00027cd0       ??_EUnsubscribePublishedFileWorker@greenworks@@UEAAPEAXI@Z 0000000180028cd0 f i * CIL library *:* CIL module *
 0001:00027cd0       ??_GUnsubscribePublishedFileWorker@greenworks@@UEAAPEAXI@Z 0000000180028cd0 f i greenworks_workshop_workers.obj
 0001:00027d10       ??1UnsubscribePublishedFileWorker@greenworks@@UEAA@XZ 0000000180028d10 f i greenworks_workshop_workers.obj
 0001:00027da0       ?Execute@UnsubscribePublishedFileWorker@greenworks@@UEAAXXZ 0000000180028da0 f   greenworks_workshop_workers.obj
 0001:00027e50       ?OnUnsubscribeCompleted@UnsubscribePublishedFileWorker@greenworks@@QEAAXPEAURemoteStoragePublishedFileUnsubscribed_t@@_N@Z 0000000180028e50 f   greenworks_workshop_workers.obj
 0001:00027e60       ?GetCallbackSizeBytes@?$CCallResult@VQueryUGCWorker@greenworks@@USteamUGCQueryCompleted_t@@@@EEAAHXZ 0000000180028e60 f i greenworks_workshop_workers.obj
 0001:00027e60       ?GetCallbackSizeBytes@?$CCallResult@VPublishWorkshopFileWorker@greenworks@@URemoteStoragePublishFileResult_t@@@@EEAAHXZ 0000000180028e60 f i greenworks_workshop_workers.obj
 0001:00027e60       ?GetCallbackSizeBytes@?$CCallResult@VSynchronizeItemsWorker@greenworks@@USteamUGCQueryCompleted_t@@@@EEAAHXZ 0000000180028e60 f i greenworks_workshop_workers.obj
 0001:00027e60       ?GetCallbackSizeBytes@?$CCallbackImpl@$0BI@@@MEAAHXZ 0000000180028e60 f i steam_client.obj
 0001:00027e60       ?GetCallbackSizeBytes@?$CCallResult@VUpdatePublishedWorkshopFileWorker@greenworks@@URemoteStorageUpdatePublishedFileResult_t@@@@EEAAHXZ 0000000180028e60 f i greenworks_workshop_workers.obj
 0001:00027e70       ?GetCallbackSizeBytes@?$CCallResult@VSynchronizeItemsWorker@greenworks@@URemoteStorageDownloadUGCResult_t@@@@EEAAHXZ 0000000180028e70 f i greenworks_workshop_workers.obj
 0001:00027e70       ?GetCallbackSizeBytes@?$CCallResult@VDownloadItemWorker@greenworks@@URemoteStorageDownloadUGCResult_t@@@@EEAAHXZ 0000000180028e70 f i greenworks_workshop_workers.obj
 0001:00027e80       ?GetCallbackSizeBytes@?$CCallResult@VFileShareWorker@greenworks@@URemoteStorageFileShareResult_t@@@@EEAAHXZ 0000000180028e80 f i greenworks_workshop_workers.obj
 0001:00027e90       ?_Reserve@?$vector@PEAVObserver@SteamClient@greenworks@@V?$allocator@PEAVObserver@SteamClient@greenworks@@@std@@@std@@IEAAX_K@Z 0000000180028e90 f i steam_client.obj
 0001:00027e90       ?_Reserve@?$vector@_KV?$allocator@_K@std@@@std@@IEAAX_K@Z 0000000180028e90 f i greenworks_workshop_workers.obj
 0001:00027f20       ?_Reserve@?$vector@USteamUGCDetails_t@@V?$allocator@USteamUGCDetails_t@@@std@@@std@@IEAAX_K@Z 0000000180028f20 f i greenworks_workshop_workers.obj
 0001:00027ff0       ?_Reallocate@?$vector@PEAVObserver@SteamClient@greenworks@@V?$allocator@PEAVObserver@SteamClient@greenworks@@@std@@@std@@IEAAX_K@Z 0000000180028ff0 f i steam_client.obj
 0001:00027ff0       ?_Reallocate@?$vector@_KV?$allocator@_K@std@@@std@@IEAAX_K@Z 0000000180028ff0 f i greenworks_workshop_workers.obj
 0001:00028080       ?deallocate@?$_Wrap_alloc@V?$allocator@USteamUGCDetails_t@@@std@@@std@@QEAAXPEAUSteamUGCDetails_t@@_K@Z 0000000180029080 f i greenworks_workshop_workers.obj
 0001:000280f0       ?_Reallocate@?$vector@USteamUGCDetails_t@@V?$allocator@USteamUGCDetails_t@@@std@@@std@@IEAAX_K@Z 00000001800290f0 f i greenworks_workshop_workers.obj
 0001:000281b0       ?Set@?$CCallResult@VSynchronizeItemsWorker@greenworks@@URemoteStorageDownloadUGCResult_t@@@@QEAAX_KPEAVSynchronizeItemsWorker@greenworks@@P823@EAAXPEAURemoteStorageDownloadUGCResult_t@@_N@Z@Z 00000001800291b0 f i greenworks_workshop_workers.obj
 0001:00028210       ??$construct@USteamUGCDetails_t@@AEAU1@@?$_Wrap_alloc@V?$allocator@USteamUGCDetails_t@@@std@@@std@@QEAAXPEAUSteamUGCDetails_t@@AEAU2@@Z 0000000180029210 f i greenworks_workshop_workers.obj
 0001:000282a0       ??$_Allocate@USteamUGCDetails_t@@@std@@YAPEAUSteamUGCDetails_t@@_KPEAU1@_N@Z 00000001800292a0 f i greenworks_workshop_workers.obj
 0001:00028320       ??$_Uninit_move@PEAUSteamUGCDetails_t@@PEAU1@V?$allocator@USteamUGCDetails_t@@@std@@U1@@std@@YAPEAUSteamUGCDetails_t@@PEAU1@00AEAU?$_Wrap_alloc@V?$allocator@USteamUGCDetails_t@@@std@@@0@0U_Nonscalar_ptr_iterator_tag@0@@Z 0000000180029320 f i greenworks_workshop_workers.obj
 0001:000283d0       fprintf                    00000001800293d0 f i greenworks_zip.obj
 0001:00028ea0       ?zip@greenworks@@YAHPEBD0H0@Z 0000000180029ea0 f   greenworks_zip.obj
 0001:00029650       ?_Swap_bx@?$basic_string@DU?$char_traits@D@std@@V?$allocator@D@2@@std@@QEAAXAEAV12@@Z 000000018002a650 f i greenworks_zip.obj
 0001:00029750       ??$_Insert@V?$_Vector_iterator@V?$_Vector_val@U?$_Simple_types@V?$basic_string@DU?$char_traits@D@std@@V?$allocator@D@2@@std@@@std@@@std@@@std@@@?$vector@V?$basic_string@DU?$char_traits@D@std@@V?$allocator@D@2@@std@@V?$allocator@V?$basic_string@DU?$char_traits@D@std@@V?$allocator@D@2@@std@@@2@@std@@QEAAXV?$_Vector_const_iterator@V?$_Vector_val@U?$_Simple_types@V?$basic_string@DU?$char_traits@D@std@@V?$allocator@D@2@@std@@@std@@@std@@@1@V?$_Vector_iterator@V?$_Vector_val@U?$_Simple_types@V?$basic_string@DU?$char_traits@D@std@@V?$allocator@D@2@@std@@@std@@@std@@@1@1Uforward_iterator_tag@1@@Z 000000018002a750 f i greenworks_zip.obj
 0001:000298d0       ??$rotate@PEAV?$basic_string@DU?$char_traits@D@std@@V?$allocator@D@2@@std@@@std@@YAPEAV?$basic_string@DU?$char_traits@D@std@@V?$allocator@D@2@@0@PEAV10@00@Z 000000018002a8d0 f i greenworks_zip.obj
 0001:00029950       ??$reverse@PEAV?$basic_string@DU?$char_traits@D@std@@V?$allocator@D@2@@std@@@std@@YAXPEAV?$basic_string@DU?$char_traits@D@std@@V?$allocator@D@2@@0@0@Z 000000018002a950 f i greenworks_zip.obj
 0001:000299d0       ??0AsyncWorker@Nan@@QEAA@PEAVCallback@1@@Z 000000018002a9d0 f i steam_async_worker.obj
 0001:00029a90       ??1AsyncWorker@Nan@@UEAA@XZ 000000018002aa90 f i steam_async_worker.obj
 0001:00029b40       ?HandleErrorCallback@AsyncWorker@Nan@@MEAAXXZ 000000018002ab40 f i steam_async_worker.obj
 0001:00029cb0       ??_GAsyncWorker@Nan@@UEAAPEAXI@Z 000000018002acb0 f i steam_async_worker.obj
 0001:00029cb0       ??_EAsyncWorker@Nan@@UEAAPEAXI@Z 000000018002acb0 f i * CIL library *:* CIL module *
 0001:00029cf0       ??_GSteamAsyncWorker@greenworks@@UEAAPEAXI@Z 000000018002acf0 f i steam_async_worker.obj
 0001:00029cf0       ??_ESteamAsyncWorker@greenworks@@UEAAPEAXI@Z 000000018002acf0 f i * CIL library *:* CIL module *
 0001:00029d70       ?HandleErrorCallback@SteamAsyncWorker@greenworks@@UEAAXXZ 000000018002ad70 f   steam_async_worker.obj
 0001:00029e30       ??0SteamClient@greenworks@@AEAA@XZ 000000018002ae30 f   steam_client.obj
 0001:0002a0d0       ?OnGameOverlayActivated@SteamClient@greenworks@@AEAAXPEAUGameOverlayActivated_t@@@Z 000000018002b0d0 f   steam_client.obj
 0001:0002a250       ?OnSteamServersConnected@SteamClient@greenworks@@AEAAXPEAUSteamServersConnected_t@@@Z 000000018002b250 f   steam_client.obj
 0001:0002a390       ?OnSteamServersDisconnected@SteamClient@greenworks@@AEAAXPEAUSteamServersDisconnected_t@@@Z 000000018002b390 f   steam_client.obj
 0001:0002a4d0       ?OnSteamServerConnectFailure@SteamClient@greenworks@@AEAAXPEAUSteamServerConnectFailure_t@@@Z 000000018002b4d0 f   steam_client.obj
 0001:0002a6c0       ?OnSteamShutdown@SteamClient@greenworks@@AEAAXPEAUSteamShutdown_t@@@Z 000000018002b6c0 f   steam_client.obj
 0001:0002a800       ?OnPeronaStateChange@SteamClient@greenworks@@AEAAXPEAUPersonaStateChange_t@@@Z 000000018002b800 f   steam_client.obj
 0001:0002aa40       ?OnAvatarImageLoaded@SteamClient@greenworks@@AEAAXPEAUAvatarImageLoaded_t@@@Z 000000018002ba40 f   steam_client.obj
 0001:0002aac0       ?OnGameConnectedFriendChatMessage@SteamClient@greenworks@@AEAAXPEAUGameConnectedFriendChatMsg_t@@@Z 000000018002bac0 f   steam_client.obj
 0001:0002ab30       ?OnDLCInstalled@SteamClient@greenworks@@AEAAXPEAUDlcInstalled_t@@@Z 000000018002bb30 f   steam_client.obj
 0001:0002ad20       ?OnMicroTxnAuthorizationResponse@SteamClient@greenworks@@AEAAXPEAUMicroTxnAuthorizationResponse_t@@@Z 000000018002bd20 f   steam_client.obj
 0001:0002ad90       ?StartSteamLoop@SteamClient@greenworks@@SAXXZ 000000018002bd90 f   steam_client.obj
 0001:0002ae40       ?AddObserver@SteamClient@greenworks@@QEAAXPEAVObserver@12@@Z 000000018002be40 f   steam_client.obj
 0001:0002af00       ?GetCallbackSizeBytes@?$CCallbackImpl@$0M@@@MEAAHXZ 000000018002bf00 f i steam_client.obj
 0001:0002af10       ?GetCallbackSizeBytes@?$CCallbackImpl@$0BE@@@MEAAHXZ 000000018002bf10 f i steam_client.obj
 0001:0002af20       ?Run@?$CCallbackImpl@$00@@MEAAXPEAX_N_K@Z 000000018002bf20 f i steam_client.obj
 0001:0002af30       ?OnGameOverlayActivated@SteamEvent@greenworks@@UEAAX_N@Z 000000018002bf30 f   steam_event.obj
 0001:0002b020       ?OnSteamServersConnected@SteamEvent@greenworks@@UEAAXXZ 000000018002c020 f   steam_event.obj
 0001:0002b0f0       ?OnSteamServersDisconnected@SteamEvent@greenworks@@UEAAXXZ 000000018002c0f0 f   steam_event.obj
 0001:0002b1c0       ?OnSteamServerConnectFailure@SteamEvent@greenworks@@UEAAXH@Z 000000018002c1c0 f   steam_event.obj
 0001:0002b330       ?OnSteamShutdown@SteamEvent@greenworks@@UEAAXXZ 000000018002c330 f   steam_event.obj
 0001:0002b400       ?OnPersonaStateChange@SteamEvent@greenworks@@UEAAX_KH@Z 000000018002c400 f   steam_event.obj
 0001:0002b5b0       ?OnAvatarImageLoaded@SteamEvent@greenworks@@UEAAX_KHHH@Z 000000018002c5b0 f   steam_event.obj
 0001:0002b830       ?OnGameConnectedFriendChatMessage@SteamEvent@greenworks@@UEAAX_KH@Z 000000018002c830 f   steam_event.obj
 0001:0002b9e0       ?OnDLCInstalled@SteamEvent@greenworks@@UEAAXI@Z 000000018002c9e0 f   steam_event.obj
 0001:0002bb50       ?OnMicroTxnAuthorizationResponse@SteamEvent@greenworks@@UEAAXI_K_N@Z 000000018002cb50 f   steam_event.obj
 0001:0002be30       ?SetPrototypeMethod@Nan@@YAXV?$Local@VFunctionTemplate@v8@@@v8@@PEBDP6AXAEBV?$FunctionCallbackInfo@VValue@v8@@@1@@Z@Z 000000018002ce30 f i steam_id.obj
 0001:0002bf20       ??1ObjectWrap@Nan@@UEAA@XZ 000000018002cf20 f i steam_id.obj
 0001:0002bf90       ?Ref@ObjectWrap@Nan@@MEAAXXZ 000000018002cf90 f i steam_id.obj
 0001:0002bfd0       ?Unref@ObjectWrap@Nan@@MEAAXXZ 000000018002cfd0 f i steam_id.obj
 0001:0002c080       ?WeakCallback@ObjectWrap@Nan@@CAXAEBV?$WeakCallbackInfo@VObjectWrap@Nan@@@v8@@@Z 000000018002d080 f i steam_id.obj
 0001:0002c110       ??_GObjectWrap@Nan@@UEAAPEAXI@Z 000000018002d110 f i steam_id.obj
 0001:0002c110       ??_EObjectWrap@Nan@@UEAAPEAXI@Z 000000018002d110 f i * CIL library *:* CIL module *
 0001:0002c150       ??_GSteamID@greenworks@@EEAAPEAXI@Z 000000018002d150 f i steam_id.obj
 0001:0002c150       ??_ESteamID@greenworks@@EEAAPEAXI@Z 000000018002d150 f i * CIL library *:* CIL module *
 0001:0002c190       ?Create@SteamID@greenworks@@SA?AV?$Local@VObject@v8@@@v8@@VCSteamID@@@Z 000000018002d190 f   steam_id.obj
 0001:0002c560       ?IsAnonymous@SteamID@greenworks@@SAXAEBV?$FunctionCallbackInfo@VValue@v8@@@Nan@@@Z 000000018002d560 f   steam_id.obj
 0001:0002c5c0       ?IsAnonymousGameServer@SteamID@greenworks@@SAXAEBV?$FunctionCallbackInfo@VValue@v8@@@Nan@@@Z 000000018002d5c0 f   steam_id.obj
 0001:0002c610       ?IsAnonymousGameServerLogin@SteamID@greenworks@@SAXAEBV?$FunctionCallbackInfo@VValue@v8@@@Nan@@@Z 000000018002d610 f   steam_id.obj
 0001:0002c6b0       ?IsAnonymousUser@SteamID@greenworks@@SAXAEBV?$FunctionCallbackInfo@VValue@v8@@@Nan@@@Z 000000018002d6b0 f   steam_id.obj
 0001:0002c730       ?IsChatAccount@SteamID@greenworks@@SAXAEBV?$FunctionCallbackInfo@VValue@v8@@@Nan@@@Z 000000018002d730 f   steam_id.obj
 0001:0002c7b0       ?IsClanAccount@SteamID@greenworks@@SAXAEBV?$FunctionCallbackInfo@VValue@v8@@@Nan@@@Z 000000018002d7b0 f   steam_id.obj
 0001:0002c830       ?IsConsoleUserAccount@SteamID@greenworks@@SAXAEBV?$FunctionCallbackInfo@VValue@v8@@@Nan@@@Z 000000018002d830 f   steam_id.obj
 0001:0002c8b0       ?IsContentServerAccount@SteamID@greenworks@@SAXAEBV?$FunctionCallbackInfo@VValue@v8@@@Nan@@@Z 000000018002d8b0 f   steam_id.obj
 0001:0002c930       ?IsGameServerAccount@SteamID@greenworks@@SAXAEBV?$FunctionCallbackInfo@VValue@v8@@@Nan@@@Z 000000018002d930 f   steam_id.obj
 0001:0002c9b0       ?IsIndividualAccount@SteamID@greenworks@@SAXAEBV?$FunctionCallbackInfo@VValue@v8@@@Nan@@@Z 000000018002d9b0 f   steam_id.obj
 0001:0002ca30       ?IsPersistentGameServerAccount@SteamID@greenworks@@SAXAEBV?$FunctionCallbackInfo@VValue@v8@@@Nan@@@Z 000000018002da30 f   steam_id.obj
 0001:0002cab0       ?IsLobby@SteamID@greenworks@@SAXAEBV?$FunctionCallbackInfo@VValue@v8@@@Nan@@@Z 000000018002dab0 f   steam_id.obj
 0001:0002cb40       ?GetAccountID@SteamID@greenworks@@SAXAEBV?$FunctionCallbackInfo@VValue@v8@@@Nan@@@Z 000000018002db40 f   steam_id.obj
 0001:0002cc10       ?GetRawSteamID@SteamID@greenworks@@SAXAEBV?$FunctionCallbackInfo@VValue@v8@@@Nan@@@Z 000000018002dc10 f   steam_id.obj
 0001:0002cdc0       ?GetAccountType@SteamID@greenworks@@SAXAEBV?$FunctionCallbackInfo@VValue@v8@@@Nan@@@Z 000000018002ddc0 f   steam_id.obj
 0001:0002ce90       ?IsValid@SteamID@greenworks@@SAXAEBV?$FunctionCallbackInfo@VValue@v8@@@Nan@@@Z 000000018002de90 f   steam_id.obj
 0001:0002cf60       ?GetStaticAccountKey@SteamID@greenworks@@SAXAEBV?$FunctionCallbackInfo@VValue@v8@@@Nan@@@Z 000000018002df60 f   steam_id.obj
 0001:0002d130       ?GetPersonaName@SteamID@greenworks@@SAXAEBV?$FunctionCallbackInfo@VValue@v8@@@Nan@@@Z 000000018002e130 f   steam_id.obj
 0001:0002d1e0       ?GetNickname@SteamID@greenworks@@SAXAEBV?$FunctionCallbackInfo@VValue@v8@@@Nan@@@Z 000000018002e1e0 f   steam_id.obj
 0001:0002d2d0       ?GetRelationship@SteamID@greenworks@@SAXAEBV?$FunctionCallbackInfo@VValue@v8@@@Nan@@@Z 000000018002e2d0 f   steam_id.obj
 0001:0002d3c0       ?GetSteamLevel@SteamID@greenworks@@SAXAEBV?$FunctionCallbackInfo@VValue@v8@@@Nan@@@Z 000000018002e3c0 f   steam_id.obj
 0001:0002d4b0       ??$Unwrap@VSteamID@greenworks@@@ObjectWrap@Nan@@SAPEAVSteamID@greenworks@@V?$Local@VObject@v8@@@v8@@@Z 000000018002e4b0 f i steam_id.obj
 0001:0002eb20       unzGoToFirstFile           000000018002fb20 f   minizip:unzip.obj
 0001:0002eb90       unzGoToNextFile            000000018002fb90 f   minizip:unzip.obj
 0001:0002ee90       unzOpenCurrentFile3        000000018002fe90 f   minizip:unzip.obj
 0001:0002f0b0       unzReadCurrentFile         00000001800300b0 f   minizip:unzip.obj
 0001:0002f3b0       unzCloseCurrentFile        00000001800303b0 f   minizip:unzip.obj
 0001:0002f4b0       win32_open64_file_funcA    00000001800304b0 f   minizip:iowin32.obj
 0001:0002f580       win32_read_file_func       0000000180030580 f   minizip:iowin32.obj
 0001:0002f5f0       win32_write_file_func      00000001800305f0 f   minizip:iowin32.obj
 0001:0002f660       win32_tell64_file_func     0000000180030660 f   minizip:iowin32.obj
 0001:0002f6d0       win32_seek64_file_func     00000001800306d0 f   minizip:iowin32.obj
 0001:0002f760       win32_close_file_func      0000000180030760 f   minizip:iowin32.obj
 0001:0002f7a0       win32_error_file_func      00000001800307a0 f   minizip:iowin32.obj
 0001:000303c0       LoadCentralDirectoryRecord 00000001800313c0 f   minizip:zip.obj
 0001:000307d0       zipOpen3                   00000001800317d0 f   minizip:zip.obj
 0001:00030aa0       Write_LocalFileHeader      0000000180031aa0 f   minizip:zip.obj
 0001:00030d00       zipOpenNewFileInZip4_64    0000000180031d00 f   minizip:zip.obj
 0001:00031350       zipWriteInFileInZip        0000000180032350 f   minizip:zip.obj
 0001:000314c0       zipCloseFileInZipRaw64     00000001800324c0 f   minizip:zip.obj
 0001:00031a50       Write_Zip64EndOfCentralDirectoryLocator 0000000180032a50 f   minizip:zip.obj
 0001:00031ad0       Write_Zip64EndOfCentralDirectoryRecord 0000000180032ad0 f   minizip:zip.obj
 0001:00031c00       Write_EndOfCentralDirectoryRecord 0000000180032c00 f   minizip:zip.obj
 0001:00031d20       Write_GlobalComment        0000000180032d20 f   minizip:zip.obj
 0001:00031db0       zipClose                   0000000180032db0 f   minizip:zip.obj
 0001:00032070       MOZ_Z_crc32                0000000180033070 f   zlib:crc32.obj
 0001:00032380       MOZ_Z_inflateReset         0000000180033380 f   zlib:inflate.obj
 0001:00032400       MOZ_Z_inflateInit2_        0000000180033400 f   zlib:inflate.obj
 0001:000325f0       MOZ_Z_inflate              00000001800335f0 f   zlib:inflate.obj
 0001:00033d10       MOZ_Z_deflateInit2_        0000000180034d10 f   zlib:deflate.obj
 0001:00033f50       MOZ_Z_deflateReset         0000000180034f50 f   zlib:deflate.obj
 0001:00034130       MOZ_Z_deflate              0000000180035130 f   zlib:deflate.obj
 0001:00034a50       MOZ_Z_deflateEnd           0000000180035a50 f   zlib:deflate.obj
 0001:00036610       MOZ_Z_zcalloc              0000000180037610 f   zlib:zutil.obj
 0001:00036620       MOZ_Z_zcfree               0000000180037620 f   zlib:zutil.obj
 0001:00036630       MOZ_Z_adler32              0000000180037630 f   zlib:adler32.obj
 0001:00036910       MOZ_Z_inflate_fast         0000000180037910 f   zlib:inffast.obj
 0001:00036df0       MOZ_Z_inflate_table        0000000180037df0 f   zlib:inftrees.obj
 0001:00037340       MOZ_Z__tr_init             0000000180038340 f   zlib:trees.obj
 0001:00038420       MOZ_Z__tr_stored_block     0000000180039420 f   zlib:trees.obj
 0001:000384c0       MOZ_Z__tr_flush_block      00000001800394c0 f   zlib:trees.obj
 0001:00038d08       ??0bad_alloc@std@@QEAA@AEBV01@@Z 0000000180039d08 f i libcpmt:xthrow.obj
 0001:00038d48       ??0bad_alloc@std@@QEAA@XZ  0000000180039d48 f i libcpmt:xthrow.obj
 0001:00038d68       ??0bad_function_call@std@@QEAA@AEBV01@@Z 0000000180039d68 f i libcpmt:xthrow.obj
 0001:00038da8       ??0bad_function_call@std@@QEAA@XZ 0000000180039da8 f i libcpmt:xthrow.obj
 0001:00038dc0       ??0exception@std@@QEAA@AEBV01@@Z 0000000180039dc0 f i libcpmt:xthrow.obj
 0001:00038df8       ??0length_error@std@@QEAA@AEBV01@@Z 0000000180039df8 f i libcpmt:xthrow.obj
 0001:00038e38       ??0length_error@std@@QEAA@PEBD@Z 0000000180039e38 f i libcpmt:xthrow.obj
 0001:00038e84       ??0logic_error@std@@QEAA@AEBV01@@Z 0000000180039e84 f i libcpmt:xthrow.obj
 0001:00038ec4       ??0out_of_range@std@@QEAA@AEBV01@@Z 0000000180039ec4 f i libcpmt:xthrow.obj
 0001:00038f04       ??0out_of_range@std@@QEAA@PEBD@Z 0000000180039f04 f i libcpmt:xthrow.obj
 0001:00038f50       ??_Glogic_error@std@@UEAAPEAXI@Z 0000000180039f50 f i libcpmt:xthrow.obj
 0001:00038f50       ??_Gexception@std@@UEAAPEAXI@Z 0000000180039f50 f i libcpmt:xthrow.obj
 0001:00038f50       ??_Eout_of_range@std@@UEAAPEAXI@Z 0000000180039f50 f i libcpmt:xthrow.obj
 0001:00038f50       ??_Elength_error@std@@UEAAPEAXI@Z 0000000180039f50 f i libcpmt:xthrow.obj
 0001:00038f50       ??_Gout_of_range@std@@UEAAPEAXI@Z 0000000180039f50 f i libcpmt:xthrow.obj
 0001:00038f50       ??_Gbad_alloc@std@@UEAAPEAXI@Z 0000000180039f50 f i libcpmt:xthrow.obj
 0001:00038f50       ??_Ebad_exception@std@@UEAAPEAXI@Z 0000000180039f50 f i libvcruntime:frame.obj
 0001:00038f50       ??_Glength_error@std@@UEAAPEAXI@Z 0000000180039f50 f i libcpmt:xthrow.obj
 0001:00038f50       ??_Eexception@std@@UEAAPEAXI@Z 0000000180039f50 f i libcpmt:xthrow.obj
 0001:00038f50       ??_Elogic_error@std@@UEAAPEAXI@Z 0000000180039f50 f i libcpmt:xthrow.obj
 0001:00038f50       ??_Ebad_alloc@std@@UEAAPEAXI@Z 0000000180039f50 f i libcpmt:xthrow.obj
 0001:00038f50       ??_Ebad_array_new_length@std@@UEAAPEAXI@Z 0000000180039f50 f i LIBCMT:throw_bad_alloc.obj
 0001:00038f50       ??_Gbad_function_call@std@@UEAAPEAXI@Z 0000000180039f50 f i libcpmt:xthrow.obj
 0001:00038f50       ??_Gbad_array_new_length@std@@UEAAPEAXI@Z 0000000180039f50 f i LIBCMT:throw_bad_alloc.obj
 0001:00038f50       ??_Ebad_function_call@std@@UEAAPEAXI@Z 0000000180039f50 f i libcpmt:xthrow.obj
 0001:00038f50       ??_Gbad_exception@std@@UEAAPEAXI@Z 0000000180039f50 f i libvcruntime:frame.obj
 0001:00038f94       ?_Xbad_function_call@std@@YAXXZ 0000000180039f94 f   libcpmt:xthrow.obj
 0001:00038fb4       ?_Xlength_error@std@@YAXPEBD@Z 0000000180039fb4 f   libcpmt:xthrow.obj
 0001:00038fd8       ?_Xout_of_range@std@@YAXPEBD@Z 0000000180039fd8 f   libcpmt:xthrow.obj
 0001:00038ffc       ?what@bad_function_call@std@@UEBAPEBDXZ 0000000180039ffc f i libcpmt:xthrow.obj
 0001:00039004       ?what@exception@std@@UEBAPEBDXZ 000000018003a004 f i libcpmt:xthrow.obj
 0001:00039018       ??0_Init_locks@std@@QEAA@XZ 000000018003a018 f   libcpmt:xlock.obj
 0001:00039064       ??0_Lockit@std@@QEAA@H@Z   000000018003a064 f   libcpmt:xlock.obj
 0001:000390a0       ??1_Init_locks@std@@QEAA@XZ 000000018003a0a0 f   libcpmt:xlock.obj
 0001:000390e4       ??1_Lockit@std@@QEAA@XZ    000000018003a0e4 f   libcpmt:xlock.obj
 0001:00039118       ??4?$_Yarn@D@std@@QEAAAEAV01@PEBD@Z 000000018003a118 f i libcpmt:locale0.obj
 0001:00039190       ??_G_Fac_node@std@@QEAAPEAXI@Z 000000018003a190 f i libcpmt:locale0.obj
 0001:0003921c       ??_G_Locimp@locale@std@@MEAAPEAXI@Z 000000018003a21c f i libcpmt:locale0.obj
 0001:0003921c       ??_E_Locimp@locale@std@@MEAAPEAXI@Z 000000018003a21c f i libcpmt:locale0.obj
 0001:00039288       ?_Facet_Register@std@@YAXPEAV_Facet_base@1@@Z 000000018003a288 f   libcpmt:locale0.obj
 0001:000392c0       ?_Getgloballocale@locale@std@@CAPEAV_Locimp@12@XZ 000000018003a2c0 f   libcpmt:locale0.obj
 0001:000392c8       ?_Init@locale@std@@CAPEAV_Locimp@12@_N@Z 000000018003a2c8 f   libcpmt:locale0.obj
 0001:00039384       ?_Locimp_dtor@_Locimp@locale@std@@CAXPEAV123@@Z 000000018003a384 f   libcpmt:locale0.obj
 0001:0003942c       ?_Locinfo_ctor@_Locinfo@std@@SAXPEAV12@PEBD@Z 000000018003a42c f   libcpmt:locale0.obj
 0001:00039498       ?_Locinfo_dtor@_Locinfo@std@@SAXPEAV12@@Z 000000018003a498 f   libcpmt:locale0.obj
 0001:000394bc       ?_New_Locimp@_Locimp@locale@std@@CAPEAV123@_N@Z 000000018003a4bc f   libcpmt:locale0.obj
 0001:0003952c       ?_Setgloballocale@locale@std@@CAXPEAX@Z 000000018003a52c f   libcpmt:locale0.obj
 0001:00039560       _Deletegloballocale        000000018003a560 f   libcpmt:locale0.obj
 0001:000395e8       ?_Ios_base_dtor@ios_base@std@@CAXPEAV12@@Z 000000018003a5e8 f   libcpmt:ios.obj
 0001:0003962c       ?_Tidy@ios_base@std@@AEAAXXZ 000000018003a62c f i libcpmt:ios.obj
 0001:000396bc       ?_Syserror_map@std@@YAPEBDH@Z 000000018003a6bc f   libcpmt:syserror.obj
 0001:000396e4       _Getctype                  000000018003a6e4 f   libcpmt:_tolower.obj
 0001:000397a4       _Tolower                   000000018003a7a4 f   libcpmt:_tolower.obj
 0001:000398cc       _Getcvt                    000000018003a8cc f   libcpmt:xwctomb.obj
 0001:0003995c       _Toupper                   000000018003a95c f   libcpmt:_toupper.obj
 0001:00039a94       _Stollx                    000000018003aa94 f   libcpmt:xstoll.obj
 0001:00039b88       _Stolx                     000000018003ab88 f   libcpmt:xstol.obj
 0001:00039c68       _Stoulx                    000000018003ac68 f   libcpmt:xstoul.obj
 0001:00039e38       _Stofx                     000000018003ae38 f   libcpmt:xstof.obj
 0001:0003a07c       ??$_Xfiopen@D@std@@YAPEAU_iobuf@@PEBDHH@Z 000000018003b07c f i libcpmt:fiopen.obj
 0001:0003a178       ?_Fiopen@std@@YAPEAU_iobuf@@PEBDHH@Z 000000018003b178 f   libcpmt:fiopen.obj
 0001:0003a180       _Stoullx                   000000018003b180 f   libcpmt:xstoull.obj
 0001:0003a344       _Stodx                     000000018003b344 f   libcpmt:xstod.obj
 0001:0003a598       _Stoldx                    000000018003b598 f   libcpmt:xstold.obj
 0001:0003a7ec       _Mtxdst                    000000018003b7ec f   libcpmt:xmtx.obj
 0001:0003a7f4       _Mtxinit                   000000018003b7f4 f   libcpmt:xmtx.obj
 0001:0003a804       _Mtxlock                   000000018003b804 f   libcpmt:xmtx.obj
 0001:0003a80c       _Mtxunlock                 000000018003b80c f   libcpmt:xmtx.obj
 0001:0003a814       ?_Atexit@@YAXP6AXXZ@Z      000000018003b814 f   libcpmt:iosptrs.obj
 0001:0003a854       __crtLCMapStringA          000000018003b854 f   libcpmt:StlLCMapStringA.obj
 0001:0003ab48       _Stopfx                    000000018003bb48 f   libcpmt:xstopfx.obj
 0001:0003acac       _Stoflt                    000000018003bcac f   libcpmt:xstoflt.obj
 0001:0003af5c       _Stoxflt                   000000018003bf5c f   libcpmt:xstoxflt.obj
 0001:0003b264       _FDtest                    000000018003c264 f   libcpmt:xfdtest.obj
 0001:0003b2ac       _FPmsw                     000000018003c2ac f   libcpmt:xfdtest.obj
 0001:0003b2b4       _FDscale                   000000018003c2b4 f   libcpmt:xfdscale.obj
 0001:0003b48c       _FXp_addh                  000000018003c48c f   libcpmt:xfprec.obj
 0001:0003b7f8       _FXp_addx                  000000018003c7f8 f   libcpmt:xfprec.obj
 0001:0003b868       _FXp_getw                  000000018003c868 f   libcpmt:xfprec.obj
 0001:0003b8d8       _FXp_ldexpx                000000018003c8d8 f   libcpmt:xfprec.obj
 0001:0003b950       _FXp_movx                  000000018003c950 f   libcpmt:xfprec.obj
 0001:0003b974       _FXp_mulh                  000000018003c974 f   libcpmt:xfprec.obj
 0001:0003bb58       _FXp_mulx                  000000018003cb58 f   libcpmt:xfprec.obj
 0001:0003bc58       _FXp_setn                  000000018003cc58 f   libcpmt:xfprec.obj
 0001:0003bcdc       _FXp_setw                  000000018003ccdc f   libcpmt:xfprec.obj
 0001:0003bd8c       _FDtento                   000000018003cd8c f   libcpmt:xfdtento.obj
 0001:0003bf04       _Dtest                     000000018003cf04 f   libcpmt:xdtest.obj
 0001:0003bf64       _Dscale                    000000018003cf64 f   libcpmt:xdscale.obj
 0001:0003c1e8       _Xp_addh                   000000018003d1e8 f   libcpmt:xprec.obj
 0001:0003c564       _Xp_addx                   000000018003d564 f   libcpmt:xprec.obj
 0001:0003c5d4       _LXp_getw                  000000018003d5d4 f   libcpmt:xlprec.obj
 0001:0003c5d4       _Xp_getw                   000000018003d5d4 f   libcpmt:xprec.obj
 0001:0003c648       _LXp_ldexpx                000000018003d648 f   libcpmt:xlprec.obj
 0001:0003c648       _Xp_ldexpx                 000000018003d648 f   libcpmt:xprec.obj
 0001:0003c6b8       _Xp_mulh                   000000018003d6b8 f   libcpmt:xprec.obj
 0001:0003c8a0       _Xp_mulx                   000000018003d8a0 f   libcpmt:xprec.obj
 0001:0003c9a4       _Xp_setn                   000000018003d9a4 f   libcpmt:xprec.obj
 0001:0003c9c4       _Xp_setw                   000000018003d9c4 f   libcpmt:xprec.obj
 0001:0003cad8       _Dtento                    000000018003dad8 f   libcpmt:xdtento.obj
 0001:0003cc58       _LDtest                    000000018003dc58 f   libcpmt:xldtest.obj
 0001:0003cc60       _LPmsw                     000000018003dc60 f   libcpmt:xldtest.obj
 0001:0003cc60       _Pmsw                      000000018003dc60 f   libcpmt:xdtest.obj
 0001:0003cc68       _LDscale                   000000018003dc68 f   libcpmt:xldscale.obj
 0001:0003cc70       _LXp_addh                  000000018003dc70 f   libcpmt:xlprec.obj
 0001:0003cfec       _LXp_addx                  000000018003dfec f   libcpmt:xlprec.obj
 0001:0003d05c       _Xp_movx                   000000018003e05c f   libcpmt:xprec.obj
 0001:0003d05c       _LXp_movx                  000000018003e05c f   libcpmt:xlprec.obj
 0001:0003d080       _LXp_mulh                  000000018003e080 f   libcpmt:xlprec.obj
 0001:0003d268       _LXp_mulx                  000000018003e268 f   libcpmt:xlprec.obj
 0001:0003d36c       _LXp_setn                  000000018003e36c f   libcpmt:xlprec.obj
 0001:0003d38c       _LXp_setw                  000000018003e38c f   libcpmt:xlprec.obj
 0001:0003d4a0       _LDtento                   000000018003e4a0 f   libcpmt:xldtento.obj
 0001:0003daf0       __crtInitializeCriticalSectionEx 000000018003eaf0 f   libcpmt:winapisupp.obj
 0001:0003db50       GetTableIndexFromLocaleName 000000018003eb50 f   libcpmt:winapinls.obj
 0001:0003dbdc       __crtDownlevelLocaleNameToLCID 000000018003ebdc f   libcpmt:winapinls.obj
 0001:0003dc10       __crtLCMapStringEx         000000018003ec10 f   libcpmt:winapinls.obj
 0001:0003dccc       __wcsnicmp_ascii           000000018003eccc f   libcpmt:winapinls.obj
 0001:0003dd24       _FDnorm                    000000018003ed24 f   libcpmt:xfdnorm.obj
 0001:0003de10       _Feraise                   000000018003ee10 f   libcpmt:xferaise.obj
 0001:0003de3c       _FDint                     000000018003ee3c f   libcpmt:xfdint.obj
 0001:0003df14       _FDunscale                 000000018003ef14 f   libcpmt:xfdunsca.obj
 0001:0003dfa0       _Dnorm                     000000018003efa0 f   libcpmt:xdnorm.obj
 0001:0003e13c       _Dint                      000000018003f13c f   libcpmt:xdint.obj
 0001:0003e254       _Dunscale                  000000018003f254 f   libcpmt:xdunscal.obj
 0001:0003e2f0       _LDint                     000000018003f2f0 f   libcpmt:xldint.obj
 0001:0003e2f8       _LDunscale                 000000018003f2f8 f   libcpmt:xldunsca.obj
 0001:0003e310       __security_check_cookie    000000018003f310 f   LIBCMT:_amdsecgs_.obj
 0001:0003e47c       _Init_thread_footer        000000018003f47c f   LIBCMT:thread_safe_statics.obj
 0001:0003e4dc       _Init_thread_header        000000018003f4dc f   LIBCMT:thread_safe_statics.obj
 0001:0003e544       _Init_thread_notify        000000018003f544 f   LIBCMT:thread_safe_statics.obj
 0001:0003e5a0       _Init_thread_wait          000000018003f5a0 f   LIBCMT:thread_safe_statics.obj
 0001:0003e638       ??2@YAPEAX_K@Z             000000018003f638 f   LIBCMT:new_scalar.obj
 0001:0003e674       __scrt_acquire_startup_lock 000000018003f674 f   LIBCMT:utility.obj
 0001:0003e6b0       __scrt_dllmain_after_initialize_c 000000018003f6b0 f   LIBCMT:utility.obj
 0001:0003e6d0       __scrt_dllmain_before_initialize_c 000000018003f6d0 f   LIBCMT:utility.obj
 0001:0003e6e8       __scrt_dllmain_crt_thread_attach 000000018003f6e8 f   LIBCMT:utility.obj
 0001:0003e710       __scrt_dllmain_crt_thread_detach 000000018003f710 f   LIBCMT:utility.obj
 0001:0003e728       __scrt_dllmain_exception_filter 000000018003f728 f   LIBCMT:utility.obj
 0001:0003e78c       __scrt_dllmain_uninitialize_c 000000018003f78c f   LIBCMT:utility.obj
 0001:0003e7bc       __scrt_dllmain_uninitialize_critical 000000018003f7bc f   LIBCMT:utility.obj
 0001:0003e7d0       __scrt_initialize_crt      000000018003f7d0 f   LIBCMT:utility.obj
 0001:0003e81c       __scrt_initialize_onexit_tables 000000018003f81c f   LIBCMT:utility.obj
 0001:0003e8e8       __scrt_is_nonwritable_in_current_image 000000018003f8e8 f   LIBCMT:utility.obj
 0001:0003e984       __scrt_release_startup_lock 000000018003f984 f   LIBCMT:utility.obj
 0001:0003e9a8       __scrt_uninitialize_crt    000000018003f9a8 f   LIBCMT:utility.obj
 0001:0003e9d4       _onexit                    000000018003f9d4 f   LIBCMT:utility.obj
 0001:0003ea24       atexit                     000000018003fa24 f   LIBCMT:utility.obj
 0001:0003ea3c       ??3@YAXPEAX@Z              000000018003fa3c f   LIBCMT:delete_scalar.obj
 0001:0003ea44       ??_Gtype_info@@UEAAPEAXI@Z 000000018003fa44 f i LIBCMT:std_type_info_static.obj
 0001:0003ea44       ??_Etype_info@@UEAAPEAXI@Z 000000018003fa44 f i LIBCMT:std_type_info_static.obj
 0001:0003ea70       ??_V@YAXPEAX@Z             000000018003fa70 f   LIBCMT:delete_array.obj
 0001:0003ea70       ??3@YAXPEAX_K@Z            000000018003fa70 f   LIBCMT:delete_scalar_size.obj
 0001:0003ea78       ??_U@YAPEAX_K@Z            000000018003fa78 f   LIBCMT:new_array.obj
 0001:0003ea80       __raise_securityfailure    000000018003fa80 f   LIBCMT:gs_report.obj
 0001:0003eab4       __report_gsfailure         000000018003fab4 f   LIBCMT:gs_report.obj
 0001:0003eb88       __report_rangecheckfailure 000000018003fb88 f   LIBCMT:gs_report.obj
 0001:0003eb9c       __report_securityfailure   000000018003fb9c f   LIBCMT:gs_report.obj
 0001:0003f078       _DllMainCRTStartup         0000000180040078 f   LIBCMT:dll_dllmain.obj
 0001:0003f0b8       _guard_check_icall         00000001800400b8 f i LIBCMT:checkcfg.obj
 0001:0003f0c0       __GSHandlerCheck           00000001800400c0 f   LIBCMT:_gshandler_.obj
 0001:0003f0e0       __GSHandlerCheckCommon     00000001800400e0 f   LIBCMT:_gshandler_.obj
 0001:0003f150       __chkstk                   0000000180040150 f   LIBCMT:_chkstk_.obj
 0001:0003f150       _alloca_probe              0000000180040150 f   LIBCMT:_chkstk_.obj
 0001:0003f1a4       __crt_debugger_hook        00000001800401a4 f   LIBCMT:utility_desktop.obj
 0001:0003f1ac       __scrt_fastfail            00000001800401ac f   LIBCMT:utility_desktop.obj
 0001:0003f2f4       ??0bad_array_new_length@std@@QEAA@AEBV01@@Z 00000001800402f4 f i LIBCMT:throw_bad_alloc.obj
 0001:0003f334       ??0bad_array_new_length@std@@QEAA@XZ 0000000180040334 f i LIBCMT:throw_bad_alloc.obj
 0001:0003f354       ?__scrt_throw_std_bad_alloc@@YAXXZ 0000000180040354 f   LIBCMT:throw_bad_alloc.obj
 0001:0003f354       ?_Xbad_alloc@std@@YAXXZ    0000000180040354 f   libcpmt:xthrow.obj
 0001:0003f374       ?__scrt_throw_std_bad_array_new_length@@YAXXZ 0000000180040374 f   LIBCMT:throw_bad_alloc.obj
 0001:0003f394       __isa_available_init       0000000180040394 f   LIBCMT:_cpu_disp_.obj
 0001:0003f558       __scrt_is_ucrt_dll_in_use  0000000180040558 f   LIBCMT:ucrt_detection.obj
 0001:0003f564       __security_init_cookie     0000000180040564 f   LIBCMT:gs_support.obj
 0001:0003f610       ?__scrt_initialize_type_info@@YAXXZ 0000000180040610 f   LIBCMT:tncleanup.obj
 0001:0003f620       ?__scrt_uninitialize_type_info@@YAXXZ 0000000180040620 f   LIBCMT:tncleanup.obj
 0001:0003f62c       __local_stdio_scanf_options 000000018004062c f i LIBCMT:default_local_stdio_options.obj
 0001:0003f634       __scrt_initialize_default_local_stdio_options 0000000180040634 f   LIBCMT:default_local_stdio_options.obj
 0001:0003f650       __scrt_get_dyn_tls_init_callback 0000000180040650 f   LIBCMT:dyn_tls_init.obj
 0001:0003f658       _RTC_Initialize            0000000180040658 f   LIBCMT:_initsect_.obj
 0001:0003f6a4       _RTC_Terminate             00000001800406a4 f   LIBCMT:_initsect_.obj
 0001:0003f700       memcpy                     0000000180040700 f   libvcruntime:memcpy.obj
 0001:0003f700       memmove                    0000000180040700 f   libvcruntime:memcpy.obj
 0001:0003fb38       _purecall                  0000000180040b38 f   libvcruntime:purevirt.obj
 0001:0003fb74       memchr                     0000000180040b74 f   libvcruntime:memchr.obj
 0001:0003fb90       __std_exception_copy       0000000180040b90 f   libvcruntime:std_exception.obj
 0001:0003fc20       __std_exception_destroy    0000000180040c20 f   libvcruntime:std_exception.obj
 0001:0003fc48       _CxxThrowException         0000000180040c48 f   libvcruntime:throw.obj
 0001:0003fd20       __DestructExceptionObject  0000000180040d20 f   libvcruntime:frame.obj
 0001:0003fda8       ??0bad_exception@std@@QEAA@AEBV01@@Z 0000000180040da8 f i libvcruntime:frame.obj
 0001:0003fde8       ??0bad_exception@std@@QEAA@XZ 0000000180040de8 f i libvcruntime:frame.obj
 0001:0003fe08       ??1bad_alloc@std@@UEAA@XZ  0000000180040e08 f i libcpmt:xthrow.obj
 0001:0003fe08       ??1bad_function_call@std@@UEAA@XZ 0000000180040e08 f i libcpmt:xthrow.obj
 0001:0003fe08       ??1bad_exception@std@@UEAA@XZ 0000000180040e08 f i libvcruntime:frame.obj
 0001:0003fe08       ??1length_error@std@@UEAA@XZ 0000000180040e08 f i libcpmt:xthrow.obj
 0001:0003fe08       ??1bad_array_new_length@std@@UEAA@XZ 0000000180040e08 f i LIBCMT:throw_bad_alloc.obj
 0001:0003fe08       ??1out_of_range@std@@UEAA@XZ 0000000180040e08 f i libcpmt:xthrow.obj
 0001:00040744       ?_CallMemberFunction0@@YAXPEAXP6AX0@Z@Z 0000000180041744 f i libvcruntime:frame.obj
 0001:00040748       ?_CallMemberFunction1@@YAXPEAXP6AX0@Z0@Z 0000000180041748 f i libvcruntime:frame.obj
 0001:00040754       ?_CallMemberFunction2@@YAXPEAXP6AX0@Z0H@Z 0000000180041754 f i libvcruntime:frame.obj
 0001:00040764       __AdjustPointer            0000000180041764 f   libvcruntime:frame.obj
 0001:00040788       __BuildCatchObject         0000000180041788 f   libvcruntime:frame.obj
 0001:00040850       __BuildCatchObjectHelper   0000000180041850 f   libvcruntime:frame.obj
 0001:00040a34       __CxxCallCatchBlock        0000000180041a34 f   libvcruntime:frame.obj
 0001:00040c20       __FrameUnwindFilter        0000000180041c20 f   libvcruntime:frame.obj
 0001:00040c6c       __FrameUnwindToState       0000000180041c6c f   libvcruntime:frame.obj
 0001:00040e00       __InternalCxxFrameHandler  0000000180041e00 f   libvcruntime:frame.obj
 0001:00041058       __TypeMatch                0000000180042058 f   libvcruntime:frame.obj
 0001:00041198       __std_terminate            0000000180042198 f   libvcruntime:frame.obj
 0001:000411a4       ?_GetEstablisherFrame@@YAPEA_KPEA_KPEAU_xDISPATCHER_CONTEXT@@PEBU_s_FuncInfo@@0@Z 00000001800421a4 f   libvcruntime:trnsctrl.obj
 0001:00041270       ?_GetRangeOfTrysToCheck@@YAPEBU_s_TryBlockMapEntry@@PEA_KPEBU_s_FuncInfo@@HHPEAI2PEAU_xDISPATCHER_CONTEXT@@@Z 0000000180042270 f   libvcruntime:trnsctrl.obj
 0001:0004139c       ?__FrameUnwindToEmptyState@@YAXPEA_KPEAU_xDISPATCHER_CONTEXT@@PEBU_s_FuncInfo@@@Z 000000018004239c f   libvcruntime:trnsctrl.obj
 0001:00041430       ?__SehTransFilter@@YAHPEAU_EXCEPTION_POINTERS@@PEAUEHExceptionRecord@@PEA_KPEAU_CONTEXT@@PEAU_xDISPATCHER_CONTEXT@@PEBU_s_FuncInfo@@PEAH@Z 0000000180042430 f   libvcruntime:trnsctrl.obj
 0001:000414c8       _CallSETranslator          00000001800424c8 f   libvcruntime:trnsctrl.obj
 0001:00041520       _CreateFrameInfo           0000000180042520 f   libvcruntime:trnsctrl.obj
 0001:0004155c       _FindAndUnlinkFrame        000000018004255c f   libvcruntime:trnsctrl.obj
 0001:000415b4       _GetImageBase              00000001800425b4 f   libvcruntime:trnsctrl.obj
 0001:000415c8       _GetThrowImageBase         00000001800425c8 f   libvcruntime:trnsctrl.obj
 0001:000415dc       _IsExceptionObjectToBeDestroyed 00000001800425dc f   libvcruntime:trnsctrl.obj
 0001:0004160c       _SetImageBase              000000018004260c f   libvcruntime:trnsctrl.obj
 0001:00041624       _SetThrowImageBase         0000000180042624 f   libvcruntime:trnsctrl.obj
 0001:0004163c       _UnwindNestedFrames        000000018004263c f   libvcruntime:trnsctrl.obj
 0001:00041760       __CxxFrameHandler3         0000000180042760 f   libvcruntime:trnsctrl.obj
 0001:000417f0       memset                     00000001800427f0 f   libvcruntime:memset.obj
 0001:000419a0       memcmp                     00000001800429a0 f   libvcruntime:memcmp.obj
 0001:00041c30       __vcrt_EventRegister       0000000180042c30 f   libvcruntime:winapi_downlevel.obj
 0001:00041cb4       __vcrt_EventSetInformation 0000000180042cb4 f   libvcruntime:winapi_downlevel.obj
 0001:00041d38       __vcrt_EventUnregister     0000000180042d38 f   libvcruntime:winapi_downlevel.obj
 0001:00041d8c       __vcrt_EventWriteTransfer  0000000180042d8c f   libvcruntime:winapi_downlevel.obj
 0001:00041e24       __vcrt_FlsAlloc            0000000180042e24 f   libvcruntime:winapi_downlevel.obj
 0001:00041e78       __vcrt_FlsFree             0000000180042e78 f   libvcruntime:winapi_downlevel.obj
 0001:00041ecc       __vcrt_FlsGetValue         0000000180042ecc f   libvcruntime:winapi_downlevel.obj
 0001:00041f20       __vcrt_FlsSetValue         0000000180042f20 f   libvcruntime:winapi_downlevel.obj
 0001:00041f88       __vcrt_InitializeCriticalSectionEx 0000000180042f88 f   libvcruntime:winapi_downlevel.obj
 0001:00042000       __vcrt_initialize_winapi_thunks 0000000180043000 f   libvcruntime:winapi_downlevel.obj
 0001:00042038       __vcrt_uninitialize_winapi_thunks 0000000180043038 f   libvcruntime:winapi_downlevel.obj
 0001:00042078       __vcrt_initialize          0000000180043078 f   libvcruntime:initialization.obj
 0001:000420b0       __vcrt_thread_attach       00000001800430b0 f   libvcruntime:initialization.obj
 0001:000420c4       __vcrt_thread_detach       00000001800430c4 f   libvcruntime:initialization.obj
 0001:000420d8       __vcrt_uninitialize        00000001800430d8 f   libvcruntime:initialization.obj
 0001:00042104       __vcrt_uninitialize_critical 0000000180043104 f   libvcruntime:initialization.obj
 0001:00042114       __C_specific_handler       0000000180043114 f   libvcruntime:_chandler_.obj
 0001:00042308       __telemetry_main_invoke_trigger 0000000180043308 f   libvcruntime:telemetry.obj
 0001:00042420       __telemetry_main_return_trigger 0000000180043420 f   libvcruntime:telemetry.obj
 0001:00042538       __vcrt_initialize_telemetry_provider 0000000180043538 f   libvcruntime:telemetry.obj
 0001:0004254c       __vcrt_uninitialize_telemetry_provider 000000018004354c f   libvcruntime:telemetry.obj
 0001:0004256c       __std_type_info_compare    000000018004356c f   libvcruntime:std_type_info.obj
 0001:00042594       __std_type_info_destroy_list 0000000180043594 f   libvcruntime:std_type_info.obj
 0001:000425c0       __vcrt_initialize_pure_virtual_call_handler 00000001800435c0 f   libvcruntime:purevirt_data.obj
 0001:000425e4       __vcrt_freefls             00000001800435e4 f   libvcruntime:per_thread_data.obj
 0001:00042604       __vcrt_freeptd             0000000180043604 f   libvcruntime:per_thread_data.obj
 0001:00042654       __vcrt_getptd              0000000180043654 f   libvcruntime:per_thread_data.obj
 0001:00042670       __vcrt_getptd_noexit       0000000180043670 f   libvcruntime:per_thread_data.obj
 0001:00042718       __vcrt_initialize_ptd      0000000180043718 f   libvcruntime:per_thread_data.obj
 0001:00042758       __vcrt_uninitialize_ptd    0000000180043758 f   libvcruntime:per_thread_data.obj
 0001:0004277c       ?__GetCurrentState@@YAHPEA_KPEAU_xDISPATCHER_CONTEXT@@PEBU_s_FuncInfo@@@Z 000000018004377c f   libvcruntime:ehstate.obj
 0001:000427a4       ?__GetUnwindTryBlock@@YAHPEA_KPEAU_xDISPATCHER_CONTEXT@@PEBU_s_FuncInfo@@@Z 00000001800437a4 f   libvcruntime:ehstate.obj
 0001:000427d0       ?__SetState@@YAXPEA_KPEAU_xDISPATCHER_CONTEXT@@PEBU_s_FuncInfo@@H@Z 00000001800437d0 f   libvcruntime:ehstate.obj
 0001:000427dc       ?__SetUnwindTryBlock@@YAXPEA_KPEAU_xDISPATCHER_CONTEXT@@PEBU_s_FuncInfo@@H@Z 00000001800437dc f   libvcruntime:ehstate.obj
 0001:00042818       ?__StateFromControlPc@@YAHPEBU_s_FuncInfo@@PEAU_xDISPATCHER_CONTEXT@@@Z 0000000180043818 f   libvcruntime:ehstate.obj
 0001:00042820       ?__StateFromIp@@YAHPEBU_s_FuncInfo@@PEAU_xDISPATCHER_CONTEXT@@_J@Z 0000000180043820 f   libvcruntime:ehstate.obj
 0001:000428a0       _CallSettingFrame          00000001800438a0 f   libvcruntime:handlers.obj
 0001:000428f0       _local_unwind              00000001800438f0 f   libvcruntime:_jmpuwind_.obj
 0001:00042920       _NLG_Notify                0000000180043920 f   libvcruntime:_jmpuwind_.obj
 0001:00042940       __NLG_Dispatch2            0000000180043940 f   libvcruntime:_jmpuwind_.obj
 0001:00042950       __NLG_Return2              0000000180043950 f   libvcruntime:_jmpuwind_.obj
 0001:00042954       __vcrt_initialize_locks    0000000180043954 f   libvcruntime:locks.obj
 0001:0004299c       __vcrt_uninitialize_locks  000000018004399c f   libvcruntime:locks.obj
 0001:000429d4       __acrt_call_reportfault    00000001800439d4 f   libucrt:invalid_parameter.obj
 0001:00042b30       __acrt_initialize_invalid_parameter_handler 0000000180043b30 f   libucrt:invalid_parameter.obj
 0001:00042b38       _invalid_parameter         0000000180043b38 f   libucrt:invalid_parameter.obj
 0001:00042be0       _invalid_parameter_noinfo  0000000180043be0 f   libucrt:invalid_parameter.obj
 0001:00042c00       _invalid_parameter_noinfo_noreturn 0000000180043c00 f   libucrt:invalid_parameter.obj
 0001:00042c30       _invoke_watson             0000000180043c30 f   libucrt:invalid_parameter.obj
 0001:00043660       ??$ftprintf@PEAU_iobuf@@PEB_WAEBQEB_WAEBQEB_WAEBI@?$__crt_char_traits@_W@@SAH$$QEAPEAU_iobuf@@$$QEAPEB_WAEBQEB_W2AEBI@Z 0000000180044660 f i libucrt:assert.obj
 0001:00043688       _wassert                   0000000180044688 f   libucrt:assert.obj
 0001:0004370c       fwprintf                   000000018004470c f i libucrt:assert.obj
 0001:00043750       swprintf                   0000000180044750 f i libucrt:assert.obj
 0001:000437a4       abort                      00000001800447a4 f   libucrt:abort.obj
 0001:000437fc       calloc                     00000001800447fc f   libucrt:calloc.obj
 0001:00043804       strcspn                    0000000180044804 f   libucrt:strcspn.obj
 0001:000438a4       ??$?RV<lambda_7b91131dde12e1c3dfc74ff76b3f2eac>@@AEAV<lambda_dd75445284c072d0bd3768540cc698fa>@@V<lambda_16bc4ecb55b4718497c16bceaea2ceaf>@@@?$__crt_seh_guarded_call@H@@QEAAH$$QEAV<lambda_7b91131dde12e1c3dfc74ff76b3f2eac>@@AEAV<lambda_dd75445284c072d0bd3768540cc698fa>@@$$QEAV<lambda_16bc4ecb55b4718497c16bceaea2ceaf>@@@Z 00000001800448a4 f i libucrt:output.obj
 0001:000438e4       ??$?RV<lambda_aa279a7bcb127014629d5b1d62c7325d>@@AEAV<lambda_0a64b6a4deda75c01876f29c44fc5eb3>@@V<lambda_3323e69fbefe9d1a11713e670d47cdfa>@@@?$__crt_seh_guarded_call@H@@QEAAH$$QEAV<lambda_aa279a7bcb127014629d5b1d62c7325d>@@AEAV<lambda_0a64b6a4deda75c01876f29c44fc5eb3>@@$$QEAV<lambda_3323e69fbefe9d1a11713e670d47cdfa>@@@Z 00000001800448e4 f i libucrt:output.obj
 0001:00043acc       ??$ensure_buffer_is_big_enough@D@formatting_buffer@__crt_stdio_output@@QEAA_N_K@Z 0000000180044acc f i libucrt:output.obj
 0001:00043b78       ??$is_wide_character_specifier@D@__crt_stdio_output@@YA_N_KDW4length_modifier@0@@Z 0000000180044b78 f i libucrt:output.obj
 0001:00043ba8       ??$is_wide_character_specifier@_W@__crt_stdio_output@@YA_N_K_WW4length_modifier@0@@Z 0000000180044ba8 f i libucrt:output.obj
 0001:00043bec       ??$type_case_integer_parse_into_buffer@I@?$output_processor@DV?$string_output_adapter@D@__crt_stdio_output@@V?$format_validation_base@DV?$string_output_adapter@D@__crt_stdio_output@@@2@@__crt_stdio_output@@AEAAXII_N@Z 0000000180044bec f i libucrt:output.obj
 0001:00043bec       ??$type_case_integer_parse_into_buffer@I@?$output_processor@_WV?$string_output_adapter@_W@__crt_stdio_output@@V?$standard_base@_WV?$string_output_adapter@_W@__crt_stdio_output@@@2@@__crt_stdio_output@@AEAAXII_N@Z 0000000180044bec f i libucrt:output.obj
 0001:00043bec       ??$type_case_integer_parse_into_buffer@I@?$output_processor@_WV?$stream_output_adapter@_W@__crt_stdio_output@@V?$standard_base@_WV?$stream_output_adapter@_W@__crt_stdio_output@@@2@@__crt_stdio_output@@AEAAXII_N@Z 0000000180044bec f i libucrt:output.obj
 0001:00043bec       ??$type_case_integer_parse_into_buffer@I@?$output_processor@DV?$stream_output_adapter@D@__crt_stdio_output@@V?$standard_base@DV?$stream_output_adapter@D@__crt_stdio_output@@@2@@__crt_stdio_output@@AEAAXII_N@Z 0000000180044bec f i libucrt:output.obj
 0001:00043c88       ??$type_case_integer_parse_into_buffer@_K@?$output_processor@DV?$stream_output_adapter@D@__crt_stdio_output@@V?$standard_base@DV?$stream_output_adapter@D@__crt_stdio_output@@@2@@__crt_stdio_output@@AEAAX_KI_N@Z 0000000180044c88 f i libucrt:output.obj
 0001:00043c88       ??$type_case_integer_parse_into_buffer@_K@?$output_processor@DV?$string_output_adapter@D@__crt_stdio_output@@V?$format_validation_base@DV?$string_output_adapter@D@__crt_stdio_output@@@2@@__crt_stdio_output@@AEAAX_KI_N@Z 0000000180044c88 f i libucrt:output.obj
 0001:00043c88       ??$type_case_integer_parse_into_buffer@_K@?$output_processor@_WV?$string_output_adapter@_W@__crt_stdio_output@@V?$standard_base@_WV?$string_output_adapter@_W@__crt_stdio_output@@@2@@__crt_stdio_output@@AEAAX_KI_N@Z 0000000180044c88 f i libucrt:output.obj
 0001:00043c88       ??$type_case_integer_parse_into_buffer@_K@?$output_processor@_WV?$stream_output_adapter@_W@__crt_stdio_output@@V?$standard_base@_WV?$stream_output_adapter@_W@__crt_stdio_output@@@2@@__crt_stdio_output@@AEAAX_KI_N@Z 0000000180044c88 f i libucrt:output.obj
 0001:00043d24       ??$write_multiple_characters@V?$stream_output_adapter@D@__crt_stdio_output@@D@__crt_stdio_output@@YAXAEBV?$stream_output_adapter@D@0@DHQEAH@Z 0000000180044d24 f i libucrt:output.obj
 0001:00043da8       ??$write_multiple_characters@V?$stream_output_adapter@_W@__crt_stdio_output@@D@__crt_stdio_output@@YAXAEBV?$stream_output_adapter@_W@0@DHQEAH@Z 0000000180044da8 f i libucrt:output.obj
 0001:00043e38       ??$write_multiple_characters@V?$string_output_adapter@D@__crt_stdio_output@@D@__crt_stdio_output@@YAXAEBV?$string_output_adapter@D@0@DHQEAH@Z 0000000180044e38 f i libucrt:output.obj
 0001:00043e94       ??$write_multiple_characters@V?$string_output_adapter@_W@__crt_stdio_output@@D@__crt_stdio_output@@YAXAEBV?$string_output_adapter@_W@0@DHQEAH@Z 0000000180044e94 f i libucrt:output.obj
 0001:00043f04       ??0?$output_processor@DV?$stream_output_adapter@D@__crt_stdio_output@@V?$standard_base@DV?$stream_output_adapter@D@__crt_stdio_output@@@2@@__crt_stdio_output@@QEAA@AEBV?$stream_output_adapter@D@1@_KQEBDQEAU__crt_locale_pointers@@QEAD@Z 0000000180044f04 f i libucrt:output.obj
 0001:00043f04       ??0?$output_processor@DV?$string_output_adapter@D@__crt_stdio_output@@V?$format_validation_base@DV?$string_output_adapter@D@__crt_stdio_output@@@2@@__crt_stdio_output@@QEAA@AEBV?$string_output_adapter@D@1@_KQEBDQEAU__crt_locale_pointers@@QEAD@Z 0000000180044f04 f i libucrt:output.obj
 0001:00043f80       ??0?$output_processor@_WV?$string_output_adapter@_W@__crt_stdio_output@@V?$standard_base@_WV?$string_output_adapter@_W@__crt_stdio_output@@@2@@__crt_stdio_output@@QEAA@AEBV?$string_output_adapter@_W@1@_KQEB_WQEAU__crt_locale_pointers@@QEAD@Z 0000000180044f80 f i libucrt:output.obj
 0001:00043f80       ??0?$output_processor@_WV?$stream_output_adapter@_W@__crt_stdio_output@@V?$standard_base@_WV?$stream_output_adapter@_W@__crt_stdio_output@@@2@@__crt_stdio_output@@QEAA@AEBV?$stream_output_adapter@_W@1@_KQEB_WQEAU__crt_locale_pointers@@QEAD@Z 0000000180044f80 f i libucrt:output.obj
 0001:00044000       ??0_LocaleUpdate@@QEAA@QEAU__crt_locale_pointers@@@Z 0000000180045000 f i libucrt:output.obj
 0001:00044270       ?force_decimal_point@__crt_stdio_output@@YAXPEADQEAU__crt_locale_pointers@@@Z 0000000180045270 f i libucrt:output.obj
 0001:000442e0       ?parse_int_from_format_string@?$output_processor@DV?$stream_output_adapter@D@__crt_stdio_output@@V?$standard_base@DV?$stream_output_adapter@D@__crt_stdio_output@@@2@@__crt_stdio_output@@AEAA_NQEAH@Z 00000001800452e0 f i libucrt:output.obj
 0001:000442e0       ?parse_int_from_format_string@?$output_processor@DV?$string_output_adapter@D@__crt_stdio_output@@V?$format_validation_base@DV?$string_output_adapter@D@__crt_stdio_output@@@2@@__crt_stdio_output@@AEAA_NQEAH@Z 00000001800452e0 f i libucrt:output.obj
 0001:00044364       ?parse_int_from_format_string@?$output_processor@_WV?$string_output_adapter@_W@__crt_stdio_output@@V?$standard_base@_WV?$string_output_adapter@_W@__crt_stdio_output@@@2@@__crt_stdio_output@@AEAA_NQEAH@Z 0000000180045364 f i libucrt:output.obj
 0001:00044364       ?parse_int_from_format_string@?$output_processor@_WV?$stream_output_adapter@_W@__crt_stdio_output@@V?$standard_base@_WV?$stream_output_adapter@_W@__crt_stdio_output@@@2@@__crt_stdio_output@@AEAA_NQEAH@Z 0000000180045364 f i libucrt:output.obj
 0001:000443e4       ?process@?$output_processor@DV?$stream_output_adapter@D@__crt_stdio_output@@V?$standard_base@DV?$stream_output_adapter@D@__crt_stdio_output@@@2@@__crt_stdio_output@@QEAAHXZ 00000001800453e4 f i libucrt:output.obj
 0001:000445f4       ?process@?$output_processor@DV?$string_output_adapter@D@__crt_stdio_output@@V?$format_validation_base@DV?$string_output_adapter@D@__crt_stdio_output@@@2@@__crt_stdio_output@@QEAAHXZ 00000001800455f4 f i libucrt:output.obj
 0001:00044808       ?process@?$output_processor@_WV?$stream_output_adapter@_W@__crt_stdio_output@@V?$standard_base@_WV?$stream_output_adapter@_W@__crt_stdio_output@@@2@@__crt_stdio_output@@QEAAHXZ 0000000180045808 f i libucrt:output.obj
 0001:00044a80       ?process@?$output_processor@_WV?$string_output_adapter@_W@__crt_stdio_output@@V?$standard_base@_WV?$string_output_adapter@_W@__crt_stdio_output@@@2@@__crt_stdio_output@@QEAAHXZ 0000000180045a80 f i libucrt:output.obj
 0001:00044cfc       ?state_case_normal@?$output_processor@DV?$stream_output_adapter@D@__crt_stdio_output@@V?$standard_base@DV?$stream_output_adapter@D@__crt_stdio_output@@@2@@__crt_stdio_output@@AEAA_NXZ 0000000180045cfc f i libucrt:output.obj
 0001:00044d6c       ?state_case_normal@?$output_processor@DV?$string_output_adapter@D@__crt_stdio_output@@V?$format_validation_base@DV?$string_output_adapter@D@__crt_stdio_output@@@2@@__crt_stdio_output@@AEAA_NXZ 0000000180045d6c f i libucrt:output.obj
 0001:00044de0       ?state_case_normal_tchar@?$output_processor@DV?$stream_output_adapter@D@__crt_stdio_output@@V?$standard_base@DV?$stream_output_adapter@D@__crt_stdio_output@@@2@@__crt_stdio_output@@AEAA_ND@Z 0000000180045de0 f i libucrt:output.obj
 0001:00044e74       ?state_case_normal_tchar@?$output_processor@DV?$string_output_adapter@D@__crt_stdio_output@@V?$format_validation_base@DV?$string_output_adapter@D@__crt_stdio_output@@@2@@__crt_stdio_output@@AEAA_ND@Z 0000000180045e74 f i libucrt:output.obj
 0001:00044f0c       ?state_case_size@?$output_processor@DV?$stream_output_adapter@D@__crt_stdio_output@@V?$standard_base@DV?$stream_output_adapter@D@__crt_stdio_output@@@2@@__crt_stdio_output@@AEAA_NXZ 0000000180045f0c f i libucrt:output.obj
 0001:00045088       ?state_case_size@?$output_processor@DV?$string_output_adapter@D@__crt_stdio_output@@V?$format_validation_base@DV?$string_output_adapter@D@__crt_stdio_output@@@2@@__crt_stdio_output@@AEAA_NXZ 0000000180046088 f i libucrt:output.obj
 0001:00045204       ?state_case_size@?$output_processor@_WV?$stream_output_adapter@_W@__crt_stdio_output@@V?$standard_base@_WV?$stream_output_adapter@_W@__crt_stdio_output@@@2@@__crt_stdio_output@@AEAA_NXZ 0000000180046204 f i libucrt:output.obj
 0001:000453a8       ?state_case_size@?$output_processor@_WV?$string_output_adapter@_W@__crt_stdio_output@@V?$standard_base@_WV?$string_output_adapter@_W@__crt_stdio_output@@@2@@__crt_stdio_output@@AEAA_NXZ 00000001800463a8 f i libucrt:output.obj
 0001:0004554c       ?state_case_type@?$output_processor@DV?$stream_output_adapter@D@__crt_stdio_output@@V?$standard_base@DV?$stream_output_adapter@D@__crt_stdio_output@@@2@@__crt_stdio_output@@AEAA_NXZ 000000018004654c f i libucrt:output.obj
 0001:000457c8       ?state_case_type@?$output_processor@DV?$string_output_adapter@D@__crt_stdio_output@@V?$format_validation_base@DV?$string_output_adapter@D@__crt_stdio_output@@@2@@__crt_stdio_output@@AEAA_NXZ 00000001800467c8 f i libucrt:output.obj
 0001:00045a44       ?state_case_type@?$output_processor@_WV?$stream_output_adapter@_W@__crt_stdio_output@@V?$standard_base@_WV?$stream_output_adapter@_W@__crt_stdio_output@@@2@@__crt_stdio_output@@AEAA_NXZ 0000000180046a44 f i libucrt:output.obj
 0001:00045d10       ?state_case_type@?$output_processor@_WV?$string_output_adapter@_W@__crt_stdio_output@@V?$standard_base@_WV?$string_output_adapter@_W@__crt_stdio_output@@@2@@__crt_stdio_output@@AEAA_NXZ 0000000180046d10 f i libucrt:output.obj
 0001:00045fdc       ?type_case_Z@?$output_processor@DV?$stream_output_adapter@D@__crt_stdio_output@@V?$standard_base@DV?$stream_output_adapter@D@__crt_stdio_output@@@2@@__crt_stdio_output@@AEAA_NXZ 0000000180046fdc f i libucrt:output.obj
 0001:00045fdc       ?type_case_Z@?$output_processor@DV?$string_output_adapter@D@__crt_stdio_output@@V?$format_validation_base@DV?$string_output_adapter@D@__crt_stdio_output@@@2@@__crt_stdio_output@@AEAA_NXZ 0000000180046fdc f i libucrt:output.obj
 0001:0004605c       ?type_case_Z@?$output_processor@_WV?$string_output_adapter@_W@__crt_stdio_output@@V?$standard_base@_WV?$string_output_adapter@_W@__crt_stdio_output@@@2@@__crt_stdio_output@@AEAA_NXZ 000000018004705c f i libucrt:output.obj
 0001:0004605c       ?type_case_Z@?$output_processor@_WV?$stream_output_adapter@_W@__crt_stdio_output@@V?$standard_base@_WV?$stream_output_adapter@_W@__crt_stdio_output@@@2@@__crt_stdio_output@@AEAA_NXZ 000000018004705c f i libucrt:output.obj
 0001:000460dc       ?type_case_a@?$output_processor@DV?$stream_output_adapter@D@__crt_stdio_output@@V?$standard_base@DV?$stream_output_adapter@D@__crt_stdio_output@@@2@@__crt_stdio_output@@AEAA_NXZ 00000001800470dc f i libucrt:output.obj
 0001:000460dc       ?type_case_a@?$output_processor@DV?$string_output_adapter@D@__crt_stdio_output@@V?$format_validation_base@DV?$string_output_adapter@D@__crt_stdio_output@@@2@@__crt_stdio_output@@AEAA_NXZ 00000001800470dc f i libucrt:output.obj
 0001:000462f8       ?type_case_a@?$output_processor@_WV?$stream_output_adapter@_W@__crt_stdio_output@@V?$standard_base@_WV?$stream_output_adapter@_W@__crt_stdio_output@@@2@@__crt_stdio_output@@AEAA_NXZ 00000001800472f8 f i libucrt:output.obj
 0001:000462f8       ?type_case_a@?$output_processor@_WV?$string_output_adapter@_W@__crt_stdio_output@@V?$standard_base@_WV?$string_output_adapter@_W@__crt_stdio_output@@@2@@__crt_stdio_output@@AEAA_NXZ 00000001800472f8 f i libucrt:output.obj
 0001:0004653c       ?type_case_c_tchar@?$output_processor@DV?$stream_output_adapter@D@__crt_stdio_output@@V?$standard_base@DV?$stream_output_adapter@D@__crt_stdio_output@@@2@@__crt_stdio_output@@AEAA_ND@Z 000000018004753c f i libucrt:output.obj
 0001:0004653c       ?type_case_c_tchar@?$output_processor@DV?$string_output_adapter@D@__crt_stdio_output@@V?$format_validation_base@DV?$string_output_adapter@D@__crt_stdio_output@@@2@@__crt_stdio_output@@AEAA_ND@Z 000000018004753c f i libucrt:output.obj
 0001:000465f0       ?type_case_c_tchar@?$output_processor@_WV?$string_output_adapter@_W@__crt_stdio_output@@V?$standard_base@_WV?$string_output_adapter@_W@__crt_stdio_output@@@2@@__crt_stdio_output@@AEAA_N_W@Z 00000001800475f0 f i libucrt:output.obj
 0001:000465f0       ?type_case_c_tchar@?$output_processor@_WV?$stream_output_adapter@_W@__crt_stdio_output@@V?$standard_base@_WV?$stream_output_adapter@_W@__crt_stdio_output@@@2@@__crt_stdio_output@@AEAA_N_W@Z 00000001800475f0 f i libucrt:output.obj
 0001:00046698       ?type_case_integer@?$output_processor@DV?$stream_output_adapter@D@__crt_stdio_output@@V?$standard_base@DV?$stream_output_adapter@D@__crt_stdio_output@@@2@@__crt_stdio_output@@AEAA_NI_N@Z 0000000180047698 f i libucrt:output.obj
 0001:00046698       ?type_case_integer@?$output_processor@_WV?$string_output_adapter@_W@__crt_stdio_output@@V?$standard_base@_WV?$string_output_adapter@_W@__crt_stdio_output@@@2@@__crt_stdio_output@@AEAA_NI_N@Z 0000000180047698 f i libucrt:output.obj
 0001:00046698       ?type_case_integer@?$output_processor@DV?$string_output_adapter@D@__crt_stdio_output@@V?$format_validation_base@DV?$string_output_adapter@D@__crt_stdio_output@@@2@@__crt_stdio_output@@AEAA_NI_N@Z 0000000180047698 f i libucrt:output.obj
 0001:00046698       ?type_case_integer@?$output_processor@_WV?$stream_output_adapter@_W@__crt_stdio_output@@V?$standard_base@_WV?$stream_output_adapter@_W@__crt_stdio_output@@@2@@__crt_stdio_output@@AEAA_NI_N@Z 0000000180047698 f i libucrt:output.obj
 0001:00046838       ?type_case_n@?$output_processor@_WV?$stream_output_adapter@_W@__crt_stdio_output@@V?$standard_base@_WV?$stream_output_adapter@_W@__crt_stdio_output@@@2@@__crt_stdio_output@@AEAA_NXZ 0000000180047838 f i libucrt:output.obj
 0001:00046838       ?type_case_n@?$output_processor@DV?$string_output_adapter@D@__crt_stdio_output@@V?$format_validation_base@DV?$string_output_adapter@D@__crt_stdio_output@@@2@@__crt_stdio_output@@AEAA_NXZ 0000000180047838 f i libucrt:output.obj
 0001:00046838       ?type_case_n@?$output_processor@DV?$stream_output_adapter@D@__crt_stdio_output@@V?$standard_base@DV?$stream_output_adapter@D@__crt_stdio_output@@@2@@__crt_stdio_output@@AEAA_NXZ 0000000180047838 f i libucrt:output.obj
 0001:00046838       ?type_case_n@?$output_processor@_WV?$string_output_adapter@_W@__crt_stdio_output@@V?$standard_base@_WV?$string_output_adapter@_W@__crt_stdio_output@@@2@@__crt_stdio_output@@AEAA_NXZ 0000000180047838 f i libucrt:output.obj
 0001:00046914       ?type_case_s@?$output_processor@DV?$string_output_adapter@D@__crt_stdio_output@@V?$format_validation_base@DV?$string_output_adapter@D@__crt_stdio_output@@@2@@__crt_stdio_output@@AEAA_NXZ 0000000180047914 f i libucrt:output.obj
 0001:00046914       ?type_case_s@?$output_processor@DV?$stream_output_adapter@D@__crt_stdio_output@@V?$standard_base@DV?$stream_output_adapter@D@__crt_stdio_output@@@2@@__crt_stdio_output@@AEAA_NXZ 0000000180047914 f i libucrt:output.obj
 0001:000469a4       ?type_case_s@?$output_processor@_WV?$stream_output_adapter@_W@__crt_stdio_output@@V?$standard_base@_WV?$stream_output_adapter@_W@__crt_stdio_output@@@2@@__crt_stdio_output@@AEAA_NXZ 00000001800479a4 f i libucrt:output.obj
 0001:000469a4       ?type_case_s@?$output_processor@_WV?$string_output_adapter@_W@__crt_stdio_output@@V?$standard_base@_WV?$string_output_adapter@_W@__crt_stdio_output@@@2@@__crt_stdio_output@@AEAA_NXZ 00000001800479a4 f i libucrt:output.obj
 0001:00046a6c       ?validate_stream_is_ansi_if_required@?$__acrt_stdio_char_traits@D@@SA_NQEAU_iobuf@@@Z 0000000180047a6c f i libucrt:output.obj
 0001:00046af8       ?write_stored_string_tchar@?$output_processor@DV?$stream_output_adapter@D@__crt_stdio_output@@V?$standard_base@DV?$stream_output_adapter@D@__crt_stdio_output@@@2@@__crt_stdio_output@@AEAA_ND@Z 0000000180047af8 f i libucrt:output.obj
 0001:00046bd0       ?write_stored_string_tchar@?$output_processor@DV?$string_output_adapter@D@__crt_stdio_output@@V?$format_validation_base@DV?$string_output_adapter@D@__crt_stdio_output@@@2@@__crt_stdio_output@@AEAA_ND@Z 0000000180047bd0 f i libucrt:output.obj
 0001:00046ca8       ?write_stored_string_tchar@?$output_processor@_WV?$stream_output_adapter@_W@__crt_stdio_output@@V?$standard_base@_WV?$stream_output_adapter@_W@__crt_stdio_output@@@2@@__crt_stdio_output@@AEAA_N_W@Z 0000000180047ca8 f i libucrt:output.obj
 0001:00046d94       ?write_stored_string_tchar@?$output_processor@_WV?$string_output_adapter@_W@__crt_stdio_output@@V?$standard_base@_WV?$string_output_adapter@_W@__crt_stdio_output@@@2@@__crt_stdio_output@@AEAA_N_W@Z 0000000180047d94 f i libucrt:output.obj
 0001:00046e84       ?write_string@?$stream_output_adapter@D@__crt_stdio_output@@QEBAXQEBDHQEAH1@Z 0000000180047e84 f i libucrt:output.obj
 0001:00046f7c       ?write_string@?$stream_output_adapter@_W@__crt_stdio_output@@QEBAXQEB_WHQEAH1@Z 0000000180047f7c f i libucrt:output.obj
 0001:00047088       ?write_string@?$string_output_adapter@D@__crt_stdio_output@@QEBAXQEBDHQEAH1@Z 0000000180048088 f i libucrt:output.obj
 0001:00047144       ?write_string@?$string_output_adapter@_W@__crt_stdio_output@@QEBAXQEB_WHQEAH1@Z 0000000180048144 f i libucrt:output.obj
 0001:00047204       __stdio_common_vfprintf    0000000180048204 f   libucrt:output.obj
 0001:00047290       __stdio_common_vfwprintf   0000000180048290 f   libucrt:output.obj
 0001:0004731c       __stdio_common_vsprintf_s  000000018004831c f   libucrt:output.obj
 0001:00047380       __stdio_common_vswprintf   0000000180048380 f   libucrt:output.obj
 0001:000475b8       localeconv                 00000001800485b8 f   libucrt:localeconv.obj
 0001:000475ec       free                       00000001800485ec f   libucrt:free.obj
 0001:000475f4       frexp                      00000001800485f4 f   libucrt:frexp.obj
 0001:000477bc       _fsopen                    00000001800487bc f   libucrt:fopen.obj
 0001:000477c4       fopen                      00000001800487c4 f   libucrt:fopen.obj
 0001:000477d0       _fclose_nolock             00000001800487d0 f   libucrt:fclose.obj
 0001:00047854       fclose                     0000000180048854 f   libucrt:fclose.obj
 0001:000478d0       strncpy                    00000001800488d0 f   libucrt:strncpy.obj
 0001:00047a34       _chdir                     0000000180048a34 f   libucrt:chdir.obj
 0001:00047b90       ??$?RV<lambda_5d4c3fee44080f75d5d9762853974fe0>@@AEAV<lambda_532e024f4337e6fc7ad266c2bef9f4ed>@@V<lambda_c87bdc10097eb2402edb8ba9bdf0697b>@@@?$__crt_seh_guarded_call@_K@@QEAA_K$$QEAV<lambda_5d4c3fee44080f75d5d9762853974fe0>@@AEAV<lambda_532e024f4337e6fc7ad266c2bef9f4ed>@@$$QEAV<lambda_c87bdc10097eb2402edb8ba9bdf0697b>@@@Z 0000000180048b90 f i libucrt:fwrite.obj
 0001:00047c34       _fwrite_nolock             0000000180048c34 f   libucrt:fwrite.obj
 0001:00047dd0       fwrite                     0000000180048dd0 f   libucrt:fwrite.obj
 0001:00047e54       __acrt_errno_from_os_error 0000000180048e54 f   libucrt:errno.obj
 0001:00047e9c       __acrt_errno_map_os_error  0000000180048e9c f   libucrt:errno.obj
 0001:00047eec       __doserrno                 0000000180048eec f   libucrt:errno.obj
 0001:00047f0c       _errno                     0000000180048f0c f   libucrt:errno.obj
 0001:00047f2c       _set_errno                 0000000180048f2c f   libucrt:errno.obj
 0001:00047f68       _mkdir                     0000000180048f68 f   libucrt:mkdir.obj
 0001:00047fb4       malloc                     0000000180048fb4 f   libucrt:malloc.obj
 0001:00047fbc       _fputc_nolock              0000000180048fbc f   libucrt:fputc.obj
 0001:00047fd4       fputc                      0000000180048fd4 f   libucrt:fputc.obj
 0001:000480f4       __acrt_stdio_flush_nolock  00000001800490f4 f   libucrt:fflush.obj
 0001:0004816c       _fflush_nolock             000000018004916c f   libucrt:fflush.obj
 0001:000481b8       _flushall                  00000001800491b8 f   libucrt:fflush.obj
 0001:000482a8       fflush                     00000001800492a8 f   libucrt:fflush.obj
 0001:000482ec       _fgetc_nolock              00000001800492ec f   libucrt:fgetc.obj
 0001:00048330       fgetc                      0000000180049330 f   libucrt:fgetc.obj
 0001:00048bdc       _stat64i32                 0000000180049bdc f   libucrt:stat.obj
 0001:00048c34       __acrt_initialize_stdio    0000000180049c34 f   libucrt:_file.obj
 0001:00048d54       __acrt_iob_func            0000000180049d54 f   libucrt:_file.obj
 0001:00048d68       __acrt_uninitialize_stdio  0000000180049d68 f   libucrt:_file.obj
 0001:00048dc4       _get_stream_buffer_pointers 0000000180049dc4 f   libucrt:_file.obj
 0001:00048e0c       _lock_file                 0000000180049e0c f   libucrt:_file.obj
 0001:00048e18       _unlock_file               0000000180049e18 f   libucrt:_file.obj
 0001:00048e24       fgetpos                    0000000180049e24 f   libucrt:fgetpos.obj
 0001:00048e70       ??$?RV<lambda_7a5ef57ff966f610505f1d28a3d40618>@@AEAV<lambda_b721fa326cdb32351d23dfa67958c160>@@V<lambda_5e0fb27672408a07956fe59e48ccb2aa>@@@?$__crt_seh_guarded_call@H@@QEAAH$$QEAV<lambda_7a5ef57ff966f610505f1d28a3d40618>@@AEAV<lambda_b721fa326cdb32351d23dfa67958c160>@@$$QEAV<lambda_5e0fb27672408a07956fe59e48ccb2aa>@@@Z 0000000180049e70 f i libucrt:setvbuf.obj
 0001:00048fa0       setvbuf                    0000000180049fa0 f   libucrt:setvbuf.obj
 0001:00049040       ldexp                      000000018004a040 f   libucrt:ldexp.obj
 0001:000491b4       _ungetc_nolock             000000018004a1b4 f   libucrt:ungetc.obj
 0001:000492c4       ungetc                     000000018004a2c4 f   libucrt:ungetc.obj
 0001:00049324       fsetpos                    000000018004a324 f   libucrt:fsetpos.obj
 0001:000495d0       _fseeki64                  000000018004a5d0 f   libucrt:fseek.obj
 0001:000495d8       fseek                      000000018004a5d8 f   libucrt:fseek.obj
 0001:000497dc       _utime64                   000000018004a7dc f   libucrt:utime.obj
 0001:00049870       strnlen                    000000018004a870 f   libucrt:strnlen.obj
 0001:000499cc       wcsnlen                    000000018004a9cc f   libucrt:strnlen.obj
 0001:00049dec       __acrt_initialize_thread_local_exit_callback 000000018004adec f   libucrt:exit.obj
 0001:00049df4       _cexit                     000000018004adf4 f   libucrt:exit.obj
 0001:00049e04       _exit                      000000018004ae04 f   libucrt:exit.obj
 0001:00049e10       _is_c_termination_complete 000000018004ae10 f   libucrt:exit.obj
 0001:00049e18       exit                       000000018004ae18 f   libucrt:exit.obj
 0001:00049e24       feof                       000000018004ae24 f   libucrt:feoferr.obj
 0001:00049e50       ferror                     000000018004ae50 f   libucrt:feoferr.obj
 0001:0004a338       _ftelli64                  000000018004b338 f   libucrt:ftell.obj
 0001:0004a340       _ftelli64_nolock           000000018004b340 f   libucrt:ftell.obj
 0001:0004a348       _fread_nolock_s            000000018004b348 f   libucrt:fread.obj
 0001:0004a5c8       fread                      000000018004b5c8 f   libucrt:fread.obj
 0001:0004a5e8       fread_s                    000000018004b5e8 f   libucrt:fread.obj
 0001:0004a690       wcsncpy_s                  000000018004b690 f   libucrt:wcsncpy_s.obj
 0001:0004a774       rand                       000000018004b774 f   libucrt:rand.obj
 0001:0004a7a0       srand                      000000018004b7a0 f   libucrt:rand.obj
 0001:0004a850       _time64                    000000018004b850 f   libucrt:time.obj
 0001:0004a890       __acrt_initialize_locks    000000018004b890 f   libucrt:locks.obj
 0001:0004a8d8       __acrt_lock                000000018004b8d8 f   libucrt:locks.obj
 0001:0004a8f4       __acrt_uninitialize_locks  000000018004b8f4 f   libucrt:locks.obj
 0001:0004a92c       __acrt_unlock              000000018004b92c f   libucrt:locks.obj
 0001:0004a948       _lock_locales              000000018004b948 f   libucrt:locks.obj
 0001:0004a958       _unlock_locales            000000018004b958 f   libucrt:locks.obj
 0001:0004aa50       setlocale                  000000018004ba50 f   libucrt:setlocale.obj
 0001:0004ac1c       _calloc_base               000000018004bc1c f   libucrt:calloc_base.obj
 0001:0004ac94       __pctype_func              000000018004bc94 f   libucrt:ctype.obj
 0001:0004acc4       isalnum                    000000018004bcc4 f i libucrt:_ctype.obj
 0001:0004ad40       isdigit                    000000018004bd40 f i libucrt:_ctype.obj
 0001:0004adb4       islower                    000000018004bdb4 f i libucrt:_ctype.obj
 0001:0004ae28       isspace                    000000018004be28 f i libucrt:_ctype.obj
 0001:0004ae9c       isupper                    000000018004be9c f i libucrt:_ctype.obj
 0001:0004af10       isxdigit                   000000018004bf10 f i libucrt:_ctype.obj
 0001:0004af8c       _wcsdup                    000000018004bf8c f   libucrt:wcsdup.obj
 0001:0004b010       ___lc_codepage_func        000000018004c010 f   libucrt:initctype.obj
 0001:0004b040       ___lc_locale_name_func     000000018004c040 f   libucrt:initctype.obj
 0001:0004b074       ___mb_cur_max_func         000000018004c074 f   libucrt:initctype.obj
 0001:0004b0a4       __acrt_locale_initialize_ctype 000000018004c0a4 f   libucrt:initctype.obj
 0001:0004b6f0       _ismbblead                 000000018004c6f0 f   libucrt:ismbbyte.obj
 0001:0004b7a4       _tolower_l                 000000018004c7a4 f   libucrt:tolower_toupper.obj
 0001:0004b8e4       _toupper_l                 000000018004c8e4 f   libucrt:tolower_toupper.obj
 0001:0004ba24       tolower                    000000018004ca24 f   libucrt:tolower_toupper.obj
 0001:0004ba50       toupper                    000000018004ca50 f   libucrt:tolower_toupper.obj
 0001:0004ba7c       _malloc_base               000000018004ca7c f   libucrt:malloc_base.obj
 0001:0004badc       _realloc_base              000000018004cadc f   libucrt:realloc_base.obj
 0001:0004bb60       __strncnt                  000000018004cb60 f   libucrt:strncnt.obj
 0001:0004bb78       _free_base                 000000018004cb78 f   libucrt:free_base.obj
 0001:0004bbb8       ??$__crt_time_is_leap_year@H@@YA_NH@Z 000000018004cbb8 f i libucrt:wcsftime.obj
 0001:0004bc14       wcscpy_s                   000000018004cc14 f   libucrt:wcscpy_s.obj
 0001:0004bc7c       __acrt_initialize_new_handler 000000018004cc7c f   libucrt:new_handler.obj
 0001:0004bc84       _callnewh                  000000018004cc84 f   libucrt:new_handler.obj
 0001:0004bcc4       _query_new_handler         000000018004ccc4 f   libucrt:new_handler.obj
 0001:0004bcf8       _seh_filter_dll            000000018004ccf8 f   libucrt:exception_filter.obj
 0001:0004bd0c       _seh_filter_exe            000000018004cd0c f   libucrt:exception_filter.obj
 0001:0004c19c       __dcrt_get_or_create_narrow_environment_nolock 000000018004d19c f   libucrt:environment_initialization.obj
 0001:0004c1a4       __dcrt_uninitialize_environments_nolock 000000018004d1a4 f   libucrt:environment_initialization.obj
 0001:0004c1dc       _initialize_narrow_environment 000000018004d1dc f   libucrt:environment_initialization.obj
 0001:0004c1e4       ??$?RV<lambda_b8c45f8f788dd370798f47cfe8ac3a86>@@AEAV<lambda_4e60a939b0d047cfe11ddc22648dfba9>@@V<lambda_332c3edc96d0294ec56c57d38c1cdfd5>@@@?$__crt_seh_guarded_call@H@@QEAAH$$QEAV<lambda_b8c45f8f788dd370798f47cfe8ac3a86>@@AEAV<lambda_4e60a939b0d047cfe11ddc22648dfba9>@@$$QEAV<lambda_332c3edc96d0294ec56c57d38c1cdfd5>@@@Z 000000018004d1e4 f i libucrt:onexit.obj
 0001:0004c220       ??$?RV<lambda_e24bbb7b643b32fcea6fa61b31d4c984>@@AEAV<lambda_275893d493268fdec8709772e3fcec0e>@@V<lambda_9d71df4d7cf3f480f8d633942495c3b0>@@@?$__crt_seh_guarded_call@H@@QEAAH$$QEAV<lambda_e24bbb7b643b32fcea6fa61b31d4c984>@@AEAV<lambda_275893d493268fdec8709772e3fcec0e>@@$$QEAV<lambda_9d71df4d7cf3f480f8d633942495c3b0>@@@Z 000000018004d220 f i libucrt:onexit.obj
 0001:0004c59c       _crt_atexit                000000018004d59c f   libucrt:onexit.obj
 0001:0004c5ac       _execute_onexit_table      000000018004d5ac f   libucrt:onexit.obj
 0001:0004c5e8       _initialize_onexit_table   000000018004d5e8 f   libucrt:onexit.obj
 0001:0004c628       _register_onexit_function  000000018004d628 f   libucrt:onexit.obj
 0001:0004c7a4       __acrt_initialize          000000018004d7a4 f   libucrt:initialization.obj
 0001:0004c7b8       __acrt_thread_attach       000000018004d7b8 f   libucrt:initialization.obj
 0001:0004c7cc       __acrt_thread_detach       000000018004d7cc f   libucrt:initialization.obj
 0001:0004c7dc       __acrt_uninitialize        000000018004d7dc f   libucrt:initialization.obj
 0001:0004c7f0       __acrt_uninitialize_critical 000000018004d7f0 f   libucrt:initialization.obj
 0001:0004c800       _initterm                  000000018004d800 f   libucrt:initterm.obj
 0001:0004c878       _initterm_e                000000018004d878 f   libucrt:initterm.obj
 0001:0004c8c4       terminate                  000000018004d8c4 f   libucrt:terminate.obj
 0001:0004c8ec       strcpy_s                   000000018004d8ec f   libucrt:strcpy_s.obj
 0001:0004c94c       ??$is_overflow_condition@K@__crt_strtox@@YA_NIK@Z 000000018004d94c f i libucrt:atox.obj
 0001:0004c978       ??$parse_integer@KV?$c_string_character_source@D@__crt_strtox@@@__crt_strtox@@YAKQEAU__crt_locale_pointers@@V?$c_string_character_source@D@0@H_N@Z 000000018004d978 f i libucrt:atox.obj
 0001:0004cc8c       ??$parse_integer@KV?$c_string_character_source@_W@__crt_strtox@@@__crt_strtox@@YAKQEAU__crt_locale_pointers@@V?$c_string_character_source@_W@0@H_N@Z 000000018004dc8c f i libucrt:atox.obj
 0001:0004d360       _wtol                      000000018004e360 f   libucrt:atox.obj
 0001:0004d38c       atol                       000000018004e38c f   libucrt:atox.obj
 0001:0004d3b8       ??$?RV<lambda_46352004c1216016012b18bd6f87e700>@@AEAV<lambda_3bd07e1a1191394380780325891bf33f>@@V<lambda_334532d3f185bcaa59b5be82d7d22bff>@@@?$__crt_seh_guarded_call@X@@QEAAX$$QEAV<lambda_46352004c1216016012b18bd6f87e700>@@AEAV<lambda_3bd07e1a1191394380780325891bf33f>@@$$QEAV<lambda_334532d3f185bcaa59b5be82d7d22bff>@@@Z 000000018004e3b8 f i libucrt:per_thread_data.obj
 0001:0004d418       ??$?RV<lambda_5e887d1dcbef67a5eb4283622ba103bf>@@AEAV<lambda_4466841279450cc726390878d4a41900>@@V<lambda_341c25c0346d94847f1f3c463c57e077>@@@?$__crt_seh_guarded_call@X@@QEAAX$$QEAV<lambda_5e887d1dcbef67a5eb4283622ba103bf>@@AEAV<lambda_4466841279450cc726390878d4a41900>@@$$QEAV<lambda_341c25c0346d94847f1f3c463c57e077>@@@Z 000000018004e418 f i libucrt:per_thread_data.obj
 0001:0004d460       ??$?RV<lambda_72d1df2b273a38828b1ce30cbf4cdab5>@@AEAV<lambda_876a65b173b8412d3a47c70a915b0cf4>@@V<lambda_41932305e351933ebe8f8be3ed8bb5dc>@@@?$__crt_seh_guarded_call@X@@QEAAX$$QEAV<lambda_72d1df2b273a38828b1ce30cbf4cdab5>@@AEAV<lambda_876a65b173b8412d3a47c70a915b0cf4>@@$$QEAV<lambda_41932305e351933ebe8f8be3ed8bb5dc>@@@Z 000000018004e460 f i libucrt:per_thread_data.obj
 0001:0004d4a0       ??$?RV<lambda_fb3a7dec4e47f37f22dae91bb15c9095>@@AEAV<lambda_698284760c8add0bfb0756c19673e34b>@@V<lambda_dfb8eca1e75fef3034a8fb18dd509707>@@@?$__crt_seh_guarded_call@X@@QEAAX$$QEAV<lambda_fb3a7dec4e47f37f22dae91bb15c9095>@@AEAV<lambda_698284760c8add0bfb0756c19673e34b>@@$$QEAV<lambda_dfb8eca1e75fef3034a8fb18dd509707>@@@Z 000000018004e4a0 f i libucrt:per_thread_data.obj
 0001:0004d730       __acrt_freeptd             000000018004e730 f   libucrt:per_thread_data.obj
 0001:0004d774       __acrt_getptd              000000018004e774 f   libucrt:per_thread_data.obj
 0001:0004d808       __acrt_getptd_noexit       000000018004e808 f   libucrt:per_thread_data.obj
 0001:0004d8a8       __acrt_initialize_ptd      000000018004e8a8 f   libucrt:per_thread_data.obj
 0001:0004d8e4       __acrt_uninitialize_ptd    000000018004e8e4 f   libucrt:per_thread_data.obj
 0001:0004d908       _query_app_type            000000018004e908 f   libucrt:report_runtime_error.obj
 0001:0004da38       _itow_s                    000000018004ea38 f   libucrt:xtoa.obj
 0001:0004da58       _set_error_mode            000000018004ea58 f   libucrt:set_error_mode.obj
 0001:0004da98       wcscat_s                   000000018004ea98 f   libucrt:wcscat_s.obj
 0001:0004db18       wcsncat_s                  000000018004eb18 f   libucrt:wcsncat_s.obj
 0001:0004dc40       __acrt_show_wide_message_box 000000018004ec40 f   libucrt:crtmbox.obj
 0001:0004dd5c       ??$?RV<lambda_c36588078e9f5dfd39652860aa6b3aaf>@@AEAV<lambda_ec61778202f4f5fc7e7711acc23c3bca>@@V<lambda_dc9d2797ccde5d239b4a0efae8ebd7db>@@@?$__crt_seh_guarded_call@P6AXH@Z@@QEAAP6AXH@Z$$QEAV<lambda_c36588078e9f5dfd39652860aa6b3aaf>@@AEAV<lambda_ec61778202f4f5fc7e7711acc23c3bca>@@$$QEAV<lambda_dc9d2797ccde5d239b4a0efae8ebd7db>@@@Z 000000018004ed5c f i libucrt:signal.obj
 0001:0004dda4       __acrt_get_sigabrt_handler 000000018004eda4 f   libucrt:signal.obj
 0001:0004ddd4       __acrt_initialize_signal_handlers 000000018004edd4 f   libucrt:signal.obj
 0001:0004ddf4       raise                      000000018004edf4 f   libucrt:signal.obj
 0001:0004e090       ??$make_c_string_character_source@D$$T@__crt_strtox@@YA?AV?$c_string_character_source@D@0@QEBD$$T@Z 000000018004f090 f i libucrt:atox.obj
 0001:0004e090       ??$make_c_string_character_source@_WPEAPEA_W@__crt_strtox@@YA?AV?$c_string_character_source@_W@0@QEB_WQEAPEA_W@Z 000000018004f090 f i libucrt:strtox.obj
 0001:0004e090       ??$make_c_string_character_source@DPEAPEAD@__crt_strtox@@YA?AV?$c_string_character_source@D@0@QEBDQEAPEAD@Z 000000018004f090 f i libucrt:strtox.obj
 0001:0004e090       ??$make_c_string_character_source@_W$$T@__crt_strtox@@YA?AV?$c_string_character_source@_W@0@QEB_W$$T@Z 000000018004f090 f i libucrt:atox.obj
 0001:0004e0a4       strtol                     000000018004f0a4 f   libucrt:strtox.obj
 0001:0004e0d4       wcstol                     000000018004f0d4 f   libucrt:strtox.obj
 0001:0004e104       _mbtowc_l                  000000018004f104 f   libucrt:mbtowc.obj
 0001:0004e24c       mbtowc                     000000018004f24c f   libucrt:mbtowc.obj
 0001:0004e254       _wctomb_s_l                000000018004f254 f   libucrt:wctomb.obj
 0001:0004e3d8       wctomb_s                   000000018004f3d8 f   libucrt:wctomb.obj
 0001:0004e3ec       __acrt_update_locale_info  000000018004f3ec f   libucrt:locale_update.obj
 0001:0004e420       __acrt_update_multibyte_info 000000018004f420 f   libucrt:locale_update.obj
 0001:0004e454       ?__acrt_fp_classify@@YA?AW4__acrt_fp_class@@AEBN@Z 000000018004f454 f i libucrt:cvt.obj
 0001:0004ee8c       __acrt_fp_format           000000018004fe8c f   libucrt:cvt.obj
 0001:0004f0d0       _fputwc_nolock             00000001800500d0 f   libucrt:fputwc.obj
 0001:0004f24c       _fileno                    000000018005024c f   libucrt:fileno.obj
 0001:0004f274       _get_printf_count_output   0000000180050274 f   libucrt:printf_count_output.obj
 0001:0004f28c       __acrt_stdio_begin_temporary_buffering_nolock 000000018005028c f   libucrt:_sftbuf.obj
 0001:0004f35c       __acrt_stdio_end_temporary_buffering_nolock 000000018005035c f   libucrt:_sftbuf.obj
 0001:0004f398       ??$?RV<lambda_5df02c53a8f32f81fd64e5bbb78039f1>@@AEAV<lambda_2af78c5f5901b1372d98f9ab3177dfa6>@@AEAV<lambda_f51fe5fd7c79a33db34fc9310f277369>@@@?$__crt_seh_guarded_call@X@@QEAAX$$QEAV<lambda_5df02c53a8f32f81fd64e5bbb78039f1>@@AEAV<lambda_2af78c5f5901b1372d98f9ab3177dfa6>@@AEAV<lambda_f51fe5fd7c79a33db34fc9310f277369>@@@Z 0000000180050398 f i libucrt:wsetlocale.obj
 0001:0004f3c4       ??$?RV<lambda_d67e8342c384adda8f857579ab50b2ae>@@AEAV<lambda_30712929f77e709619002f448b6a9510>@@V<lambda_4525336fd7e478d965fb7ca7a337cad8>@@@?$__crt_seh_guarded_call@X@@QEAAX$$QEAV<lambda_d67e8342c384adda8f857579ab50b2ae>@@AEAV<lambda_30712929f77e709619002f448b6a9510>@@$$QEAV<lambda_4525336fd7e478d965fb7ca7a337cad8>@@@Z 00000001800503c4 f i libucrt:wsetlocale.obj
 0001:0004f590       __acrt_copy_locale_name    0000000180050590 f   libucrt:wsetlocale.obj
 0001:0004f614       __acrt_set_locale_changed  0000000180050614 f   libucrt:wsetlocale.obj
 0001:0004f620       __acrt_uninitialize_locale 0000000180050620 f   libucrt:wsetlocale.obj
 0001:0004f668       __lc_lctowcs               0000000180050668 f   libucrt:wsetlocale.obj
 0001:0004f70c       __lc_wcstolc               000000018005070c f   libucrt:wsetlocale.obj
 0001:0004f984       _expandlocale              0000000180050984 f   libucrt:wsetlocale.obj
 0001:0004fd80       _wcscats                   0000000180050d80 f   libucrt:wsetlocale.obj
 0001:0004fde8       _wsetlocale                0000000180050de8 f   libucrt:wsetlocale.obj
 0001:0005081c       __acrt_initialize_lowio    000000018005181c f   libucrt:ioinit.obj
 0001:00050858       __acrt_uninitialize_lowio  0000000180051858 f   libucrt:ioinit.obj
 0001:00050898       _dsign                     0000000180051898 f   libucrt:nan.obj
 0001:000508b0       _errcode                   00000001800518b0 f   libucrt:fpexcept.obj
 0001:000508f4       _except1                   00000001800518f4 f   libucrt:fpexcept.obj
 0001:000509e8       _except2                   00000001800519e8 f   libucrt:fpexcept.obj
 0001:00050af0       _handle_exc                0000000180051af0 f   libucrt:fpexcept.obj
 0001:00050d58       _handle_qnan2              0000000180051d58 f   libucrt:fpexcept.obj
 0001:00050d60       _raise_exc                 0000000180051d60 f   libucrt:fpexcept.obj
 0001:00050d88       _raise_exc_ex              0000000180051d88 f   libucrt:fpexcept.obj
 0001:00051090       _set_errno_from_matherr    0000000180052090 f   libucrt:fpexcept.obj
 0001:000510c0       _umatherr                  00000001800520c0 f   libucrt:fpexcept.obj
 0001:00051194       _decomp                    0000000180052194 f   libucrt:util.obj
 0001:000512c8       _set_exp                   00000001800522c8 f   libucrt:util.obj
 0001:00051300       _sptype                    0000000180052300 f   libucrt:util.obj
 0001:00051374       _clrfp                     0000000180052374 f   libucrt:fpctrl.obj
 0001:00051394       _ctrlfp                    0000000180052394 f   libucrt:fpctrl.obj
 0001:00051410       _set_statfp                0000000180052410 f   libucrt:fpctrl.obj
 0001:00051430       _statfp                    0000000180052430 f   libucrt:fpctrl.obj
 0001:00051444       ?__acrt_stdio_allocate_stream@@YA?AV__crt_stdio_stream@@XZ 0000000180052444 f   libucrt:stream.obj
 0001:000514a0       ?__acrt_stdio_free_stream@@YAXV__crt_stdio_stream@@@Z 00000001800524a0 f   libucrt:stream.obj
 0001:000515d0       ??$__acrt_stdio_parse_mode@D@@YA?AU__acrt_stdio_stream_mode@@QEBD@Z 00000001800525d0 f i libucrt:openfile.obj
 0001:0005186c       _openfile                  000000018005286c f   libucrt:openfile.obj
 0001:00051908       ??$?RV<lambda_bfedae4ebbf01fab1bb6dcc6a9e276e0>@@AEAV<lambda_2fe9b910cf3cbf4a0ab98a02ba45b3ec>@@V<lambda_237c231691f317818eb88cc1d5d642d6>@@@?$__crt_seh_guarded_call@H@@QEAAH$$QEAV<lambda_bfedae4ebbf01fab1bb6dcc6a9e276e0>@@AEAV<lambda_2fe9b910cf3cbf4a0ab98a02ba45b3ec>@@$$QEAV<lambda_237c231691f317818eb88cc1d5d642d6>@@@Z 0000000180052908 f i libucrt:close.obj
 0001:0005197c       _close                     000000018005297c f   libucrt:close.obj
 0001:00051a20       _close_nolock              0000000180052a20 f   libucrt:close.obj
 0001:00051adc       __acrt_stdio_free_buffer_nolock 0000000180052adc f   libucrt:_freebuf.obj
 0001:000520bc       _write                     00000001800530bc f   libucrt:write.obj
 0001:000521a8       _write_nolock              00000001800531a8 f   libucrt:write.obj
 0001:0005269c       __acrt_stdio_flush_and_write_narrow_nolock 000000018005369c f   libucrt:_flsbuf.obj
 0001:00052784       __acrt_stdio_flush_and_write_wide_nolock 0000000180053784 f   libucrt:_flsbuf.obj
 0001:00052870       __acrt_copy_path_to_wide_string 0000000180053870 f   libucrt:string_utilities.obj
 0001:00052968       _wmkdir                    0000000180053968 f   libucrt:wmkdir.obj
 0001:00052994       ??$?RV<lambda_b521505b218e5242e90febf6bfebc422>@@AEAV<lambda_6978c1fb23f02e42e1d9e99668cc68aa>@@V<lambda_314360699dd331753a4119843814e9a7>@@@?$__crt_seh_guarded_call@H@@QEAAH$$QEAV<lambda_b521505b218e5242e90febf6bfebc422>@@AEAV<lambda_6978c1fb23f02e42e1d9e99668cc68aa>@@$$QEAV<lambda_314360699dd331753a4119843814e9a7>@@@Z 0000000180053994 f i libucrt:commit.obj
 0001:00052a20       _commit                    0000000180053a20 f   libucrt:commit.obj
 0001:00052c5c       __acrt_stdio_refill_and_read_narrow_nolock 0000000180053c5c f   libucrt:_filbuf.obj
 0001:00052c64       _getdrive                  0000000180053c64 f   libucrt:drive.obj
 0001:00052de0       _wfullpath                 0000000180053de0 f   libucrt:fullpath.obj
 0001:00052ec4       wcspbrk                    0000000180053ec4 f   libucrt:wcspbrk.obj
 0001:00052efc       _wcsicmp                   0000000180053efc f   libucrt:wcsicmp.obj
 0001:00052f84       _wcsicmp_l                 0000000180053f84 f   libucrt:wcsicmp.obj
 0001:000530b8       ??$?RV<lambda_630b2aca97f6d20d5b5ea6529ea6b6af>@@AEAV<lambda_af91936f1d075d609f72d9d8cba980af>@@V<lambda_e82fa975f615b5c7c7b0e4d178fdae67>@@@?$__crt_seh_guarded_call@H@@QEAAH$$QEAV<lambda_630b2aca97f6d20d5b5ea6529ea6b6af>@@AEAV<lambda_af91936f1d075d609f72d9d8cba980af>@@$$QEAV<lambda_e82fa975f615b5c7c7b0e4d178fdae67>@@@Z 00000001800540b8 f i libucrt:winapi_thunks.obj
 0001:000532f0       __acrt_AreFileApisANSI     00000001800542f0 f   libucrt:winapi_thunks.obj
 0001:0005333c       __acrt_CompareStringEx     000000018005433c f   libucrt:winapi_thunks.obj
 0001:0005342c       __acrt_EnumSystemLocalesEx 000000018005442c f   libucrt:winapi_thunks.obj
 0001:000534d4       __acrt_FlsAlloc            00000001800544d4 f   libucrt:winapi_thunks.obj
 0001:0005352c       __acrt_FlsFree             000000018005452c f   libucrt:winapi_thunks.obj
 0001:00053584       __acrt_FlsGetValue         0000000180054584 f   libucrt:winapi_thunks.obj
 0001:000535dc       __acrt_FlsSetValue         00000001800545dc f   libucrt:winapi_thunks.obj
 0001:00053644       __acrt_GetFileInformationByHandleEx 0000000180054644 f   libucrt:winapi_thunks.obj
 0001:000536d0       __acrt_GetLocaleInfoEx     00000001800546d0 f   libucrt:winapi_thunks.obj
 0001:00053768       __acrt_GetSystemTimePreciseAsFileTime 0000000180054768 f   libucrt:winapi_thunks.obj
 0001:000537c0       __acrt_GetUserDefaultLocaleName 00000001800547c0 f   libucrt:winapi_thunks.obj
 0001:00053834       __acrt_InitializeCriticalSectionEx 0000000180054834 f   libucrt:winapi_thunks.obj
 0001:000538ac       __acrt_IsValidLocaleName   00000001800548ac f   libucrt:winapi_thunks.obj
 0001:00053914       __acrt_LCIDToLocaleName    0000000180054914 f   libucrt:winapi_thunks.obj
 0001:000539a0       __acrt_LCMapStringEx       00000001800549a0 f   libucrt:winapi_thunks.obj
 0001:00053a90       __acrt_LocaleNameToLCID    0000000180054a90 f   libucrt:winapi_thunks.obj
 0001:00053af8       __acrt_MessageBoxW         0000000180054af8 f   libucrt:winapi_thunks.obj
 0001:00053b80       __acrt_can_show_message_box 0000000180054b80 f   libucrt:winapi_thunks.obj
 0001:00053bdc       __acrt_can_use_vista_locale_apis 0000000180054bdc f   libucrt:winapi_thunks.obj
 0001:00053c0c       __acrt_get_parent_window   0000000180054c0c f   libucrt:winapi_thunks.obj
 0001:00053c9c       __acrt_initialize_winapi_thunks 0000000180054c9c f   libucrt:winapi_thunks.obj
 0001:00053cd4       __acrt_is_interactive      0000000180054cd4 f   libucrt:winapi_thunks.obj
 0001:00053da8       __acrt_is_packaged_app     0000000180054da8 f   libucrt:winapi_thunks.obj
 0001:00053e30       __acrt_uninitialize_winapi_thunks 0000000180054e30 f   libucrt:winapi_thunks.obj
 0001:00053e74       __acrt_lowio_create_handle_array 0000000180054e74 f   libucrt:osfinfo.obj
 0001:00053f0c       __acrt_lowio_destroy_handle_array 0000000180054f0c f   libucrt:osfinfo.obj
 0001:00053f5c       __acrt_lowio_ensure_fh_exists 0000000180054f5c f   libucrt:osfinfo.obj
 0001:00054014       __acrt_lowio_lock_fh       0000000180055014 f   libucrt:osfinfo.obj
 0001:00054038       __acrt_lowio_set_os_handle 0000000180055038 f   libucrt:osfinfo.obj
 0001:000540f8       __acrt_lowio_unlock_fh     00000001800550f8 f   libucrt:osfinfo.obj
 0001:0005411c       _alloc_osfhnd              000000018005511c f   libucrt:osfinfo.obj
 0001:0005424c       _free_osfhnd               000000018005524c f   libucrt:osfinfo.obj
 0001:00054308       _get_osfhandle             0000000180055308 f   libucrt:osfinfo.obj
 0001:000545ec       __loctotime64_t            00000001800555ec f   libucrt:loctotime.obj
 0001:000545f4       _fcloseall                 00000001800555f4 f   libucrt:closeall.obj
 0001:000546a8       _copysign                  00000001800556a8 f   libucrt:_copysign.obj
 0001:000546e0       __acrt_stdio_allocate_buffer_nolock 00000001800556e0 f   libucrt:_getbuf.obj
 0001:000548d0       _lseeki64                  00000001800558d0 f   libucrt:lseek.obj
 0001:000548d8       _lseeki64_nolock           00000001800558d8 f   libucrt:lseek.obj
 0001:00054f24       _sopen_nolock              0000000180055f24 f   libucrt:open.obj
 0001:00054fb4       _sopen_s                   0000000180055fb4 f   libucrt:open.obj
 0001:00054fe8       _wsopen_nolock             0000000180055fe8 f   libucrt:open.obj
 0001:000556f4       _localtime64_s             00000001800566f4 f   libucrt:localtime.obj
 0001:00055c2c       _read                      0000000180056c2c f   libucrt:read.obj
 0001:00055d44       _read_nolock               0000000180056d44 f   libucrt:read.obj
 0001:00056388       _mbstowcs_s_l              0000000180057388 f   libucrt:mbstowcs.obj
 0001:000564b8       mbstowcs_s                 00000001800574b8 f   libucrt:mbstowcs.obj
 0001:0005680c       _wcstombs_s_l              000000018005780c f   libucrt:wcstombs.obj
 0001:000568f8       _query_new_mode            00000001800578f8 f   libucrt:new_mode.obj
 0001:00056900       __acrt_initialize_heap     0000000180057900 f   libucrt:heap_handle.obj
 0001:0005691c       __acrt_uninitialize_heap   000000018005791c f   libucrt:heap_handle.obj
 0001:00056928       _isctype_l                 0000000180057928 f   libucrt:isctype.obj
 0001:00056bd8       __acrt_GetLocaleInfoA      0000000180057bd8 f   libucrt:getlocaleinfoa.obj
 0001:00056da0       __acrt_GetStringTypeA      0000000180057da0 f   libucrt:getstringtypea.obj
 0001:000572b0       __acrt_LCMapStringA        00000001800582b0 f   libucrt:lcmapstringa.obj
 0001:00057348       _isleadbyte_l              0000000180058348 f i libucrt:_wctype.obj
 0001:000574ac       _handle_error              00000001800584ac f   libucrt:libm_error.obj
 0001:000575d4       _handle_nan                00000001800585d4 f   libucrt:libm_error.obj
 0001:000575f0       __acrt_initialize_timeset  00000001800585f0 f   libucrt:timeset.obj
 0001:00057620       __daylight                 0000000180058620 f   libucrt:timeset.obj
 0001:00057628       __dstbias                  0000000180058628 f   libucrt:timeset.obj
 0001:00057630       __timezone                 0000000180058630 f   libucrt:timeset.obj
 0001:00057638       __tzname                   0000000180058638 f   libucrt:timeset.obj
 0001:00057640       _get_daylight              0000000180058640 f   libucrt:timeset.obj
 0001:00057670       _get_dstbias               0000000180058670 f   libucrt:timeset.obj
 0001:000576a0       _get_timezone              00000001800586a0 f   libucrt:timeset.obj
 0001:0005810c       __tzset                    000000018005910c f   libucrt:tzset.obj
 0001:00058148       _isindst                   0000000180059148 f   libucrt:tzset.obj
 0001:00058178       ??$?RV<lambda_99476a1ad63dd22509b5d3e65b0ffc95>@@AEAV<lambda_ad1ced32f4ac17aa236e5ef05d6b3b7c>@@V<lambda_f7424dd8d45958661754dc4f2697e9c3>@@@?$__crt_seh_guarded_call@X@@QEAAX$$QEAV<lambda_99476a1ad63dd22509b5d3e65b0ffc95>@@AEAV<lambda_ad1ced32f4ac17aa236e5ef05d6b3b7c>@@$$QEAV<lambda_f7424dd8d45958661754dc4f2697e9c3>@@@Z 0000000180059178 f i libucrt:mbctype.obj
 0001:00058874       __acrt_initialize_multibyte 0000000180059874 f   libucrt:mbctype.obj
 0001:0005889c       __acrt_update_thread_multibyte_data 000000018005989c f   libucrt:mbctype.obj
 0001:0005895c       _setmbcp_nolock            000000018005995c f   libucrt:mbctype.obj
 0001:00058c04       __dcrt_get_narrow_environment_from_os 0000000180059c04 f   libucrt:get_environment_from_os.obj
 0001:000590e4       __dcrt_set_variable_in_narrow_environment_nolock 000000018005a0e4 f   libucrt:setenv.obj
 0001:000590ec       _recalloc                  000000018005a0ec f   libucrt:recalloc.obj
 0001:000590f4       _recalloc_base             000000018005a0f4 f   libucrt:recalloc.obj
 0001:0005918c       __acrt_initialize_command_line 000000018005a18c f   libucrt:argv_data.obj
 0001:000591b4       __acrt_execute_initializers 000000018005a1b4 f   libucrt:shared_initialization.obj
 0001:00059248       __acrt_execute_uninitializers 000000018005a248 f   libucrt:shared_initialization.obj
 0001:00059298       __acrt_has_user_matherr    000000018005a298 f   libucrt:matherr.obj
 0001:000592b8       __acrt_initialize_user_matherr 000000018005a2b8 f   libucrt:matherr.obj
 0001:000592c0       __acrt_invoke_user_matherr 000000018005a2c0 f   libucrt:matherr.obj
 0001:00059308       iswctype                   000000018005a308 f   libucrt:iswctype.obj
 0001:00059378       __acrt_add_locale_ref      000000018005a378 f   libucrt:locale_refcounting.obj
 0001:00059404       __acrt_free_locale         000000018005a404 f   libucrt:locale_refcounting.obj
 0001:0005957c       __acrt_locale_add_lc_time_reference 000000018005a57c f   libucrt:locale_refcounting.obj
 0001:000595a4       __acrt_locale_free_lc_time_if_unreferenced 000000018005a5a4 f   libucrt:locale_refcounting.obj
 0001:000595dc       __acrt_locale_release_lc_time_reference 000000018005a5dc f   libucrt:locale_refcounting.obj
 0001:00059604       __acrt_release_locale_ref  000000018005a604 f   libucrt:locale_refcounting.obj
 0001:000596ac       __acrt_update_thread_locale_data 000000018005a6ac f   libucrt:locale_refcounting.obj
 0001:0005971c       _updatetlocinfoEx_nolock   000000018005a71c f   libucrt:locale_refcounting.obj
 0001:00059784       __acrt_fp_strflt_to_string 000000018005a784 f   libucrt:_fptostr.obj
 0001:00059850       ?divide@__crt_strtox@@YA_KAEAUbig_integer@1@AEBU21@@Z 000000018005a850 f i libucrt:cfout.obj
 0001:00059d20       __acrt_fltout              000000018005ad20 f   libucrt:cfout.obj
 0001:0005b114       _isatty                    000000018005c114 f   libucrt:isatty.obj
 0001:0005b174       __acrt_locale_free_monetary 000000018005c174 f   libucrt:initmon.obj
 0001:0005b280       __acrt_locale_initialize_monetary 000000018005c280 f   libucrt:initmon.obj
 0001:0005b7b8       __acrt_locale_free_numeric 000000018005c7b8 f   libucrt:initnum.obj
 0001:0005b824       __acrt_locale_initialize_numeric 000000018005c824 f   libucrt:initnum.obj
 0001:0005bea8       __acrt_locale_free_time    000000018005cea8 f   libucrt:inittime.obj
 0001:0005bfb0       __acrt_locale_initialize_time 000000018005cfb0 f   libucrt:inittime.obj
 0001:0005c044       wcscspn                    000000018005d044 f   libucrt:wcscspn.obj
 0001:0005c084       wcsncmp                    000000018005d084 f   libucrt:wcsncmp.obj
 0001:0005c91c       __acrt_get_qualified_locale 000000018005d91c f   libucrt:get_qualified_locale.obj
 0001:0005d308       __acrt_get_qualified_locale_downlevel 000000018005e308 f   libucrt:getqloc_downlevel.obj
 0001:0005d5b0       _get_fpsr                  000000018005e5b0 f   libucrt:fpsr.obj
 0001:0005d5c0       _set_fpsr                  000000018005e5c0 f   libucrt:fpsr.obj
 0001:0005d5ca       _fclrf                     000000018005e5ca f   libucrt:fpsr.obj
 0001:0005d5de       _frnd                      000000018005e5de f   libucrt:fpsr.obj
 0001:0005d600       _wcsnicmp                  000000018005e600 f   libucrt:wcsnicmp.obj
 0001:0005d69c       _wcsnicmp_l                000000018005e69c f   libucrt:wcsnicmp.obj
 0001:0005d7d0       strncmp                    000000018005e7d0 f   libucrt:strncmp.obj
 0001:0005d850       __ascii_strnicmp           000000018005e850 f   libucrt:strnicmp.obj
 0001:0005d898       _strnicmp                  000000018005e898 f   libucrt:strnicmp.obj
 0001:0005d8e8       _strnicmp_l                000000018005e8e8 f   libucrt:strnicmp.obj
 0001:0005d9c4       _putwch_nolock             000000018005e9c4 f   libucrt:putwch.obj
 0001:0005dc60       _wgetcwd                   000000018005ec60 f   libucrt:getcwd.obj
 0001:0005dc88       _towlower_l                000000018005ec88 f   libucrt:towlower.obj
 0001:0005de14       __acrt_DownlevelLCIDToLocaleName 000000018005ee14 f   libucrt:lcidtoname_downlevel.obj
 0001:0005def8       __acrt_DownlevelLocaleNameToLCID 000000018005eef8 f   libucrt:lcidtoname_downlevel.obj
 0001:0005df2c       _get_fmode                 000000018005ef2c f   libucrt:setmode.obj
 0001:0005df5c       _setmode_nolock            000000018005ef5c f   libucrt:setmode.obj
 0001:0005e03c       _chsize_nolock             000000018005f03c f   libucrt:chsize.obj
 0001:0005e430       _gmtime64_s                000000018005f430 f   libucrt:gmtime.obj
 0001:0005e438       strncpy_s                  000000018005f438 f   libucrt:strncpy_s.obj
 0001:0005e694       getenv_s                   000000018005f694 f   libucrt:getenv.obj
 0001:0005e6b4       _strnicoll                 000000018005f6b4 f   libucrt:strnicol.obj
 0001:0005e6cc       _strnicoll_l               000000018005f6cc f   libucrt:strnicol.obj
 0001:0005e7cc       _msize                     000000018005f7cc f   libucrt:msize.obj
 0001:0005e808       fegetenv                   000000018005f808 f   libucrt:fegetenv.obj
 0001:0005e828       fesetenv                   000000018005f828 f   libucrt:fesetenv.obj
 0001:0005e874       feholdexcept               000000018005f874 f   libucrt:feholdexcept.obj
 0001:0005e8c4       ceil                       000000018005f8c4 f   libucrt:ceil.obj
 0001:0005e990       log10                      000000018005f990 f   libucrt:log10.obj
 0001:0005ef3c       wcscmp                     000000018005ff3c f   libucrt:wcscmp.obj
 0001:0005ef74       _getfpcontrolword          000000018005ff74 f   libucrt:_fenvutils.obj
 0001:0005ef8c       _getfpstatusword           000000018005ff8c f   libucrt:_fenvutils.obj
 0001:0005efa0       _setfpcontrolword          000000018005ffa0 f   libucrt:_fenvutils.obj
 0001:0005efac       _setfpstatusword           000000018005ffac f   libucrt:_fenvutils.obj
 0001:0005effc       __dcrt_lowio_initialize_console_output 000000018005fffc f   libucrt:initcon.obj
 0001:0005f038       __dcrt_terminate_console_output 0000000180060038 f   libucrt:initcon.obj
 0001:0005f058       __acrt_LCMapStringW        0000000180060058 f   libucrt:lcmapstringw.obj
 0001:0005f474       __acrt_CompareStringA      0000000180060474 f   libucrt:comparestringa.obj
 0001:0005f500       _clearfp                   0000000180060500 f   libucrt:ieee.obj
 0001:0005f554       _controlfp                 0000000180060554 f   libucrt:ieee.obj
 0001:0005f560       _statusfp                  0000000180060560 f   libucrt:ieee.obj
 0001:0005f840       __acrt_initialize_fma3     0000000180060840 f   libucrt:fma3_available.obj
 0001:0005f8b0       _log10_special             00000001800608b0 f   libucrt:log_special.obj
 0001:0005f966       IsProcessorFeaturePresent  0000000180060966 f   kernel32:KERNEL32.dll
 0001:0005f96c       RtlUnwindEx                000000018006096c f   kernel32:KERNEL32.dll
 0001:0005f972       SystemFunction036          0000000180060972 f   advapi32:ADVAPI32.dll
 0001:0005f980       _FindPESection             0000000180060980 f   LIBCMT:pesect.obj
 0001:0005f9d0       _IsNonwritableInCurrentImage 00000001800609d0 f   LIBCMT:pesect.obj
 0001:0005fa20       _ValidateImageBase         0000000180060a20 f   LIBCMT:pesect.obj
 0001:0005fa50       wcsrchr                    0000000180060a50 f   libvcruntime:wcsrchr.obj
 0001:0005fb00       strrchr                    0000000180060b00 f   libvcruntime:strrchr.obj
 0001:0005fc44       strchr                     0000000180060c44 f   libvcruntime:strchr.obj
 0001:0005fcd0       wcschr                     0000000180060cd0 f   libvcruntime:wcschr.obj
 0001:0005fd70       _guard_dispatch_icall_nop  0000000180060d70 f   LIBCMT:_guard_dispatch_.obj
 0001:000602b0       ??__Fsteam_api_registry@?1??GetInstance@SteamAPIRegistry@api@greenworks@@SAPEAV123@XZ@YAXXZ 00000001800612b0 f i greenworks_api_utils.obj
 0001:00060310       ??__F_Static@?1???$_Immortalize@V_Iostream_error_category@std@@@std@@YAAEAV_Iostream_error_category@0@XZ@YAXXZ 0000000180061310 f i steam_api_settings.obj
 0002:00000000       __imp_SystemFunction036    0000000180062000     advapi32:ADVAPI32.dll
 0002:00000008       \177ADVAPI32_NULL_THUNK_DATA 0000000180062008     advapi32:ADVAPI32.dll
 0002:00000010       __imp_CreateFileA          0000000180062010     kernel32:KERNEL32.dll
 0002:00000018       __imp_CloseHandle          0000000180062018     kernel32:KERNEL32.dll
 0002:00000020       __imp_DosDateTimeToFileTime 0000000180062020     kernel32:KERNEL32.dll
 0002:00000028       __imp_GetFileTime          0000000180062028     kernel32:KERNEL32.dll
 0002:00000030       __imp_Sleep                0000000180062030     kernel32:KERNEL32.dll
 0002:00000038       __imp_FindFirstFileW       0000000180062038     kernel32:KERNEL32.dll
 0002:00000040       __imp_FindFirstFileA       0000000180062040     kernel32:KERNEL32.dll
 0002:00000048       __imp_LocalFileTimeToFileTime 0000000180062048     kernel32:KERNEL32.dll
 0002:00000050       __imp_FindNextFileW        0000000180062050     kernel32:KERNEL32.dll
 0002:00000058       __imp_FindClose            0000000180062058     kernel32:KERNEL32.dll
 0002:00000060       __imp_MultiByteToWideChar  0000000180062060     kernel32:KERNEL32.dll
 0002:00000068       __imp_FileTimeToLocalFileTime 0000000180062068     kernel32:KERNEL32.dll
 0002:00000070       __imp_WideCharToMultiByte  0000000180062070     kernel32:KERNEL32.dll
 0002:00000078       __imp_FileTimeToDosDateTime 0000000180062078     kernel32:KERNEL32.dll
 0002:00000080       __imp_GetFullPathNameW     0000000180062080     kernel32:KERNEL32.dll
 0002:00000088       __imp_HeapSize             0000000180062088     kernel32:KERNEL32.dll
 0002:00000090       __imp_SetEndOfFile         0000000180062090     kernel32:KERNEL32.dll
 0002:00000098       __imp_GetCommandLineW      0000000180062098     kernel32:KERNEL32.dll
 0002:000000a0       __imp_GetCommandLineA      00000001800620a0     kernel32:KERNEL32.dll
 0002:000000a8       __imp_FreeEnvironmentStringsW 00000001800620a8     kernel32:KERNEL32.dll
 0002:000000b0       __imp_GetEnvironmentStringsW 00000001800620b0     kernel32:KERNEL32.dll
 0002:000000b8       __imp_GetOEMCP             00000001800620b8     kernel32:KERNEL32.dll
 0002:000000c0       __imp_IsValidCodePage      00000001800620c0     kernel32:KERNEL32.dll
 0002:000000c8       __imp_GetTimeZoneInformation 00000001800620c8     kernel32:KERNEL32.dll
 0002:000000d0       __imp_GetProcessHeap       00000001800620d0     kernel32:KERNEL32.dll
 0002:000000d8       __imp_ReadConsoleW         00000001800620d8     kernel32:KERNEL32.dll
 0002:000000e0       __imp_SetFilePointerEx     00000001800620e0     kernel32:KERNEL32.dll
 0002:000000e8       __imp_SetStdHandle         00000001800620e8     kernel32:KERNEL32.dll
 0002:000000f0       __imp_EnumSystemLocalesW   00000001800620f0     kernel32:KERNEL32.dll
 0002:000000f8       __imp_GetUserDefaultLCID   00000001800620f8     kernel32:KERNEL32.dll
 0002:00000100       __imp_IsValidLocale        0000000180062100     kernel32:KERNEL32.dll
 0002:00000108       __imp_FlushFileBuffers     0000000180062108     kernel32:KERNEL32.dll
 0002:00000110       __imp_CreateDirectoryW     0000000180062110     kernel32:KERNEL32.dll
 0002:00000118       __imp_GetConsoleMode       0000000180062118     kernel32:KERNEL32.dll
 0002:00000120       __imp_GetConsoleCP         0000000180062120     kernel32:KERNEL32.dll
 0002:00000128       __imp_GetACP               0000000180062128     kernel32:KERNEL32.dll
 0002:00000130       __imp_CreateThread         0000000180062130     kernel32:KERNEL32.dll
 0002:00000138       __imp_OutputDebugStringW   0000000180062138     kernel32:KERNEL32.dll
 0002:00000140       __imp_HeapFree             0000000180062140     kernel32:KERNEL32.dll
 0002:00000148       __imp_HeapReAlloc          0000000180062148     kernel32:KERNEL32.dll
 0002:00000150       __imp_HeapAlloc            0000000180062150     kernel32:KERNEL32.dll
 0002:00000158       __imp_ExitProcess          0000000180062158     kernel32:KERNEL32.dll
 0002:00000160       __imp_SystemTimeToFileTime 0000000180062160     kernel32:KERNEL32.dll
 0002:00000168       __imp_TzSpecificLocalTimeToSystemTime 0000000180062168     kernel32:KERNEL32.dll
 0002:00000170       __imp_FileTimeToSystemTime 0000000180062170     kernel32:KERNEL32.dll
 0002:00000178       __imp_SystemTimeToTzSpecificLocalTime 0000000180062178     kernel32:KERNEL32.dll
 0002:00000180       __imp_PeekNamedPipe        0000000180062180     kernel32:KERNEL32.dll
 0002:00000188       __imp_GetDriveTypeW        0000000180062188     kernel32:KERNEL32.dll
 0002:00000190       __imp_GetCurrentDirectoryW 0000000180062190     kernel32:KERNEL32.dll
 0002:00000198       __imp_GetCurrentDirectoryA 0000000180062198     kernel32:KERNEL32.dll
 0002:000001a0       __imp_SetCurrentDirectoryA 00000001800621a0     kernel32:KERNEL32.dll
 0002:000001a8       __imp_SetEnvironmentVariableA 00000001800621a8     kernel32:KERNEL32.dll
 0002:000001b0       __imp_WriteConsoleW        00000001800621b0     kernel32:KERNEL32.dll
 0002:000001b8       __imp_GetModuleHandleExW   00000001800621b8     kernel32:KERNEL32.dll
 0002:000001c0       __imp_GetFileType          00000001800621c0     kernel32:KERNEL32.dll
 0002:000001c8       __imp_GetStdHandle         00000001800621c8     kernel32:KERNEL32.dll
 0002:000001d0       __imp_InterlockedFlushSList 00000001800621d0     kernel32:KERNEL32.dll
 0002:000001d8       __imp_GetModuleFileNameW   00000001800621d8     kernel32:KERNEL32.dll
 0002:000001e0       __imp_LoadLibraryExW       00000001800621e0     kernel32:KERNEL32.dll
 0002:000001e8       __imp_FreeLibrary          00000001800621e8     kernel32:KERNEL32.dll
 0002:000001f0       __imp_RtlUnwindEx          00000001800621f0     kernel32:KERNEL32.dll
 0002:000001f8       __imp_RaiseException       00000001800621f8     kernel32:KERNEL32.dll
 0002:00000200       __imp_RtlPcToFileHeader    0000000180062200     kernel32:KERNEL32.dll
 0002:00000208       __imp_InitializeSListHead  0000000180062208     kernel32:KERNEL32.dll
 0002:00000210       __imp_GetCurrentThreadId   0000000180062210     kernel32:KERNEL32.dll
 0002:00000218       __imp_GetCurrentProcessId  0000000180062218     kernel32:KERNEL32.dll
 0002:00000220       __imp_QueryPerformanceCounter 0000000180062220     kernel32:KERNEL32.dll
 0002:00000228       __imp_GetStartupInfoW      0000000180062228     kernel32:KERNEL32.dll
 0002:00000230       __imp_IsDebuggerPresent    0000000180062230     kernel32:KERNEL32.dll
 0002:00000238       __imp_IsProcessorFeaturePresent 0000000180062238     kernel32:KERNEL32.dll
 0002:00000240       __imp_TerminateProcess     0000000180062240     kernel32:KERNEL32.dll
 0002:00000248       __imp_GetCurrentProcess    0000000180062248     kernel32:KERNEL32.dll
 0002:00000250       __imp_SetUnhandledExceptionFilter 0000000180062250     kernel32:KERNEL32.dll
 0002:00000258       __imp_UnhandledExceptionFilter 0000000180062258     kernel32:KERNEL32.dll
 0002:00000260       __imp_RtlVirtualUnwind     0000000180062260     kernel32:KERNEL32.dll
 0002:00000268       __imp_RtlLookupFunctionEntry 0000000180062268     kernel32:KERNEL32.dll
 0002:00000270       __imp_RtlCaptureContext    0000000180062270     kernel32:KERNEL32.dll
 0002:00000278       __imp_WaitForSingleObjectEx 0000000180062278     kernel32:KERNEL32.dll
 0002:00000280       __imp_ResetEvent           0000000180062280     kernel32:KERNEL32.dll
 0002:00000288       __imp_SetEvent             0000000180062288     kernel32:KERNEL32.dll
 0002:00000290       __imp_GetCPInfo            0000000180062290     kernel32:KERNEL32.dll
 0002:00000298       __imp_GetStringTypeW       0000000180062298     kernel32:KERNEL32.dll
 0002:000002a0       __imp_GetLocaleInfoW       00000001800622a0     kernel32:KERNEL32.dll
 0002:000002a8       __imp_LCMapStringW         00000001800622a8     kernel32:KERNEL32.dll
 0002:000002b0       __imp_CompareStringW       00000001800622b0     kernel32:KERNEL32.dll
 0002:000002b8       __imp_GetProcAddress       00000001800622b8     kernel32:KERNEL32.dll
 0002:000002c0       __imp_GetModuleHandleW     00000001800622c0     kernel32:KERNEL32.dll
 0002:000002c8       __imp_GetSystemTimeAsFileTime 00000001800622c8     kernel32:KERNEL32.dll
 0002:000002d0       __imp_TlsFree              00000001800622d0     kernel32:KERNEL32.dll
 0002:000002d8       __imp_TlsSetValue          00000001800622d8     kernel32:KERNEL32.dll
 0002:000002e0       __imp_TlsGetValue          00000001800622e0     kernel32:KERNEL32.dll
 0002:000002e8       __imp_TlsAlloc             00000001800622e8     kernel32:KERNEL32.dll
 0002:000002f0       __imp_CreateEventW         00000001800622f0     kernel32:KERNEL32.dll
 0002:000002f8       __imp_InitializeCriticalSectionAndSpinCount 00000001800622f8     kernel32:KERNEL32.dll
 0002:00000300       __imp_SetLastError         0000000180062300     kernel32:KERNEL32.dll
 0002:00000308       __imp_DecodePointer        0000000180062308     kernel32:KERNEL32.dll
 0002:00000310       __imp_EncodePointer        0000000180062310     kernel32:KERNEL32.dll
 0002:00000318       __imp_DeleteCriticalSection 0000000180062318     kernel32:KERNEL32.dll
 0002:00000320       __imp_LeaveCriticalSection 0000000180062320     kernel32:KERNEL32.dll
 0002:00000328       __imp_EnterCriticalSection 0000000180062328     kernel32:KERNEL32.dll
 0002:00000330       __imp_SetFileTime          0000000180062330     kernel32:KERNEL32.dll
 0002:00000338       __imp_GetLastError         0000000180062338     kernel32:KERNEL32.dll
 0002:00000340       __imp_CreateFileW          0000000180062340     kernel32:KERNEL32.dll
 0002:00000348       __imp_SetFilePointer       0000000180062348     kernel32:KERNEL32.dll
 0002:00000350       __imp_WriteFile            0000000180062350     kernel32:KERNEL32.dll
 0002:00000358       __imp_ReadFile             0000000180062358     kernel32:KERNEL32.dll
 0002:00000360       \177KERNEL32_NULL_THUNK_DATA 0000000180062360     kernel32:KERNEL32.dll
 0002:00000368       __imp_?GetFunction@FunctionTemplate@v8@@QEAA?AV?$Local@VFunction@v8@@@2@XZ 0000000180062368     iojs:node.dll
 0002:00000370       __imp_?New@FunctionTemplate@v8@@SA?AV?$Local@VFunctionTemplate@v8@@@2@PEAVIsolate@2@P6AXAEBV?$FunctionCallbackInfo@VValue@v8@@@2@@ZV?$Local@VValue@v8@@@2@V?$Local@VSignature@v8@@@2@HW4ConstructorBehavior@2@@Z 0000000180062370     iojs:node.dll
 0002:00000378       __imp_?ToLocalEmpty@V8@v8@@CAXXZ 0000000180062378     iojs:node.dll
 0002:00000380       __imp_?DisposeGlobal@V8@v8@@CAXPEAPEAVObject@internal@2@@Z 0000000180062380     iojs:node.dll
 0002:00000388       __imp_?GlobalizeReference@V8@v8@@CAPEAPEAVObject@internal@2@PEAVIsolate@42@PEAPEAV342@@Z 0000000180062388     iojs:node.dll
 0002:00000390       __imp_uv_queue_work        0000000180062390     iojs:node.dll
 0002:00000398       __imp_?Value@External@v8@@QEBAPEAXXZ 0000000180062398     iojs:node.dll
 0002:000003a0       __imp_?New@External@v8@@SA?AV?$Local@VExternal@v8@@@2@PEAVIsolate@2@PEAX@Z 00000001800623a0     iojs:node.dll
 0002:000003a8       __imp_?ThrowException@Isolate@v8@@QEAA?AV?$Local@VValue@v8@@@2@V32@@Z 00000001800623a8     iojs:node.dll
 0002:000003b0       __imp_?GetCurrentContext@Isolate@v8@@QEAA?AV?$Local@VContext@v8@@@2@XZ 00000001800623b0     iojs:node.dll
 0002:000003b8       __imp_?GetCurrent@Isolate@v8@@SAPEAV12@XZ 00000001800623b8     iojs:node.dll
 0002:000003c0       __imp_?CreateHandle@HandleScope@v8@@KAPEAPEAVObject@internal@2@PEAVIsolate@42@PEAV342@@Z 00000001800623c0     iojs:node.dll
 0002:000003c8       __imp_?CreateHandle@HandleScope@v8@@CAPEAPEAVObject@internal@2@PEAVHeapObject@42@PEAV342@@Z 00000001800623c8     iojs:node.dll
 0002:000003d0       __imp_??1HandleScope@v8@@QEAA@XZ 00000001800623d0     iojs:node.dll
 0002:000003d8       __imp_??0HandleScope@v8@@QEAA@PEAVIsolate@1@@Z 00000001800623d8     iojs:node.dll
 0002:000003e0       __imp_?Set@Template@v8@@QEAAXV?$Local@VName@v8@@@2@V?$Local@VData@v8@@@2@W4PropertyAttribute@2@@Z 00000001800623e0     iojs:node.dll
 0002:000003e8       __imp_?TypeError@Exception@v8@@SA?AV?$Local@VValue@v8@@@2@V?$Local@VString@v8@@@2@@Z 00000001800623e8     iojs:node.dll
 0002:000003f0       __imp_?NewInstance@Function@v8@@QEBA?AV?$MaybeLocal@VObject@v8@@@2@V?$Local@VContext@v8@@@2@@Z 00000001800623f0     iojs:node.dll
 0002:000003f8       __imp_?InternalFieldCount@Object@v8@@QEAAHXZ 00000001800623f8     iojs:node.dll
 0002:00000400       __imp_?SetAlignedPointerInInternalField@Object@v8@@QEAAXHPEAX@Z 0000000180062400     iojs:node.dll
 0002:00000408       __imp_?SlowGetAlignedPointerFromInternalField@Object@v8@@AEAAPEAXH@Z 0000000180062408     iojs:node.dll
 0002:00000410       __imp_?MakeWeak@V8@v8@@CAXPEAPEAVObject@internal@2@PEAXP6AXAEBV?$WeakCallbackInfo@X@2@@ZW4WeakCallbackType@2@@Z 0000000180062410     iojs:node.dll
 0002:00000418       __imp_?ClearWeak@V8@v8@@CAPEAXPEAPEAVObject@internal@2@@Z 0000000180062418     iojs:node.dll
 0002:00000420       __imp_?InstanceTemplate@FunctionTemplate@v8@@QEAA?AV?$Local@VObjectTemplate@v8@@@2@XZ 0000000180062420     iojs:node.dll
 0002:00000428       __imp_?PrototypeTemplate@FunctionTemplate@v8@@QEAA?AV?$Local@VObjectTemplate@v8@@@2@XZ 0000000180062428     iojs:node.dll
 0002:00000430       __imp_?New@Signature@v8@@SA?AV?$Local@VSignature@v8@@@2@PEAVIsolate@2@V?$Local@VFunctionTemplate@v8@@@2@@Z 0000000180062430     iojs:node.dll
 0002:00000438       __imp_?MakeCallback@node@@YA?AV?$Local@VValue@v8@@@v8@@PEAVIsolate@3@V?$Local@VObject@v8@@@3@PEBDHPEAV23@@Z 0000000180062438     iojs:node.dll
 0002:00000440       __imp_uv_timer_start       0000000180062440     iojs:node.dll
 0002:00000448       __imp_uv_timer_init        0000000180062448     iojs:node.dll
 0002:00000450       __imp_?Error@Exception@v8@@SA?AV?$Local@VValue@v8@@@2@V?$Local@VString@v8@@@2@@Z 0000000180062450     iojs:node.dll
 0002:00000458       __imp_node_module_register 0000000180062458     iojs:node.dll
 0002:00000460       __imp_?MakeCallback@node@@YA?AV?$Local@VValue@v8@@@v8@@PEAVIsolate@3@V?$Local@VObject@v8@@@3@V?$Local@VFunction@v8@@@3@HPEAV23@@Z 0000000180062460     iojs:node.dll
 0002:00000468       __imp_?New@Number@v8@@SA?AV?$Local@VNumber@v8@@@2@PEAVIsolate@2@N@Z 0000000180062468     iojs:node.dll
 0002:00000470       __imp_?NumberValue@Value@v8@@QEBANXZ 0000000180062470     iojs:node.dll
 0002:00000478       __imp_?Global@Context@v8@@QEAA?AV?$Local@VObject@v8@@@2@XZ 0000000180062478     iojs:node.dll
 0002:00000480       __imp_?New@Buffer@node@@YA?AV?$MaybeLocal@VObject@v8@@@v8@@PEAVIsolate@4@PEAD_KP6AX1PEAX@Z3@Z 0000000180062480     iojs:node.dll
 0002:00000488       __imp_?ToUint32@Value@v8@@QEBA?AV?$MaybeLocal@VUint32@v8@@@2@V?$Local@VContext@v8@@@2@@Z 0000000180062488     iojs:node.dll
 0002:00000490       __imp_?Set@Object@v8@@QEAA_NV?$Local@VValue@v8@@@2@0@Z 0000000180062490     iojs:node.dll
 0002:00000498       __imp_?New@Object@v8@@SA?AV?$Local@VObject@v8@@@2@PEAVIsolate@2@@Z 0000000180062498     iojs:node.dll
 0002:000004a0       __imp_?IsBoolean@Value@v8@@QEBA_NXZ 00000001800624a0     iojs:node.dll
 0002:000004a8       __imp_?ToInteger@Value@v8@@QEBA?AV?$MaybeLocal@VInteger@v8@@@2@V?$Local@VContext@v8@@@2@@Z 00000001800624a8     iojs:node.dll
 0002:000004b0       __imp_?Get@Object@v8@@QEAA?AV?$Local@VValue@v8@@@2@I@Z 00000001800624b0     iojs:node.dll
 0002:000004b8       __imp_?IsArray@Value@v8@@QEBA_NXZ 00000001800624b8     iojs:node.dll
 0002:000004c0       __imp_?BooleanValue@Value@v8@@QEBA_NXZ 00000001800624c0     iojs:node.dll
 0002:000004c8       __imp_?Length@Array@v8@@QEBAIXZ 00000001800624c8     iojs:node.dll
 0002:000004d0       __imp_?ToString@Value@v8@@QEBA?AV?$Local@VString@v8@@@2@XZ 00000001800624d0     iojs:node.dll
 0002:000004d8       __imp_?Int32Value@Value@v8@@QEBAHXZ 00000001800624d8     iojs:node.dll
 0002:000004e0       __imp_?Length@Buffer@node@@YA_KV?$Local@VValue@v8@@@v8@@@Z 00000001800624e0     iojs:node.dll
 0002:000004e8       __imp_?Copy@Buffer@node@@YA?AV?$MaybeLocal@VObject@v8@@@v8@@PEAVIsolate@4@PEBD_K@Z 00000001800624e8     iojs:node.dll
 0002:000004f0       __imp_?Data@Buffer@node@@YAPEADV?$Local@VValue@v8@@@v8@@@Z 00000001800624f0     iojs:node.dll
 0002:000004f8       __imp_?HasInstance@Buffer@node@@YA_NV?$Local@VValue@v8@@@v8@@@Z 00000001800624f8     iojs:node.dll
 0002:00000500       __imp_?IsNumber@Value@v8@@QEBA_NXZ 0000000180062500     iojs:node.dll
 0002:00000508       __imp_?IsUint32@Value@v8@@QEBA_NXZ 0000000180062508     iojs:node.dll
 0002:00000510       __imp_?ToInt32@Value@v8@@QEBA?AV?$MaybeLocal@VInt32@v8@@@2@V?$Local@VContext@v8@@@2@@Z 0000000180062510     iojs:node.dll
 0002:00000518       __imp_?Uint32Value@Value@v8@@QEBAIXZ 0000000180062518     iojs:node.dll
 0002:00000520       __imp_?Set@Object@v8@@QEAA_NIV?$Local@VValue@v8@@@2@@Z 0000000180062520     iojs:node.dll
 0002:00000528       __imp_?New@Array@v8@@SA?AV?$Local@VArray@v8@@@2@PEAVIsolate@2@H@Z 0000000180062528     iojs:node.dll
 0002:00000530       __imp_?New@Integer@v8@@SA?AV?$Local@VInteger@v8@@@2@PEAVIsolate@2@H@Z 0000000180062530     iojs:node.dll
 0002:00000538       __imp_?NewFromUnsigned@Integer@v8@@SA?AV?$Local@VInteger@v8@@@2@PEAVIsolate@2@I@Z 0000000180062538     iojs:node.dll
 0002:00000540       __imp_uv_default_loop      0000000180062540     iojs:node.dll
 0002:00000548       __imp_?New@ObjectTemplate@v8@@SA?AV?$Local@VObjectTemplate@v8@@@2@PEAVIsolate@2@V?$Local@VFunctionTemplate@v8@@@2@@Z 0000000180062548     iojs:node.dll
 0002:00000550       __imp_?NewInstance@ObjectTemplate@v8@@QEAA?AV?$MaybeLocal@VObject@v8@@@2@V?$Local@VContext@v8@@@2@@Z 0000000180062550     iojs:node.dll
 0002:00000558       __imp_?SetInternalFieldCount@ObjectTemplate@v8@@QEAAXH@Z 0000000180062558     iojs:node.dll
 0002:00000560       __imp_?Set@Object@v8@@QEAA?AV?$Maybe@_N@2@V?$Local@VContext@v8@@@2@V?$Local@VValue@v8@@@2@1@Z 0000000180062560     iojs:node.dll
 0002:00000568       __imp_?SetInternalField@Object@v8@@QEAAXHV?$Local@VValue@v8@@@2@@Z 0000000180062568     iojs:node.dll
 0002:00000570       __imp_?SlowGetInternalField@Object@v8@@AEAA?AV?$Local@VValue@v8@@@2@H@Z 0000000180062570     iojs:node.dll
 0002:00000578       __imp_?NewFromUtf8@String@v8@@SA?AV?$MaybeLocal@VString@v8@@@2@PEAVIsolate@2@PEBDW4NewStringType@2@H@Z 0000000180062578     iojs:node.dll
 0002:00000580       __imp_??0Utf8Value@String@v8@@QEAA@V?$Local@VValue@v8@@@2@@Z 0000000180062580     iojs:node.dll
 0002:00000588       __imp_??1Utf8Value@String@v8@@QEAA@XZ 0000000180062588     iojs:node.dll
 0002:00000590       __imp_??0EscapableHandleScope@v8@@QEAA@PEAVIsolate@1@@Z 0000000180062590     iojs:node.dll
 0002:00000598       __imp_?Escape@EscapableHandleScope@v8@@AEAAPEAPEAVObject@internal@2@PEAPEAV342@@Z 0000000180062598     iojs:node.dll
 0002:000005a0       __imp_?IsFunction@Value@v8@@QEBA_NXZ 00000001800625a0     iojs:node.dll
 0002:000005a8       __imp_?IsInt32@Value@v8@@QEBA_NXZ 00000001800625a8     iojs:node.dll
 0002:000005b0       __imp_?SetClassName@FunctionTemplate@v8@@QEAAXV?$Local@VString@v8@@@2@@Z 00000001800625b0     iojs:node.dll
 0002:000005b8       \177node_NULL_THUNK_DATA   00000001800625b8     iojs:node.dll
 0002:000005c0       __imp_SteamEncryptedAppTicket_BIsTicketForApp 00000001800625c0     sdkencryptedappticket64:sdkencryptedappticket64.dll
 0002:000005c8       __imp_SteamEncryptedAppTicket_GetTicketIssueTime 00000001800625c8     sdkencryptedappticket64:sdkencryptedappticket64.dll
 0002:000005d0       __imp_SteamEncryptedAppTicket_GetTicketAppID 00000001800625d0     sdkencryptedappticket64:sdkencryptedappticket64.dll
 0002:000005d8       __imp_SteamEncryptedAppTicket_BDecryptTicket 00000001800625d8     sdkencryptedappticket64:sdkencryptedappticket64.dll
 0002:000005e0       __imp_SteamEncryptedAppTicket_GetTicketSteamID 00000001800625e0     sdkencryptedappticket64:sdkencryptedappticket64.dll
 0002:000005e8       \177sdkencryptedappticket64_NULL_THUNK_DATA 00000001800625e8     sdkencryptedappticket64:sdkencryptedappticket64.dll
 0002:000005f0       __imp_SteamInternal_ContextInit 00000001800625f0     steam_api64:steam_api64.dll
 0002:000005f8       __imp_SteamAPI_GetHSteamPipe 00000001800625f8     steam_api64:steam_api64.dll
 0002:00000600       __imp_SteamAPI_GetHSteamUser 0000000180062600     steam_api64:steam_api64.dll
 0002:00000608       __imp_SteamInternal_CreateInterface 0000000180062608     steam_api64:steam_api64.dll
 0002:00000610       __imp_SteamAPI_IsSteamRunning 0000000180062610     steam_api64:steam_api64.dll
 0002:00000618       __imp_SteamAPI_RestartAppIfNecessary 0000000180062618     steam_api64:steam_api64.dll
 0002:00000620       __imp_SteamAPI_UnregisterCallback 0000000180062620     steam_api64:steam_api64.dll
 0002:00000628       __imp_SteamAPI_Init        0000000180062628     steam_api64:steam_api64.dll
 0002:00000630       __imp_SteamAPI_RegisterCallResult 0000000180062630     steam_api64:steam_api64.dll
 0002:00000638       __imp_SteamAPI_UnregisterCallResult 0000000180062638     steam_api64:steam_api64.dll
 0002:00000640       __imp_SteamAPI_RunCallbacks 0000000180062640     steam_api64:steam_api64.dll
 0002:00000648       __imp_SteamAPI_RegisterCallback 0000000180062648     steam_api64:steam_api64.dll
 0002:00000650       \177steam_api64_NULL_THUNK_DATA 0000000180062650     steam_api64:steam_api64.dll
 0002:00000658       __guard_check_icall_fptr   0000000180062658     LIBCMT:guard_support.obj
 0002:00000660       __guard_dispatch_icall_fptr 0000000180062660     LIBCMT:guard_support.obj
 0002:00000668       __xc_a                     0000000180062668     LIBCMT:initializers.obj
 0002:00000698       _register_greenworks_win64_ 0000000180062698     greenworks_api.obj
 0002:000006f0       __xc_z                     00000001800626f0     LIBCMT:initializers.obj
 0002:000006f8       __xi_a                     00000001800626f8     LIBCMT:initializers.obj
 0002:00000710       __acrt_stdio_initializer   0000000180062710     libucrt:stdio_initializer.obj
 0002:00000718       __acrt_timeset_initializer 0000000180062718     libucrt:timeset_initializer.obj
 0002:00000720       __acrt_multibyte_initializer 0000000180062720     libucrt:multibyte_initializer.obj
 0002:00000728       __acrt_tran_fma3_initializer 0000000180062728     libucrt:fma3_initializer.obj
 0002:00000730       __xi_z                     0000000180062730     LIBCMT:initializers.obj
 0002:00000738       __xl_a                     0000000180062738     LIBCMT:tlssup.obj
 0002:00000740       __xl_z                     0000000180062740     LIBCMT:tlssup.obj
 0002:00000748       __xp_a                     0000000180062748     LIBCMT:initializers.obj
 0002:00000750       __acrt_locale_terminator   0000000180062750     libucrt:locale_initializer.obj
 0002:00000758       __dcrt_console_output_terminator 0000000180062758     libucrt:console_output_initializer.obj
 0002:00000760       __acrt_stdio_terminator    0000000180062760     libucrt:stdio_initializer.obj
 0002:00000768       __xp_z                     0000000180062768     LIBCMT:initializers.obj
 0002:00000770       __xt_a                     0000000180062770     LIBCMT:initializers.obj
 0002:00000778       __xt_z                     0000000180062778     LIBCMT:initializers.obj
 0002:00000788       ??_7exception@std@@6B@     0000000180062788     libcpmt:xthrow.obj
 0002:00000798       ??_C@_0BC@EOODALEL@Unknown?5exception?$AA@ 0000000180062798     libcpmt:xthrow.obj
 0002:000007b8       ??_7bad_alloc@std@@6B@     00000001800627b8     libcpmt:xthrow.obj
 0002:000007c8       ??_C@_0P@GHFPNOJB@bad?5allocation?$AA@ 00000001800627c8     libcpmt:xthrow.obj
 0002:000007e0       ??_7logic_error@std@@6B@   00000001800627e0     libcpmt:xthrow.obj
 0002:000007f8       ??_7length_error@std@@6B@  00000001800627f8     libcpmt:xthrow.obj
 0002:00000810       ??_7out_of_range@std@@6B@  0000000180062810     libcpmt:xthrow.obj
 0002:00000828       ??_7runtime_error@std@@6B@ 0000000180062828     libcpmt:xthrow.obj
 0002:00000840       ??_7bad_function_call@std@@6B@ 0000000180062840     libcpmt:xthrow.obj
 0002:00000850       ??_C@_0BC@DPJNKNAF@bad?5function?5call?$AA@ 0000000180062850     libcpmt:xthrow.obj
 0002:00000938       ??_7_Facet_base@std@@6B@   0000000180062938     libcpmt:locale0.obj
 0002:00000958       ??_7_Locimp@locale@std@@6B@ 0000000180062958     libcpmt:locale0.obj
 0002:00000970       ??_C@_01NBENCBCI@?$CK?$AA@ 0000000180062970     libcpmt:locale0.obj
 0002:00000974       ??_C@_01GFHCPBMG@C?$AA@    0000000180062974     libcpmt:locale0.obj
 0002:00000978       ?_BADOFF@std@@3_JB         0000000180062978     libcpmt:ios.obj
 0002:000010b0       ??_C@_0BN@LKKBCCDB@address?5family?5not?5supported?$AA@ 00000001800630b0     libcpmt:syserror.obj
 0002:000010d0       ??_C@_0P@LDMLAFHI@address?5in?5use?$AA@ 00000001800630d0     libcpmt:syserror.obj
 0002:000010e0       ??_C@_0BG@DHPCNBJB@address?5not?5available?$AA@ 00000001800630e0     libcpmt:syserror.obj
 0002:000010f8       ??_C@_0BC@DFIBIBIL@already?5connected?$AA@ 00000001800630f8     libcpmt:syserror.obj
 0002:00001110       ??_C@_0BH@CAKOHOMI@argument?5list?5too?5long?$AA@ 0000000180063110     libcpmt:syserror.obj
 0002:00001128       ??_C@_0BH@CGIMPKIM@argument?5out?5of?5domain?$AA@ 0000000180063128     libcpmt:syserror.obj
 0002:00001140       ??_C@_0M@KGHGGJGL@bad?5address?$AA@ 0000000180063140     libcpmt:syserror.obj
 0002:00001150       ??_C@_0BE@MPJPGCEO@bad?5file?5descriptor?$AA@ 0000000180063150     libcpmt:syserror.obj
 0002:00001168       ??_C@_0M@PMMIEFCP@bad?5message?$AA@ 0000000180063168     libcpmt:syserror.obj
 0002:00001178       ??_C@_0M@KPHOFDBE@broken?5pipe?$AA@ 0000000180063178     libcpmt:syserror.obj
 0002:00001188       ??_C@_0BD@MGNDDEGM@connection?5aborted?$AA@ 0000000180063188     libcpmt:syserror.obj
 0002:000011a0       ??_C@_0BP@KAIHPOGN@connection?5already?5in?5progress?$AA@ 00000001800631a0     libcpmt:syserror.obj
 0002:000011c0       ??_C@_0BD@PJLIIJEL@connection?5refused?$AA@ 00000001800631c0     libcpmt:syserror.obj
 0002:000011d8       ??_C@_0BB@IECNJNOI@connection?5reset?$AA@ 00000001800631d8     libcpmt:syserror.obj
 0002:000011f0       ??_C@_0BC@PPHBOELF@cross?5device?5link?$AA@ 00000001800631f0     libcpmt:syserror.obj
 0002:00001208       ??_C@_0BN@KDMIFEIP@destination?5address?5required?$AA@ 0000000180063208     libcpmt:syserror.obj
 0002:00001228       ??_C@_0BI@NGCEHDD@device?5or?5resource?5busy?$AA@ 0000000180063228     libcpmt:syserror.obj
 0002:00001240       ??_C@_0BE@JIDOCPHM@directory?5not?5empty?$AA@ 0000000180063240     libcpmt:syserror.obj
 0002:00001258       ??_C@_0BI@BNCLIGPB@executable?5format?5error?$AA@ 0000000180063258     libcpmt:syserror.obj
 0002:00001270       ??_C@_0M@MIDIAGJP@file?5exists?$AA@ 0000000180063270     libcpmt:syserror.obj
 0002:00001280       ??_C@_0P@DNAJLBJK@file?5too?5large?$AA@ 0000000180063280     libcpmt:syserror.obj
 0002:00001290       ??_C@_0BC@EJHOMAAK@filename?5too?5long?$AA@ 0000000180063290     libcpmt:syserror.obj
 0002:000012a8       ??_C@_0BH@KEFGLDAF@function?5not?5supported?$AA@ 00000001800632a8     libcpmt:syserror.obj
 0002:000012c0       ??_C@_0BB@DHFDFGDM@host?5unreachable?$AA@ 00000001800632c0     libcpmt:syserror.obj
 0002:000012d8       ??_C@_0BD@JPHBMONG@identifier?5removed?$AA@ 00000001800632d8     libcpmt:syserror.obj
 0002:000012f0       ??_C@_0BG@CDNPAGJK@illegal?5byte?5sequence?$AA@ 00000001800632f0     libcpmt:syserror.obj
 0002:00001308       ??_C@_0CD@BNPLBMNA@inappropriate?5io?5control?5operati@ 0000000180063308     libcpmt:syserror.obj
 0002:00001330       ??_C@_0M@EGEKIIMP@interrupted?$AA@ 0000000180063330     libcpmt:syserror.obj
 0002:00001340       ??_C@_0BB@FCMFBGOM@invalid?5argument?$AA@ 0000000180063340     libcpmt:syserror.obj
 0002:00001358       ??_C@_0N@OHAFKDEK@invalid?5seek?$AA@ 0000000180063358     libcpmt:syserror.obj
 0002:00001368       ??_C@_08GLNPIFBN@io?5error?$AA@ 0000000180063368     libcpmt:syserror.obj
 0002:00001378       ??_C@_0P@FLLDBIDK@is?5a?5directory?$AA@ 0000000180063378     libcpmt:syserror.obj
 0002:00001388       ??_C@_0N@IFLPBIOP@message?5size?$AA@ 0000000180063388     libcpmt:syserror.obj
 0002:00001398       ??_C@_0N@KIIEAAIO@network?5down?$AA@ 0000000180063398     libcpmt:syserror.obj
 0002:000013a8       ??_C@_0O@FNPDBHEE@network?5reset?$AA@ 00000001800633a8     libcpmt:syserror.obj
 0002:000013b8       ??_C@_0BE@IFNCKGE@network?5unreachable?$AA@ 00000001800633b8     libcpmt:syserror.obj
 0002:000013d0       ??_C@_0BA@PFFCAOFK@no?5buffer?5space?$AA@ 00000001800633d0     libcpmt:syserror.obj
 0002:000013e0       ??_C@_0BB@IEPBLJHK@no?5child?5process?$AA@ 00000001800633e0     libcpmt:syserror.obj
 0002:000013f8       ??_C@_07PLECNNKG@no?5link?$AA@ 00000001800633f8     libcpmt:syserror.obj
 0002:00001400       ??_C@_0BC@NJECKMKE@no?5lock?5available?$AA@ 0000000180063400     libcpmt:syserror.obj
 0002:00001418       ??_C@_0BF@PBGGPKKE@no?5message?5available?$AA@ 0000000180063418     libcpmt:syserror.obj
 0002:00001430       ??_C@_0L@EDOLMPAK@no?5message?$AA@ 0000000180063430     libcpmt:syserror.obj
 0002:00001440       ??_C@_0BD@EAMBFIDF@no?5protocol?5option?$AA@ 0000000180063440     libcpmt:syserror.obj
 0002:00001458       ??_C@_0BD@IJDJKDEA@no?5space?5on?5device?$AA@ 0000000180063458     libcpmt:syserror.obj
 0002:00001470       ??_C@_0BE@MKFDAFMP@no?5stream?5resources?$AA@ 0000000180063470     libcpmt:syserror.obj
 0002:00001488       ??_C@_0BK@IMCPHCBI@no?5such?5device?5or?5address?$AA@ 0000000180063488     libcpmt:syserror.obj
 0002:000014a8       ??_C@_0P@FDINDDOK@no?5such?5device?$AA@ 00000001800634a8     libcpmt:syserror.obj
 0002:000014b8       ??_C@_0BK@NDOCBPGE@no?5such?5file?5or?5directory?$AA@ 00000001800634b8     libcpmt:syserror.obj
 0002:000014d8       ??_C@_0BA@ENLPPKBN@no?5such?5process?$AA@ 00000001800634d8     libcpmt:syserror.obj
 0002:000014e8       ??_C@_0BA@DOCPFFJG@not?5a?5directory?$AA@ 00000001800634e8     libcpmt:syserror.obj
 0002:000014f8       ??_C@_0N@POEIPGGF@not?5a?5socket?$AA@ 00000001800634f8     libcpmt:syserror.obj
 0002:00001508       ??_C@_0N@LGAPMMPI@not?5a?5stream?$AA@ 0000000180063508     libcpmt:syserror.obj
 0002:00001518       ??_C@_0O@GLMIBBEG@not?5connected?$AA@ 0000000180063518     libcpmt:syserror.obj
 0002:00001528       ??_C@_0BC@ENOOLCNF@not?5enough?5memory?$AA@ 0000000180063528     libcpmt:syserror.obj
 0002:00001540       ??_C@_0O@NHEDABJP@not?5supported?$AA@ 0000000180063540     libcpmt:syserror.obj
 0002:00001550       ??_C@_0BD@MOLBPMEA@operation?5canceled?$AA@ 0000000180063550     libcpmt:syserror.obj
 0002:00001568       ??_C@_0BG@KDKHOPCO@operation?5in?5progress?$AA@ 0000000180063568     libcpmt:syserror.obj
 0002:00001580       ??_C@_0BI@OHIEJAAB@operation?5not?5permitted?$AA@ 0000000180063580     libcpmt:syserror.obj
 0002:00001598       ??_C@_0BI@LNEGIFLN@operation?5not?5supported?$AA@ 0000000180063598     libcpmt:syserror.obj
 0002:000015b0       ??_C@_0BG@OEMDKMEE@operation?5would?5block?$AA@ 00000001800635b0     libcpmt:syserror.obj
 0002:000015c8       ??_C@_0L@BLPOFLNJ@owner?5dead?$AA@ 00000001800635c8     libcpmt:syserror.obj
 0002:000015d8       ??_C@_0BC@CIJDGCDI@permission?5denied?$AA@ 00000001800635d8     libcpmt:syserror.obj
 0002:000015f0       ??_C@_0P@FNPOCJBE@protocol?5error?$AA@ 00000001800635f0     libcpmt:syserror.obj
 0002:00001600       ??_C@_0BH@JPPPLHJB@protocol?5not?5supported?$AA@ 0000000180063600     libcpmt:syserror.obj
 0002:00001618       ??_C@_0BG@EICBIHDP@read?5only?5file?5system?$AA@ 0000000180063618     libcpmt:syserror.obj
 0002:00001630       ??_C@_0BO@BJBOMOEJ@resource?5deadlock?5would?5occur?$AA@ 0000000180063630     libcpmt:syserror.obj
 0002:00001650       ??_C@_0BP@LKNGHENJ@resource?5unavailable?5try?5again?$AA@ 0000000180063650     libcpmt:syserror.obj
 0002:00001670       ??_C@_0BE@GOIPJJHG@result?5out?5of?5range?$AA@ 0000000180063670     libcpmt:syserror.obj
 0002:00001688       ??_C@_0BG@MPLKFPAE@state?5not?5recoverable?$AA@ 0000000180063688     libcpmt:syserror.obj
 0002:000016a0       ??_C@_0P@DIIFGFCG@stream?5timeout?$AA@ 00000001800636a0     libcpmt:syserror.obj
 0002:000016b0       ??_C@_0P@IPFDMIFL@text?5file?5busy?$AA@ 00000001800636b0     libcpmt:syserror.obj
 0002:000016c0       ??_C@_09KJPPMAOI@timed?5out?$AA@ 00000001800636c0     libcpmt:syserror.obj
 0002:000016d0       ??_C@_0BO@HACHBEKI@too?5many?5files?5open?5in?5system?$AA@ 00000001800636d0     libcpmt:syserror.obj
 0002:000016f0       ??_C@_0BE@GHAFMPAH@too?5many?5files?5open?$AA@ 00000001800636f0     libcpmt:syserror.obj
 0002:00001708       ??_C@_0P@HCOMKFCC@too?5many?5links?$AA@ 0000000180063708     libcpmt:syserror.obj
 0002:00001718       ??_C@_0BO@EFGOJEF@too?5many?5symbolic?5link?5levels?$AA@ 0000000180063718     libcpmt:syserror.obj
 0002:00001738       ??_C@_0BA@KGKGOOJA@value?5too?5large?$AA@ 0000000180063738     libcpmt:syserror.obj
 0002:00001748       ??_C@_0BE@MIEJDDNH@wrong?5protocol?5type?$AA@ 0000000180063748     libcpmt:syserror.obj
 0002:00001760       ??_C@_0O@BFJCFAAK@unknown?5error?$AA@ 0000000180063760     libcpmt:syserror.obj
 0002:000017c0       __real@4d800000            00000001800637c0     libcpmt:xstof.obj
 0002:000017c4       __real@4e6e6b28            00000001800637c4     libcpmt:xstof.obj
 0002:00001848       ??_C@_01KDCPPGHE@r?$AA@    0000000180063848     libcpmt:fiopen.obj
 0002:0000184c       ??_C@_01NOFIACDB@w?$AA@    000000018006384c     libcpmt:fiopen.obj
 0002:00001850       ??_C@_01MCMALHOG@a?$AA@    0000000180063850     libcpmt:fiopen.obj
 0002:00001854       ??_C@_02BOGAIONP@ab?$AA@   0000000180063854     libcpmt:fiopen.obj
 0002:00001858       ??_C@_02CBLLGHLK@r?$CL?$AA@ 0000000180063858     libcpmt:fiopen.obj
 0002:0000185c       ??_C@_02CHHAKFFB@w?$CL?$AA@ 000000018006385c     libcpmt:fiopen.obj
 0002:00001860       ??_C@_02DPNLHKJD@a?$CL?$AA@ 0000000180063860     libcpmt:fiopen.obj
 0002:00001864       ??_C@_03ELIABIOC@w?$CLb?$AA@ 0000000180063864     libcpmt:fiopen.obj
 0002:00001868       ??_C@_03DOPCBAKB@a?$CLb?$AA@ 0000000180063868     libcpmt:fiopen.obj
 0002:00001870       ?valid@?1???$_Xfiopen@D@std@@YAPEAU_iobuf@@PEBDHH@Z@4QBHB 0000000180063870     libcpmt:fiopen.obj
 0002:00001900       __real@41b0000000000000    0000000180063900     libcpmt:xstod.obj
 0002:00001908       __real@41cdcd6500000000    0000000180063908     libcpmt:xstod.obj
 0002:00001940       ??_7?$ctype@D@std@@6B@     0000000180063940     libcpmt:locale.obj
 0002:000019a0       ??_7?$num_get@DV?$istreambuf_iterator@DU?$char_traits@D@std@@@std@@@std@@6B@ 00000001800639a0     libcpmt:locale.obj
 0002:00001a18       ??_7?$num_put@DV?$ostreambuf_iterator@DU?$char_traits@D@std@@@std@@@std@@6B@ 0000000180063a18     libcpmt:locale.obj
 0002:00001a78       ??_7?$numpunct@D@std@@6B@  0000000180063a78     libcpmt:locale.obj
 0002:00001ac0       ??_7?$codecvt@DDU_Mbstatet@@@std@@6B@ 0000000180063ac0     libcpmt:locale.obj
 0002:00001b40       __xmm@80000000800000008000000080000000 0000000180063b40     libcpmt:xfdscale.obj
 0002:00001b50       __real@00000000            0000000180063b50     libcpmt:xfprec.obj
 0002:00001b54       __real@3f800000            0000000180063b54     libcpmt:xfprec.obj
 0002:00001b58       __real@3ff0000000000000    0000000180063b58     libcpmt:xfprec.obj
 0002:00001b60       __real@461c4000            0000000180063b60     libcpmt:xfprec.obj
 0002:00001b78       __real@41200000            0000000180063b78     libcpmt:xfdtento.obj
 0002:00001b80       __xmm@80000000000000008000000000000000 0000000180063b80     libcpmt:xdscale.obj
 0002:00001b90       __real@0000000000000000    0000000180063b90     libcpmt:xprec.obj
 0002:00001bb8       __real@4024000000000000    0000000180063bb8     libcpmt:xdtento.obj
 0002:00001be0       ??_C@_1BK@MGMFAEKH@?$AAk?$AAe?$AAr?$AAn?$AAe?$AAl?$AA3?$AA2?$AA?4?$AAd?$AAl?$AAl?$AA?$AA@ 0000000180063be0     libcpmt:winapisupp.obj
 0002:00001c00       ??_C@_08KNHFBNJ@FlsAlloc?$AA@ 0000000180063c00     libcpmt:winapisupp.obj
 0002:00001c10       ??_C@_07PEJMOBNF@FlsFree?$AA@ 0000000180063c10     libcpmt:winapisupp.obj
 0002:00001c18       ??_C@_0M@GDNOONDI@FlsGetValue?$AA@ 0000000180063c18     libcpmt:winapisupp.obj
 0002:00001c28       ??_C@_0M@JCPCPOEF@FlsSetValue?$AA@ 0000000180063c28     libcpmt:winapisupp.obj
 0002:00001c38       ??_C@_0BM@HCFOFFN@InitializeCriticalSectionEx?$AA@ 0000000180063c38     libcpmt:winapisupp.obj
 0002:00001c58       ??_C@_0BE@GPLMMCMH@InitOnceExecuteOnce?$AA@ 0000000180063c58     libcpmt:winapisupp.obj
 0002:00001c70       ??_C@_0P@DLHPPCNH@CreateEventExW?$AA@ 0000000180063c70     libcpmt:winapisupp.obj
 0002:00001c80       ??_C@_0BB@MEFPJLHN@CreateSemaphoreW?$AA@ 0000000180063c80     libcpmt:winapisupp.obj
 0002:00001c98       ??_C@_0BD@KIEEOEEH@CreateSemaphoreExW?$AA@ 0000000180063c98     libcpmt:winapisupp.obj
 0002:00001cb0       ??_C@_0BG@OGFAJCKC@CreateThreadpoolTimer?$AA@ 0000000180063cb0     libcpmt:winapisupp.obj
 0002:00001cc8       ??_C@_0BD@LPLEMMDI@SetThreadpoolTimer?$AA@ 0000000180063cc8     libcpmt:winapisupp.obj
 0002:00001ce0       ??_C@_0CA@FMNJENH@WaitForThreadpoolTimerCallbacks?$AA@ 0000000180063ce0     libcpmt:winapisupp.obj
 0002:00001d00       ??_C@_0BF@DCFCCNOC@CloseThreadpoolTimer?$AA@ 0000000180063d00     libcpmt:winapisupp.obj
 0002:00001d18       ??_C@_0BF@FLABGKKM@CreateThreadpoolWait?$AA@ 0000000180063d18     libcpmt:winapisupp.obj
 0002:00001d30       ??_C@_0BC@MGCOHNA@SetThreadpoolWait?$AA@ 0000000180063d30     libcpmt:winapisupp.obj
 0002:00001d48       ??_C@_0BE@OCIOMIMP@CloseThreadpoolWait?$AA@ 0000000180063d48     libcpmt:winapisupp.obj
 0002:00001d60       ??_C@_0BJ@LKGHFHBO@FlushProcessWriteBuffers?$AA@ 0000000180063d60     libcpmt:winapisupp.obj
 0002:00001d80       ??_C@_0BP@KALKKPMO@FreeLibraryWhenCallbackReturns?$AA@ 0000000180063d80     libcpmt:winapisupp.obj
 0002:00001da0       ??_C@_0BK@DFNBACLA@GetCurrentProcessorNumber?$AA@ 0000000180063da0     libcpmt:winapisupp.obj
 0002:00001dc0       ??_C@_0BE@FKKLLFLM@CreateSymbolicLinkW?$AA@ 0000000180063dc0     libcpmt:winapisupp.obj
 0002:00001dd8       ??_C@_0BE@JOGNEJCI@GetCurrentPackageId?$AA@ 0000000180063dd8     libcpmt:winapisupp.obj
 0002:00001df0       ??_C@_0P@CDHHOHKP@GetTickCount64?$AA@ 0000000180063df0     libcpmt:winapisupp.obj
 0002:00001e00       ??_C@_0BN@NEEHBBPO@GetFileInformationByHandleEx?$AA@ 0000000180063e00     libcpmt:winapisupp.obj
 0002:00001e20       ??_C@_0BL@KBBHGKCM@SetFileInformationByHandle?$AA@ 0000000180063e20     libcpmt:winapisupp.obj
 0002:00001e40       ??_C@_0BP@FPNJPEJC@GetSystemTimePreciseAsFileTime?$AA@ 0000000180063e40     libcpmt:winapisupp.obj
 0002:00001e60       ??_C@_0BM@HLJJNPAH@InitializeConditionVariable?$AA@ 0000000180063e60     libcpmt:winapisupp.obj
 0002:00001e80       ??_C@_0BG@BFNILBLN@WakeConditionVariable?$AA@ 0000000180063e80     libcpmt:winapisupp.obj
 0002:00001e98       ??_C@_0BJ@PGPPEPCC@WakeAllConditionVariable?$AA@ 0000000180063e98     libcpmt:winapisupp.obj
 0002:00001eb8       ??_C@_0BJ@JEBJOJFJ@SleepConditionVariableCS?$AA@ 0000000180063eb8     libcpmt:winapisupp.obj
 0002:00001ed8       ??_C@_0BC@MMLHEBPB@InitializeSRWLock?$AA@ 0000000180063ed8     libcpmt:winapisupp.obj
 0002:00001ef0       ??_C@_0BI@OMNLIJDB@AcquireSRWLockExclusive?$AA@ 0000000180063ef0     libcpmt:winapisupp.obj
 0002:00001f08       ??_C@_0BL@OGHFEMNA@TryAcquireSRWLockExclusive?$AA@ 0000000180063f08     libcpmt:winapisupp.obj
 0002:00001f28       ??_C@_0BI@HMIEPCNJ@ReleaseSRWLockExclusive?$AA@ 0000000180063f28     libcpmt:winapisupp.obj
 0002:00001f40       ??_C@_0BK@LGACAGIC@SleepConditionVariableSRW?$AA@ 0000000180063f40     libcpmt:winapisupp.obj
 0002:00001f60       ??_C@_0BF@GGPHFPJA@CreateThreadpoolWork?$AA@ 0000000180063f60     libcpmt:winapisupp.obj
 0002:00001f78       ??_C@_0BF@NHDAIMMO@SubmitThreadpoolWork?$AA@ 0000000180063f78     libcpmt:winapisupp.obj
 0002:00001f90       ??_C@_0BE@NPHIPNPD@CloseThreadpoolWork?$AA@ 0000000180063f90     libcpmt:winapisupp.obj
 0002:00001fa8       ??_C@_0BA@IHGNDAEB@CompareStringEx?$AA@ 0000000180063fa8     libcpmt:winapisupp.obj
 0002:00001fb8       ??_C@_0BA@ONOKGCMP@GetLocaleInfoEx?$AA@ 0000000180063fb8     libcpmt:winapisupp.obj
 0002:00001fc8       ??_C@_0O@KKBNKAPF@LCMapStringEx?$AA@ 0000000180063fc8     libcpmt:winapisupp.obj
 0002:00001fd8       ??_C@_11LOCGONAA@?$AA?$AA@ 0000000180063fd8     libcpmt:wlocale.obj
 0002:00001fe0       ??_C@_1M@KGPDPBDF@?$AAe?$AAs?$AA?9?$AAc?$AAo?$AA?$AA@ 0000000180063fe0     libcpmt:winapinls.obj
 0002:00001ff0       ??_C@_1M@EIAHOHH@?$AAe?$AAs?$AA?9?$AAc?$AAr?$AA?$AA@ 0000000180063ff0     libcpmt:winapinls.obj
 0002:00002000       ??_C@_1M@LLPGMBIN@?$AAe?$AAs?$AA?9?$AAd?$AAo?$AA?$AA@ 0000000180064000     libcpmt:winapinls.obj
 0002:00002010       ??_C@_1M@DKHMKNJA@?$AAe?$AAs?$AA?9?$AAe?$AAc?$AA?$AA@ 0000000180064010     libcpmt:winapinls.obj
 0002:00002020       ??_C@_1M@GKGFPKAP@?$AAe?$AAs?$AA?9?$AAe?$AAs?$AA?$AA@ 0000000180064020     libcpmt:winapinls.obj
 0002:00002030       ??_C@_1M@LKHKGDLN@?$AAe?$AAs?$AA?9?$AAg?$AAt?$AA?$AA@ 0000000180064030     libcpmt:winapinls.obj
 0002:00002040       ??_C@_1M@HEIIGGJD@?$AAe?$AAs?$AA?9?$AAh?$AAn?$AA?$AA@ 0000000180064040     libcpmt:winapinls.obj
 0002:00002050       ??_C@_1M@FBDHPPGD@?$AAe?$AAs?$AA?9?$AAm?$AAx?$AA?$AA@ 0000000180064050     libcpmt:winapinls.obj
 0002:00002060       ??_C@_1M@DPAGLNDH@?$AAe?$AAs?$AA?9?$AAn?$AAi?$AA?$AA@ 0000000180064060     libcpmt:winapinls.obj
 0002:00002070       ??_C@_1M@MDGOPGDD@?$AAe?$AAs?$AA?9?$AAp?$AAa?$AA?$AA@ 0000000180064070     libcpmt:winapinls.obj
 0002:00002080       ??_C@_1M@EMAMGBGE@?$AAe?$AAs?$AA?9?$AAp?$AAe?$AA?$AA@ 0000000180064080     libcpmt:winapinls.obj
 0002:00002090       ??_C@_1M@IBMCAOEC@?$AAe?$AAs?$AA?9?$AAp?$AAr?$AA?$AA@ 0000000180064090     libcpmt:winapinls.obj
 0002:000020a0       ??_C@_1M@FGMDIJED@?$AAe?$AAs?$AA?9?$AAp?$AAy?$AA?$AA@ 00000001800640a0     libcpmt:winapinls.obj
 0002:000020b0       ??_C@_1M@IIDEOLLL@?$AAe?$AAs?$AA?9?$AAs?$AAv?$AA?$AA@ 00000001800640b0     libcpmt:winapinls.obj
 0002:000020c0       ??_C@_1M@GAOBIPA@?$AAe?$AAs?$AA?9?$AAu?$AAy?$AA?$AA@ 00000001800640c0     libcpmt:winapinls.obj
 0002:000020d0       ??_C@_1M@JKFFICHJ@?$AAe?$AAs?$AA?9?$AAv?$AAe?$AA?$AA@ 00000001800640d0     libcpmt:winapinls.obj
 0002:000020e0       ??_C@_1M@PNMLOJDF@?$AAe?$AAt?$AA?9?$AAe?$AAe?$AA?$AA@ 00000001800640e0     libcpmt:winapinls.obj
 0002:000020f0       ??_C@_1M@GHHLIKEI@?$AAe?$AAu?$AA?9?$AAe?$AAs?$AA?$AA@ 00000001800640f0     libcpmt:winapinls.obj
 0002:00002100       ??_C@_1M@PBNONODE@?$AAf?$AAa?$AA?9?$AAi?$AAr?$AA?$AA@ 0000000180064100     libcpmt:winapinls.obj
 0002:00002110       ??_C@_1M@JEEHPMIL@?$AAf?$AAi?$AA?9?$AAf?$AAi?$AA?$AA@ 0000000180064110     libcpmt:winapinls.obj
 0002:00002120       ??_C@_1M@LMDCNDBA@?$AAf?$AAo?$AA?9?$AAf?$AAo?$AA?$AA@ 0000000180064120     libcpmt:winapinls.obj
 0002:00002130       ??_C@_1M@JKEOHLDK@?$AAf?$AAr?$AA?9?$AAb?$AAe?$AA?$AA@ 0000000180064130     libcpmt:winapinls.obj
 0002:00002140       ??_C@_1M@NOHADPMI@?$AAf?$AAr?$AA?9?$AAc?$AAa?$AA?$AA@ 0000000180064140     libcpmt:winapinls.obj
 0002:00002150       ??_C@_1M@KDHIHAEC@?$AAf?$AAr?$AA?9?$AAc?$AAh?$AA?$AA@ 0000000180064150     libcpmt:winapinls.obj
 0002:00002160       ??_C@_1M@MMBBFGAK@?$AAf?$AAr?$AA?9?$AAf?$AAr?$AA?$AA@ 0000000180064160     libcpmt:winapinls.obj
 0002:00002170       ??_C@_1M@PAFNENNF@?$AAf?$AAr?$AA?9?$AAl?$AAu?$AA?$AA@ 0000000180064170     libcpmt:winapinls.obj
 0002:00002180       ??_C@_1M@EOHDJGDD@?$AAf?$AAr?$AA?9?$AAm?$AAc?$AA?$AA@ 0000000180064180     libcpmt:winapinls.obj
 0002:00002190       ??_C@_1M@FAPLLOPF@?$AAg?$AAl?$AA?9?$AAe?$AAs?$AA?$AA@ 0000000180064190     libcpmt:winapinls.obj
 0002:000021a0       ??_C@_1M@FOPBFLOO@?$AAg?$AAu?$AA?9?$AAi?$AAn?$AA?$AA@ 00000001800641a0     libcpmt:winapinls.obj
 0002:000021b0       ??_C@_1M@KBMCINPM@?$AAh?$AAe?$AA?9?$AAi?$AAl?$AA?$AA@ 00000001800641b0     libcpmt:winapinls.obj
 0002:000021c0       ??_C@_1M@BBPHKFPJ@?$AAh?$AAi?$AA?9?$AAi?$AAn?$AA?$AA@ 00000001800641c0     libcpmt:winapinls.obj
 0002:000021d0       ??_C@_1M@PMBNDPHD@?$AAh?$AAr?$AA?9?$AAb?$AAa?$AA?$AA@ 00000001800641d0     libcpmt:winapinls.obj
 0002:000021e0       ??_C@_1M@BPCKOEGE@?$AAh?$AAr?$AA?9?$AAh?$AAr?$AA?$AA@ 00000001800641e0     libcpmt:winapinls.obj
 0002:000021f0       ??_C@_1M@GACBMHKE@?$AAh?$AAu?$AA?9?$AAh?$AAu?$AA?$AA@ 00000001800641f0     libcpmt:winapinls.obj
 0002:00002200       ??_C@_1M@MILPAJJC@?$AAh?$AAy?$AA?9?$AAa?$AAm?$AA?$AA@ 0000000180064200     libcpmt:winapinls.obj
 0002:00002210       ??_C@_1M@BABBICEC@?$AAi?$AAd?$AA?9?$AAi?$AAd?$AA?$AA@ 0000000180064210     libcpmt:winapinls.obj
 0002:00002220       ??_C@_1M@BIKNHHPF@?$AAi?$AAs?$AA?9?$AAi?$AAs?$AA?$AA@ 0000000180064220     libcpmt:winapinls.obj
 0002:00002230       ??_C@_1M@NMPCJPHE@?$AAi?$AAt?$AA?9?$AAc?$AAh?$AA?$AA@ 0000000180064230     libcpmt:winapinls.obj
 0002:00002240       ??_C@_1M@GHKGFEDF@?$AAi?$AAt?$AA?9?$AAi?$AAt?$AA?$AA@ 0000000180064240     libcpmt:winapinls.obj
 0002:00002250       ??_C@_1M@NIEJCJJA@?$AAj?$AAa?$AA?9?$AAj?$AAp?$AA?$AA@ 0000000180064250     libcpmt:winapinls.obj
 0002:00002260       ??_C@_1M@JILFNBIM@?$AAk?$AAa?$AA?9?$AAg?$AAe?$AA?$AA@ 0000000180064260     libcpmt:winapinls.obj
 0002:00002270       ??_C@_1M@PACPMGPH@?$AAk?$AAk?$AA?9?$AAk?$AAz?$AA?$AA@ 0000000180064270     libcpmt:winapinls.obj
 0002:00002280       ??_C@_1M@IELFGMHA@?$AAk?$AAn?$AA?9?$AAi?$AAn?$AA?$AA@ 0000000180064280     libcpmt:winapinls.obj
 0002:00002290       ??_C@_1M@DMHAEOGC@?$AAk?$AAo?$AA?9?$AAk?$AAr?$AA?$AA@ 0000000180064290     libcpmt:winapinls.obj
 0002:000022a0       ??_C@_1O@IBBJHCH@?$AAk?$AAo?$AAk?$AA?9?$AAi?$AAn?$AA?$AA@ 00000001800642a0     libcpmt:winapinls.obj
 0002:000022b0       ??_C@_1M@HBAHBIGA@?$AAk?$AAy?$AA?9?$AAk?$AAg?$AA?$AA@ 00000001800642b0     libcpmt:winapinls.obj
 0002:000022c0       ??_C@_1M@KPMILCJG@?$AAl?$AAt?$AA?9?$AAl?$AAt?$AA?$AA@ 00000001800642c0     libcpmt:winapinls.obj
 0002:000022d0       ??_C@_1M@BDEKKCA@?$AAl?$AAv?$AA?9?$AAl?$AAv?$AA?$AA@ 00000001800642d0     libcpmt:winapinls.obj
 0002:000022e0       ??_C@_1M@ELCKCCJJ@?$AAm?$AAi?$AA?9?$AAn?$AAz?$AA?$AA@ 00000001800642e0     libcpmt:winapinls.obj
 0002:000022f0       ??_C@_1M@CBOOLAPA@?$AAm?$AAk?$AA?9?$AAm?$AAk?$AA?$AA@ 00000001800642f0     libcpmt:winapinls.obj
 0002:00002300       ??_C@_1M@GPHNBJKN@?$AAm?$AAl?$AA?9?$AAi?$AAn?$AA?$AA@ 0000000180064300     libcpmt:winapinls.obj
 0002:00002310       ??_C@_1M@PABJILIG@?$AAm?$AAn?$AA?9?$AAm?$AAn?$AA?$AA@ 0000000180064310     libcpmt:winapinls.obj
 0002:00002320       ??_C@_1M@FGBKKIPG@?$AAm?$AAr?$AA?9?$AAi?$AAn?$AA?$AA@ 0000000180064320     libcpmt:winapinls.obj
 0002:00002330       ??_C@_1M@NDBPDDAL@?$AAm?$AAs?$AA?9?$AAb?$AAn?$AA?$AA@ 0000000180064330     libcpmt:winapinls.obj
 0002:00002340       ??_C@_1M@OPIHOOPI@?$AAm?$AAs?$AA?9?$AAm?$AAy?$AA?$AA@ 0000000180064340     libcpmt:winapinls.obj
 0002:00002350       ??_C@_1M@PPDBCNFM@?$AAm?$AAt?$AA?9?$AAm?$AAt?$AA?$AA@ 0000000180064350     libcpmt:winapinls.obj
 0002:00002360       ??_C@_1M@KDJDKMDD@?$AAn?$AAb?$AA?9?$AAn?$AAo?$AA?$AA@ 0000000180064360     libcpmt:winapinls.obj
 0002:00002370       ??_C@_1M@KFCFLMJP@?$AAn?$AAl?$AA?9?$AAb?$AAe?$AA?$AA@ 0000000180064370     libcpmt:winapinls.obj
 0002:00002380       ??_C@_1M@KPOPDDGO@?$AAn?$AAl?$AA?9?$AAn?$AAl?$AA?$AA@ 0000000180064380     libcpmt:winapinls.obj
 0002:00002390       ??_C@_1M@LJKPEMLN@?$AAn?$AAn?$AA?9?$AAn?$AAo?$AA?$AA@ 0000000180064390     libcpmt:winapinls.obj
 0002:000023a0       ??_C@_1M@BDGHHBFL@?$AAn?$AAs?$AA?9?$AAz?$AAa?$AA?$AA@ 00000001800643a0     libcpmt:winapinls.obj
 0002:000023b0       ??_C@_1M@IDEHOAP@?$AAp?$AAa?$AA?9?$AAi?$AAn?$AA?$AA@ 00000001800643b0     libcpmt:winapinls.obj
 0002:000023c0       ??_C@_1M@HDBKGOGH@?$AAp?$AAl?$AA?9?$AAp?$AAl?$AA?$AA@ 00000001800643c0     libcpmt:winapinls.obj
 0002:000023d0       ??_C@_1M@LJLLCMEH@?$AAp?$AAt?$AA?9?$AAb?$AAr?$AA?$AA@ 00000001800643d0     libcpmt:winapinls.obj
 0002:000023e0       ??_C@_1M@NCMONAAL@?$AAp?$AAt?$AA?9?$AAp?$AAt?$AA?$AA@ 00000001800643e0     libcpmt:winapinls.obj
 0002:000023f0       ??_C@_1O@EAKMAJDN@?$AAq?$AAu?$AAz?$AA?9?$AAb?$AAo?$AA?$AA@ 00000001800643f0     libcpmt:winapinls.obj
 0002:00002400       ??_C@_1O@BHHPIGDN@?$AAq?$AAu?$AAz?$AA?9?$AAe?$AAc?$AA?$AA@ 0000000180064400     libcpmt:winapinls.obj
 0002:00002410       ??_C@_1O@GBAPEKMJ@?$AAq?$AAu?$AAz?$AA?9?$AAp?$AAe?$AA?$AA@ 0000000180064410     libcpmt:winapinls.obj
 0002:00002420       ??_C@_1M@CLGLEFBO@?$AAr?$AAo?$AA?9?$AAr?$AAo?$AA?$AA@ 0000000180064420     libcpmt:winapinls.obj
 0002:00002430       ??_C@_1M@CEEDODME@?$AAr?$AAu?$AA?9?$AAr?$AAu?$AA?$AA@ 0000000180064430     libcpmt:winapinls.obj
 0002:00002440       ??_C@_1M@HPKKKMPP@?$AAs?$AAa?$AA?9?$AAi?$AAn?$AA?$AA@ 0000000180064440     libcpmt:winapinls.obj
 0002:00002450       ??_C@_1M@BKMAIGOJ@?$AAs?$AAe?$AA?9?$AAf?$AAi?$AA?$AA@ 0000000180064450     libcpmt:winapinls.obj
 0002:00002460       ??_C@_1M@NDPIFLFI@?$AAs?$AAe?$AA?9?$AAn?$AAo?$AA?$AA@ 0000000180064460     libcpmt:winapinls.obj
 0002:00002470       ??_C@_1M@DANKKHJ@?$AAs?$AAe?$AA?9?$AAs?$AAe?$AA?$AA@ 0000000180064470     libcpmt:winapinls.obj
 0002:00002480       ??_C@_1M@PNBLONPJ@?$AAs?$AAk?$AA?9?$AAs?$AAk?$AA?$AA@ 0000000180064480     libcpmt:winapinls.obj
 0002:00002490       ??_C@_1M@LFMODOAL@?$AAs?$AAl?$AA?9?$AAs?$AAi?$AA?$AA@ 0000000180064490     libcpmt:winapinls.obj
 0002:000024a0       ??_C@_1O@DFKOMPG@?$AAs?$AAm?$AAa?$AA?9?$AAn?$AAo?$AA?$AA@ 00000001800644a0     libcpmt:winapinls.obj
 0002:000024b0       ??_C@_1O@NDKPBNNH@?$AAs?$AAm?$AAa?$AA?9?$AAs?$AAe?$AA?$AA@ 00000001800644b0     libcpmt:winapinls.obj
 0002:000024c0       ??_C@_1O@PLLKBHAB@?$AAs?$AAm?$AAj?$AA?9?$AAn?$AAo?$AA?$AA@ 00000001800644c0     libcpmt:winapinls.obj
 0002:000024d0       ??_C@_1O@CLEPOGCA@?$AAs?$AAm?$AAj?$AA?9?$AAs?$AAe?$AA?$AA@ 00000001800644d0     libcpmt:winapinls.obj
 0002:000024e0       ??_C@_1O@DLGJGKMK@?$AAs?$AAm?$AAn?$AA?9?$AAf?$AAi?$AA?$AA@ 00000001800644e0     libcpmt:winapinls.obj
 0002:000024f0       ??_C@_1O@OJDJGAJC@?$AAs?$AAm?$AAs?$AA?9?$AAf?$AAi?$AA?$AA@ 00000001800644f0     libcpmt:winapinls.obj
 0002:00002500       ??_C@_1M@BOFOGHPB@?$AAs?$AAq?$AA?9?$AAa?$AAl?$AA?$AA@ 0000000180064500     libcpmt:winapinls.obj
 0002:00002510       ??_C@_1BG@LJBBIPGB@?$AAs?$AAr?$AA?9?$AAb?$AAa?$AA?9?$AAc?$AAy?$AAr?$AAl?$AA?$AA@ 0000000180064510     libcpmt:winapinls.obj
 0002:00002528       ??_C@_1BG@JLBENFOE@?$AAs?$AAr?$AA?9?$AAb?$AAa?$AA?9?$AAl?$AAa?$AAt?$AAn?$AA?$AA@ 0000000180064528     libcpmt:winapinls.obj
 0002:00002540       ??_C@_1BG@KODPNHE@?$AAs?$AAr?$AA?9?$AAs?$AAp?$AA?9?$AAc?$AAy?$AAr?$AAl?$AA?$AA@ 0000000180064540     libcpmt:winapinls.obj
 0002:00002558       ??_C@_1BG@CIOGKHPB@?$AAs?$AAr?$AA?9?$AAs?$AAp?$AA?9?$AAl?$AAa?$AAt?$AAn?$AA?$AA@ 0000000180064558     libcpmt:winapinls.obj
 0002:00002570       ??_C@_1M@NGFJLMAC@?$AAs?$AAv?$AA?9?$AAf?$AAi?$AA?$AA@ 0000000180064570     libcpmt:winapinls.obj
 0002:00002580       ??_C@_1M@MPJEJAJC@?$AAs?$AAv?$AA?9?$AAs?$AAe?$AA?$AA@ 0000000180064580     libcpmt:winapinls.obj
 0002:00002590       ??_C@_1M@MPNDHLFK@?$AAs?$AAw?$AA?9?$AAk?$AAe?$AA?$AA@ 0000000180064590     libcpmt:winapinls.obj
 0002:000025a0       ??_C@_1O@KOHBJJI@?$AAs?$AAy?$AAr?$AA?9?$AAs?$AAy?$AA?$AA@ 00000001800645a0     libcpmt:winapinls.obj
 0002:000025b0       ??_C@_1M@LDCEFHA@?$AAt?$AAa?$AA?9?$AAi?$AAn?$AA?$AA@ 00000001800645b0     libcpmt:winapinls.obj
 0002:000025c0       ??_C@_1M@CNJOFAK@?$AAt?$AAe?$AA?9?$AAi?$AAn?$AA?$AA@ 00000001800645c0     libcpmt:winapinls.obj
 0002:000025d0       ??_C@_1M@GNAECACD@?$AAt?$AAh?$AA?9?$AAt?$AAh?$AA?$AA@ 00000001800645d0     libcpmt:winapinls.obj
 0002:000025e0       ??_C@_1M@CHBIHOJO@?$AAt?$AAn?$AA?9?$AAz?$AAa?$AA?$AA@ 00000001800645e0     libcpmt:winapinls.obj
 0002:000025f0       ??_C@_1M@GCCMIGPJ@?$AAt?$AAr?$AA?9?$AAt?$AAr?$AA?$AA@ 00000001800645f0     libcpmt:winapinls.obj
 0002:00002600       ??_C@_1M@CELMCNBK@?$AAt?$AAt?$AA?9?$AAr?$AAu?$AA?$AA@ 0000000180064600     libcpmt:winapinls.obj
 0002:00002610       ??_C@_1M@KLMCELGA@?$AAu?$AAk?$AA?9?$AAu?$AAa?$AA?$AA@ 0000000180064610     libcpmt:winapinls.obj
 0002:00002620       ??_C@_1M@EPAJJAJF@?$AAu?$AAr?$AA?9?$AAp?$AAk?$AA?$AA@ 0000000180064620     libcpmt:winapinls.obj
 0002:00002630       ??_C@_1BG@GEGPMCDJ@?$AAu?$AAz?$AA?9?$AAu?$AAz?$AA?9?$AAc?$AAy?$AAr?$AAl?$AA?$AA@ 0000000180064630     libcpmt:winapinls.obj
 0002:00002648       ??_C@_1BG@EGGKJILM@?$AAu?$AAz?$AA?9?$AAu?$AAz?$AA?9?$AAl?$AAa?$AAt?$AAn?$AA?$AA@ 0000000180064648     libcpmt:winapinls.obj
 0002:00002660       ??_C@_1M@GFOCLFF@?$AAv?$AAi?$AA?9?$AAv?$AAn?$AA?$AA@ 0000000180064660     libcpmt:winapinls.obj
 0002:00002670       ??_C@_1M@CPAMEDFI@?$AAx?$AAh?$AA?9?$AAz?$AAa?$AA?$AA@ 0000000180064670     libcpmt:winapinls.obj
 0002:00002680       ??_C@_1O@EBKIFIGN@?$AAz?$AAh?$AA?9?$AAc?$AAh?$AAs?$AA?$AA@ 0000000180064680     libcpmt:winapinls.obj
 0002:00002690       ??_C@_1O@NMHPGANE@?$AAz?$AAh?$AA?9?$AAc?$AAh?$AAt?$AA?$AA@ 0000000180064690     libcpmt:winapinls.obj
 0002:000026a0       ??_C@_1M@LPINJOMC@?$AAz?$AAh?$AA?9?$AAc?$AAn?$AA?$AA@ 00000001800646a0     libcpmt:winapinls.obj
 0002:000026b0       ??_C@_1M@OCJEJODD@?$AAz?$AAh?$AA?9?$AAh?$AAk?$AA?$AA@ 00000001800646b0     libcpmt:winapinls.obj
 0002:000026c0       ??_C@_1M@DNDLJINH@?$AAz?$AAh?$AA?9?$AAm?$AAo?$AA?$AA@ 00000001800646c0     libcpmt:winapinls.obj
 0002:000026d0       ??_C@_1M@MBFDNDND@?$AAz?$AAh?$AA?9?$AAs?$AAg?$AA?$AA@ 00000001800646d0     libcpmt:winapinls.obj
 0002:000026e0       ??_C@_1M@IMEPLEPE@?$AAz?$AAh?$AA?9?$AAt?$AAw?$AA?$AA@ 00000001800646e0     libcpmt:winapinls.obj
 0002:000026f0       ??_C@_1M@BBGHNHJP@?$AAz?$AAu?$AA?9?$AAz?$AAa?$AA?$AA@ 00000001800646f0     libcpmt:winapinls.obj
 0002:00004380       ??_C@_15EMKDOKLE@?$AAa?$AAr?$AA?$AA@ 0000000180066380     libcpmt:winapinls.obj
 0002:00004388       ??_C@_15KNPADPLH@?$AAb?$AAg?$AA?$AA@ 0000000180066388     libcpmt:winapinls.obj
 0002:00004390       ??_C@_15EDMHLDMO@?$AAc?$AAa?$AA?$AA@ 0000000180066390     libcpmt:winapinls.obj
 0002:00004398       ??_C@_1O@BPEAJADD@?$AAz?$AAh?$AA?9?$AAC?$AAH?$AAS?$AA?$AA@ 0000000180066398     libcpmt:winapinls.obj
 0002:000043a8       ??_C@_15LJNHCMNK@?$AAc?$AAs?$AA?$AA@ 00000001800663a8     libcpmt:winapinls.obj
 0002:000043b0       ??_C@_15FOMCIDHG@?$AAd?$AAa?$AA?$AA@ 00000001800663b0     libcpmt:winapinls.obj
 0002:000043b8       ??_C@_15NBKABECB@?$AAd?$AAe?$AA?$AA@ 00000001800663b8     libcpmt:winapinls.obj
 0002:000043c0       ??_C@_15GHPEIIAO@?$AAe?$AAl?$AA?$AA@ 00000001800663c0     libcpmt:winapinls.obj
 0002:000043c8       ??_C@_15MNPNEAIF@?$AAe?$AAn?$AA?$AA@ 00000001800663c8     libcpmt:winapinls.obj
 0002:000043d0       ??_C@_15GPIOMPMH@?$AAe?$AAs?$AA?$AA@ 00000001800663d0     libcpmt:winapinls.obj
 0002:000043d8       ??_C@_15NGLOAKJC@?$AAf?$AAi?$AA?$AA@ 00000001800663d8     libcpmt:winapinls.obj
 0002:000043e0       ??_C@_15FBKGNKAM@?$AAf?$AAr?$AA?$AA@ 00000001800663e0     libcpmt:winapinls.obj
 0002:000043e8       ??_C@_15KGGCNEFK@?$AAh?$AAe?$AA?$AA@ 00000001800663e8     libcpmt:winapinls.obj
 0002:000043f0       ??_C@_15PGHLIDMF@?$AAh?$AAu?$AA?$AA@ 00000001800663f0     libcpmt:winapinls.obj
 0002:000043f8       ??_C@_15BIEMAPLM@?$AAi?$AAs?$AA?$AA@ 00000001800663f8     libcpmt:winapinls.obj
 0002:00004400       ??_C@_15IFJLDHAF@?$AAi?$AAt?$AA?$AA@ 0000000180066400     libcpmt:winapinls.obj
 0002:00004408       ??_C@_15GEMIOCAG@?$AAj?$AAa?$AA?$AA@ 0000000180066408     libcpmt:winapinls.obj
 0002:00004410       ??_C@_15EPELEGJA@?$AAk?$AAo?$AA?$AA@ 0000000180066410     libcpmt:winapinls.obj
 0002:00004418       ??_C@_15NDDHIMN@?$AAn?$AAl?$AA?$AA@ 0000000180066418     libcpmt:winapinls.obj
 0002:00004420       ??_C@_15BPIGNHCD@?$AAn?$AAo?$AA?$AA@ 0000000180066420     libcpmt:winapinls.obj
 0002:00004428       ??_C@_15DEOPBLCG@?$AAp?$AAl?$AA?$AA@ 0000000180066428     libcpmt:winapinls.obj
 0002:00004430       ??_C@_15KBECGEFG@?$AAp?$AAt?$AA?$AA@ 0000000180066430     libcpmt:winapinls.obj
 0002:00004438       ??_C@_15GLJCBFMD@?$AAr?$AAo?$AA?$AA@ 0000000180066438     libcpmt:winapinls.obj
 0002:00004440       ??_C@_15FEDGKCDI@?$AAr?$AAu?$AA?$AA@ 0000000180066440     libcpmt:winapinls.obj
 0002:00004448       ??_C@_15GLKMLLHM@?$AAh?$AAr?$AA?$AA@ 0000000180066448     libcpmt:winapinls.obj
 0002:00004450       ??_C@_15CPKMFBDB@?$AAs?$AAk?$AA?$AA@ 0000000180066450     libcpmt:winapinls.obj
 0002:00004458       ??_C@_15BAAIOGMK@?$AAs?$AAq?$AA?$AA@ 0000000180066458     libcpmt:winapinls.obj
 0002:00004460       ??_C@_15INNPNOHD@?$AAs?$AAv?$AA?$AA@ 0000000180066460     libcpmt:winapinls.obj
 0002:00004468       ??_C@_15CABMMOGH@?$AAt?$AAh?$AA?$AA@ 0000000180066468     libcpmt:winapinls.obj
 0002:00004470       ??_C@_15BPLIHJJM@?$AAt?$AAr?$AA?$AA@ 0000000180066470     libcpmt:winapinls.obj
 0002:00004478       ??_C@_15NEOEKKDJ@?$AAu?$AAr?$AA?$AA@ 0000000180066478     libcpmt:winapinls.obj
 0002:00004480       ??_C@_15NFICGAJK@?$AAi?$AAd?$AA?$AA@ 0000000180066480     libcpmt:winapinls.obj
 0002:00004488       ??_C@_15PJPFLCCM@?$AAu?$AAk?$AA?$AA@ 0000000180066488     libcpmt:winapinls.obj
 0002:00004490       ??_C@_15HPJPHDM@?$AAb?$AAe?$AA?$AA@ 0000000180066490     libcpmt:winapinls.obj
 0002:00004498       ??_C@_15LCHLGJII@?$AAs?$AAl?$AA?$AA@ 0000000180066498     libcpmt:winapinls.obj
 0002:000044a0       ??_C@_15PCFJPHHO@?$AAe?$AAt?$AA?$AA@ 00000001800664a0     libcpmt:winapinls.obj
 0002:000044a8       ??_C@_15HPFPGODN@?$AAl?$AAv?$AA?$AA@ 00000001800664a8     libcpmt:winapinls.obj
 0002:000044b0       ??_C@_15NFFGKGLG@?$AAl?$AAt?$AA?$AA@ 00000001800664b0     libcpmt:winapinls.obj
 0002:000044b8       ??_C@_15BDAKCCHN@?$AAf?$AAa?$AA?$AA@ 00000001800664b8     libcpmt:winapinls.obj
 0002:000044c0       ??_C@_15NFGIAIAJ@?$AAv?$AAi?$AA?$AA@ 00000001800664c0     libcpmt:winapinls.obj
 0002:000044c8       ??_C@_15LMKNDMHN@?$AAh?$AAy?$AA?$AA@ 00000001800664c8     libcpmt:winapinls.obj
 0002:000044d0       ??_C@_15IJBHMCFL@?$AAa?$AAz?$AA?$AA@ 00000001800664d0     libcpmt:winapinls.obj
 0002:000044d8       ??_C@_15EKOFJABL@?$AAe?$AAu?$AA?$AA@ 00000001800664d8     libcpmt:winapinls.obj
 0002:000044e0       ??_C@_15BGHADCNK@?$AAm?$AAk?$AA?$AA@ 00000001800664e0     libcpmt:winapinls.obj
 0002:000044e8       ??_C@_15JDNICKHM@?$AAa?$AAf?$AA?$AA@ 00000001800664e8     libcpmt:winapinls.obj
 0002:000044f0       ??_C@_15KPJEDBKD@?$AAk?$AAa?$AA?$AA@ 00000001800664f0     libcpmt:winapinls.obj
 0002:000044f8       ??_C@_15PDNFFFEO@?$AAf?$AAo?$AA?$AA@ 00000001800664f8     libcpmt:winapinls.obj
 0002:00004500       ??_C@_15OMLEGLOC@?$AAh?$AAi?$AA?$AA@ 0000000180066500     libcpmt:winapinls.obj
 0002:00004508       ??_C@_15IDNNENKK@?$AAm?$AAs?$AA?$AA@ 0000000180066508     libcpmt:winapinls.obj
 0002:00004510       ??_C@_15MACJNBMH@?$AAk?$AAk?$AA?$AA@ 0000000180066510     libcpmt:winapinls.obj
 0002:00004518       ??_C@_15DKDJEOND@?$AAk?$AAy?$AA?$AA@ 0000000180066518     libcpmt:winapinls.obj
 0002:00004520       ??_C@_15DFGDLJBG@?$AAs?$AAw?$AA?$AA@ 0000000180066520     libcpmt:winapinls.obj
 0002:00004528       ??_C@_15BBFAICNG@?$AAu?$AAz?$AA?$AA@ 0000000180066528     libcpmt:winapinls.obj
 0002:00004530       ??_C@_15DKNDCGEA@?$AAt?$AAt?$AA?$AA@ 0000000180066530     libcpmt:winapinls.obj
 0002:00004538       ??_C@_15MGIFMDPL@?$AAp?$AAa?$AA?$AA@ 0000000180066538     libcpmt:winapinls.obj
 0002:00004540       ??_C@_15HCNDBBA@?$AAg?$AAu?$AA?$AA@ 0000000180066540     libcpmt:winapinls.obj
 0002:00004548       ??_C@_15FNBEIBON@?$AAt?$AAa?$AA?$AA@ 0000000180066548     libcpmt:winapinls.obj
 0002:00004550       ??_C@_15NCHGBGLK@?$AAt?$AAe?$AA?$AA@ 0000000180066550     libcpmt:winapinls.obj
 0002:00004558       ??_C@_15PHPHCBPF@?$AAk?$AAn?$AA?$AA@ 0000000180066558     libcpmt:winapinls.obj
 0002:00004560       ??_C@_15DLGBCKMP@?$AAm?$AAr?$AA?$AA@ 0000000180066560     libcpmt:winapinls.obj
 0002:00004568       ??_C@_15EABBLBFF@?$AAs?$AAa?$AA?$AA@ 0000000180066568     libcpmt:winapinls.obj
 0002:00004570       ??_C@_15CBKOMCOI@?$AAm?$AAn?$AA?$AA@ 0000000180066570     libcpmt:winapinls.obj
 0002:00004578       ??_C@_15CKDMCJAF@?$AAg?$AAl?$AA?$AA@ 0000000180066578     libcpmt:winapinls.obj
 0002:00004580       ??_C@_17CNJFBPG@?$AAk?$AAo?$AAk?$AA?$AA@ 0000000180066580     libcpmt:winapinls.obj
 0002:00004588       ??_C@_17FFBJICPL@?$AAs?$AAy?$AAr?$AA?$AA@ 0000000180066588     libcpmt:winapinls.obj
 0002:00004590       ??_C@_17KPNDCPAF@?$AAd?$AAi?$AAv?$AA?$AA@ 0000000180066590     libcpmt:winapinls.obj
 0002:00004598       ??_C@_1M@OKAHONE@?$AAa?$AAr?$AA?9?$AAS?$AAA?$AA?$AA@ 0000000180066598     libcpmt:winapinls.obj
 0002:000045a8       ??_C@_1M@FFFIGIGK@?$AAb?$AAg?$AA?9?$AAB?$AAG?$AA?$AA@ 00000001800665a8     libcpmt:winapinls.obj
 0002:000045b8       ??_C@_1M@BJNKEDC@?$AAc?$AAa?$AA?9?$AAE?$AAS?$AA?$AA@ 00000001800665b8     libcpmt:winapinls.obj
 0002:000045c8       ??_C@_1M@CLNBBOPM@?$AAz?$AAh?$AA?9?$AAT?$AAW?$AA?$AA@ 00000001800665c8     libcpmt:winapinls.obj
 0002:000045d8       ??_C@_1M@IJJHFJHA@?$AAc?$AAs?$AA?9?$AAC?$AAZ?$AA?$AA@ 00000001800665d8     libcpmt:winapinls.obj
 0002:000045e8       ??_C@_1M@CLPEOBGI@?$AAd?$AAa?$AA?9?$AAD?$AAK?$AA?$AA@ 00000001800665e8     libcpmt:winapinls.obj
 0002:000045f8       ??_C@_1M@MCMADGCB@?$AAd?$AAe?$AA?9?$AAD?$AAE?$AA?$AA@ 00000001800665f8     libcpmt:winapinls.obj
 0002:00004608       ??_C@_1M@OOCKEMAM@?$AAe?$AAl?$AA?9?$AAG?$AAR?$AA?$AA@ 0000000180066608     libcpmt:winapinls.obj
 0002:00004618       ??_C@_1M@BMHNFIME@?$AAe?$AAn?$AA?9?$AAU?$AAS?$AA?$AA@ 0000000180066618     libcpmt:winapinls.obj
 0002:00004628       ??_C@_1M@DDNJFGID@?$AAf?$AAi?$AA?9?$AAF?$AAI?$AA?$AA@ 0000000180066628     libcpmt:winapinls.obj
 0002:00004638       ??_C@_1M@GLIPPMAC@?$AAf?$AAr?$AA?9?$AAF?$AAR?$AA?$AA@ 0000000180066638     libcpmt:winapinls.obj
 0002:00004648       ??_C@_1M@GFMCHPE@?$AAh?$AAe?$AA?9?$AAI?$AAL?$AA?$AA@ 0000000180066648     libcpmt:winapinls.obj
 0002:00004658       ??_C@_1M@MHLPGNKM@?$AAh?$AAu?$AA?9?$AAH?$AAU?$AA?$AA@ 0000000180066658     libcpmt:winapinls.obj
 0002:00004668       ??_C@_1M@LPDDNNPN@?$AAi?$AAs?$AA?9?$AAI?$AAS?$AA?$AA@ 0000000180066668     libcpmt:winapinls.obj
 0002:00004678       ??_C@_1M@MADIPODN@?$AAi?$AAt?$AA?9?$AAI?$AAT?$AA?$AA@ 0000000180066678     libcpmt:winapinls.obj
 0002:00004688       ??_C@_1M@HPNHIDJI@?$AAj?$AAa?$AA?9?$AAJ?$AAP?$AA?$AA@ 0000000180066688     libcpmt:winapinls.obj
 0002:00004698       ??_C@_1M@JLOOOEGK@?$AAk?$AAo?$AA?9?$AAK?$AAR?$AA?$AA@ 0000000180066698     libcpmt:winapinls.obj
 0002:000046a8       ??_C@_1M@IHBJJGG@?$AAn?$AAl?$AA?9?$AAN?$AAL?$AA?$AA@ 00000001800666a8     libcpmt:winapinls.obj
 0002:000046b8       ??_C@_1M@EANAGDL@?$AAn?$AAb?$AA?9?$AAN?$AAO?$AA?$AA@ 00000001800666b8     libcpmt:winapinls.obj
 0002:000046c8       ??_C@_1M@NEIEMEGP@?$AAp?$AAl?$AA?9?$AAP?$AAL?$AA?$AA@ 00000001800666c8     libcpmt:winapinls.obj
 0002:000046d8       ??_C@_1M@BOCFIGEP@?$AAp?$AAt?$AA?9?$AAB?$AAR?$AA?$AA@ 00000001800666d8     libcpmt:winapinls.obj
 0002:000046e8       ??_C@_1M@IMPFOPBG@?$AAr?$AAo?$AA?9?$AAR?$AAO?$AA?$AA@ 00000001800666e8     libcpmt:winapinls.obj
 0002:000046f8       ??_C@_1M@IDNNEJMM@?$AAr?$AAu?$AA?9?$AAR?$AAU?$AA?$AA@ 00000001800666f8     libcpmt:winapinls.obj
 0002:00004708       ??_C@_1M@LILEEOGM@?$AAh?$AAr?$AA?9?$AAH?$AAR?$AA?$AA@ 0000000180066708     libcpmt:winapinls.obj
 0002:00004718       ??_C@_1M@FKIFEHPB@?$AAs?$AAk?$AA?9?$AAS?$AAK?$AA?$AA@ 0000000180066718     libcpmt:winapinls.obj
 0002:00004728       ??_C@_1M@LJMAMNPJ@?$AAs?$AAq?$AA?9?$AAA?$AAL?$AA?$AA@ 0000000180066728     libcpmt:winapinls.obj
 0002:00004738       ??_C@_1M@GIAKDKJK@?$AAs?$AAv?$AA?9?$AAS?$AAE?$AA?$AA@ 0000000180066738     libcpmt:winapinls.obj
 0002:00004748       ??_C@_1M@MKJKIKCL@?$AAt?$AAh?$AA?9?$AAT?$AAH?$AA?$AA@ 0000000180066748     libcpmt:winapinls.obj
 0002:00004758       ??_C@_1M@MFLCCMPB@?$AAt?$AAr?$AA?9?$AAT?$AAR?$AA?$AA@ 0000000180066758     libcpmt:winapinls.obj
 0002:00004768       ??_C@_1M@OIJHDKJN@?$AAu?$AAr?$AA?9?$AAP?$AAK?$AA?$AA@ 0000000180066768     libcpmt:winapinls.obj
 0002:00004778       ??_C@_1M@LHIPCIEK@?$AAi?$AAd?$AA?9?$AAI?$AAD?$AA?$AA@ 0000000180066778     libcpmt:winapinls.obj
 0002:00004788       ??_C@_1M@MFMOBGI@?$AAu?$AAk?$AA?9?$AAU?$AAA?$AA?$AA@ 0000000180066788     libcpmt:winapinls.obj
 0002:00004798       ??_C@_1M@OBGLJIPL@?$AAb?$AAe?$AA?9?$AAB?$AAY?$AA?$AA@ 0000000180066798     libcpmt:winapinls.obj
 0002:000047a8       ??_C@_1M@BCFAJEAD@?$AAs?$AAl?$AA?9?$AAS?$AAI?$AA?$AA@ 00000001800667a8     libcpmt:winapinls.obj
 0002:000047b8       ??_C@_1M@FKFFEDDN@?$AAe?$AAt?$AA?9?$AAE?$AAE?$AA?$AA@ 00000001800667b8     libcpmt:winapinls.obj
 0002:000047c8       ??_C@_1M@KGKKAACI@?$AAl?$AAv?$AA?9?$AAL?$AAV?$AA?$AA@ 00000001800667c8     libcpmt:winapinls.obj
 0002:000047d8       ??_C@_1M@IFGBIJO@?$AAl?$AAt?$AA?9?$AAL?$AAT?$AA?$AA@ 00000001800667d8     libcpmt:winapinls.obj
 0002:000047e8       ??_C@_1M@FGEAHEDM@?$AAf?$AAa?$AA?9?$AAI?$AAR?$AA?$AA@ 00000001800667e8     libcpmt:winapinls.obj
 0002:000047f8       ??_C@_1M@KBMAIBFN@?$AAv?$AAi?$AA?9?$AAV?$AAN?$AA?$AA@ 00000001800667f8     libcpmt:winapinls.obj
 0002:00004808       ??_C@_1M@GPCBKDJK@?$AAh?$AAy?$AA?9?$AAA?$AAM?$AA?$AA@ 0000000180066808     libcpmt:winapinls.obj
 0002:00004818       ??_C@_1BG@BECMDDJB@?$AAa?$AAz?$AA?9?$AAA?$AAZ?$AA?9?$AAL?$AAa?$AAt?$AAn?$AA?$AA@ 0000000180066818     libcpmt:winapinls.obj
 0002:00004830       ??_C@_1M@MAOFCAEA@?$AAe?$AAu?$AA?9?$AAE?$AAS?$AA?$AA@ 0000000180066830     libcpmt:winapinls.obj
 0002:00004840       ??_C@_1M@IGHABKPI@?$AAm?$AAk?$AA?9?$AAM?$AAK?$AA?$AA@ 0000000180066840     libcpmt:winapinls.obj
 0002:00004850       ??_C@_1M@IAIGNEJG@?$AAt?$AAn?$AA?9?$AAZ?$AAA?$AA?$AA@ 0000000180066850     libcpmt:winapinls.obj
 0002:00004860       ??_C@_1M@IIJCOJFA@?$AAx?$AAh?$AA?9?$AAZ?$AAA?$AA?$AA@ 0000000180066860     libcpmt:winapinls.obj
 0002:00004870       ??_C@_1M@LGPJHNJH@?$AAz?$AAu?$AA?9?$AAZ?$AAA?$AA?$AA@ 0000000180066870     libcpmt:winapinls.obj
 0002:00004880       ??_C@_1M@HOKAOIO@?$AAa?$AAf?$AA?9?$AAZ?$AAA?$AA?$AA@ 0000000180066880     libcpmt:winapinls.obj
 0002:00004890       ??_C@_1M@DPCLHLIE@?$AAk?$AAa?$AA?9?$AAG?$AAE?$AA?$AA@ 0000000180066890     libcpmt:winapinls.obj
 0002:000048a0       ??_C@_1M@BLKMHJBI@?$AAf?$AAo?$AA?9?$AAF?$AAO?$AA?$AA@ 00000001800668a0     libcpmt:winapinls.obj
 0002:000048b0       ??_C@_1M@LGGJAPPB@?$AAh?$AAi?$AA?9?$AAI?$AAN?$AA?$AA@ 00000001800668b0     libcpmt:winapinls.obj
 0002:000048c0       ??_C@_1M@FIKPIHFE@?$AAm?$AAt?$AA?9?$AAM?$AAT?$AA?$AA@ 00000001800668c0     libcpmt:winapinls.obj
 0002:000048d0       ??_C@_1M@HEGGPBFA@?$AAs?$AAe?$AA?9?$AAN?$AAO?$AA?$AA@ 00000001800668d0     libcpmt:winapinls.obj
 0002:000048e0       ??_C@_1M@EIBJEEPA@?$AAm?$AAs?$AA?9?$AAM?$AAY?$AA?$AA@ 00000001800668e0     libcpmt:winapinls.obj
 0002:000048f0       ??_C@_1M@FHLBGMPP@?$AAk?$AAk?$AA?9?$AAK?$AAZ?$AA?$AA@ 00000001800668f0     libcpmt:winapinls.obj
 0002:00004900       ??_C@_1M@NGJJLCGI@?$AAk?$AAy?$AA?9?$AAK?$AAG?$AA?$AA@ 0000000180066900     libcpmt:winapinls.obj
 0002:00004910       ??_C@_1M@GIENNBFC@?$AAs?$AAw?$AA?9?$AAK?$AAE?$AA?$AA@ 0000000180066910     libcpmt:winapinls.obj
 0002:00004920       ??_C@_1BG@NDGMJIMJ@?$AAu?$AAz?$AA?9?$AAU?$AAZ?$AA?9?$AAL?$AAa?$AAt?$AAn?$AA?$AA@ 0000000180066920     libcpmt:winapinls.obj
 0002:00004938       ??_C@_1M@IDCCIHBC@?$AAt?$AAt?$AA?9?$AAR?$AAU?$AA?$AA@ 0000000180066938     libcpmt:winapinls.obj
 0002:00004948       ??_C@_1M@LOICPMOJ@?$AAb?$AAn?$AA?9?$AAI?$AAN?$AA?$AA@ 0000000180066948     libcpmt:winapinls.obj
 0002:00004958       ??_C@_1M@KPKKNEAH@?$AAp?$AAa?$AA?9?$AAI?$AAN?$AA?$AA@ 0000000180066958     libcpmt:winapinls.obj
 0002:00004968       ??_C@_1M@PJGPPBOG@?$AAg?$AAu?$AA?9?$AAI?$AAN?$AA?$AA@ 0000000180066968     libcpmt:winapinls.obj
 0002:00004978       ??_C@_1M@KMKMOPHI@?$AAt?$AAa?$AA?9?$AAI?$AAN?$AA?$AA@ 0000000180066978     libcpmt:winapinls.obj
 0002:00004988       ??_C@_1M@KFEHEPAC@?$AAt?$AAe?$AA?9?$AAI?$AAN?$AA?$AA@ 0000000180066988     libcpmt:winapinls.obj
 0002:00004998       ??_C@_1M@CDCLMGHI@?$AAk?$AAn?$AA?9?$AAI?$AAN?$AA?$AA@ 0000000180066998     libcpmt:winapinls.obj
 0002:000049a8       ??_C@_1M@MIODLDKF@?$AAm?$AAl?$AA?9?$AAI?$AAN?$AA?$AA@ 00000001800669a8     libcpmt:winapinls.obj
 0002:000049b8       ??_C@_1M@PBIEACPO@?$AAm?$AAr?$AA?9?$AAI?$AAN?$AA?$AA@ 00000001800669b8     libcpmt:winapinls.obj
 0002:000049c8       ??_C@_1M@NIDEAGPH@?$AAs?$AAa?$AA?9?$AAI?$AAN?$AA?$AA@ 00000001800669c8     libcpmt:winapinls.obj
 0002:000049d8       ??_C@_1M@FHIHCBIO@?$AAm?$AAn?$AA?9?$AAM?$AAN?$AA?$AA@ 00000001800669d8     libcpmt:winapinls.obj
 0002:000049e8       ??_C@_1M@JAIJPENP@?$AAc?$AAy?$AA?9?$AAG?$AAB?$AA?$AA@ 00000001800669e8     libcpmt:winapinls.obj
 0002:000049f8       ??_C@_1M@PHGFBEPN@?$AAg?$AAl?$AA?9?$AAE?$AAS?$AA?$AA@ 00000001800669f8     libcpmt:winapinls.obj
 0002:00004a08       ??_C@_1O@KPIPDNCP@?$AAk?$AAo?$AAk?$AA?9?$AAI?$AAN?$AA?$AA@ 0000000180066a08     libcpmt:winapinls.obj
 0002:00004a18       ??_C@_1O@KNHJLDJA@?$AAs?$AAy?$AAr?$AA?9?$AAS?$AAY?$AA?$AA@ 0000000180066a18     libcpmt:winapinls.obj
 0002:00004a28       ??_C@_1O@MKEKBLAH@?$AAd?$AAi?$AAv?$AA?9?$AAM?$AAV?$AA?$AA@ 0000000180066a28     libcpmt:winapinls.obj
 0002:00004a38       ??_C@_1O@OHDCKDDF@?$AAq?$AAu?$AAz?$AA?9?$AAB?$AAO?$AA?$AA@ 0000000180066a38     libcpmt:winapinls.obj
 0002:00004a48       ??_C@_1M@LEPJNLFD@?$AAn?$AAs?$AA?9?$AAZ?$AAA?$AA?$AA@ 0000000180066a48     libcpmt:winapinls.obj
 0002:00004a58       ??_C@_1M@OMLEIIJB@?$AAm?$AAi?$AA?9?$AAN?$AAZ?$AA?$AA@ 0000000180066a58     libcpmt:winapinls.obj
 0002:00004a68       ??_C@_1M@PMPEAILG@?$AAa?$AAr?$AA?9?$AAI?$AAQ?$AA?$AA@ 0000000180066a68     libcpmt:winapinls.obj
 0002:00004a78       ??_C@_1M@BIBDDEMK@?$AAz?$AAh?$AA?9?$AAC?$AAN?$AA?$AA@ 0000000180066a78     libcpmt:winapinls.obj
 0002:00004a88       ??_C@_1M@CNKPNOEE@?$AAd?$AAe?$AA?9?$AAC?$AAH?$AA?$AA@ 0000000180066a88     libcpmt:winapinls.obj
 0002:00004a98       ??_C@_1M@LKMGMLKO@?$AAe?$AAn?$AA?9?$AAG?$AAB?$AA?$AA@ 0000000180066a98     libcpmt:winapinls.obj
 0002:00004aa8       ??_C@_1M@PGKJFFGL@?$AAe?$AAs?$AA?9?$AAM?$AAX?$AA?$AA@ 0000000180066aa8     libcpmt:winapinls.obj
 0002:00004ab8       ??_C@_1M@DNNANBDC@?$AAf?$AAr?$AA?9?$AAB?$AAE?$AA?$AA@ 0000000180066ab8     libcpmt:winapinls.obj
 0002:00004ac8       ??_C@_1M@HLGMDFHM@?$AAi?$AAt?$AA?9?$AAC?$AAH?$AA?$AA@ 0000000180066ac8     libcpmt:winapinls.obj
 0002:00004ad8       ??_C@_1M@CLLBGJH@?$AAn?$AAl?$AA?9?$AAB?$AAE?$AA?$AA@ 0000000180066ad8     libcpmt:winapinls.obj
 0002:00004ae8       ??_C@_1M@BODBOGLF@?$AAn?$AAn?$AA?9?$AAN?$AAO?$AA?$AA@ 0000000180066ae8     libcpmt:winapinls.obj
 0002:00004af8       ??_C@_1M@HFFAHKAD@?$AAp?$AAt?$AA?9?$AAP?$AAT?$AA?$AA@ 0000000180066af8     libcpmt:winapinls.obj
 0002:00004b08       ??_C@_1BG@LNOAKHIE@?$AAs?$AAr?$AA?9?$AAS?$AAP?$AA?9?$AAL?$AAa?$AAt?$AAn?$AA?$AA@ 0000000180066b08     libcpmt:winapinls.obj
 0002:00004b20       ??_C@_1M@HBMHBGAK@?$AAs?$AAv?$AA?9?$AAF?$AAI?$AA?$AA@ 0000000180066b20     libcpmt:winapinls.obj
 0002:00004b30       ??_C@_1BG@DGCJGJBE@?$AAa?$AAz?$AA?9?$AAA?$AAZ?$AA?9?$AAC?$AAy?$AAr?$AAl?$AA?$AA@ 0000000180066b30     libcpmt:winapinls.obj
 0002:00004b48       ??_C@_1M@KEJDAAHB@?$AAs?$AAe?$AA?9?$AAS?$AAE?$AA?$AA@ 0000000180066b48     libcpmt:winapinls.obj
 0002:00004b58       ??_C@_1M@HEIBJJAD@?$AAm?$AAs?$AA?9?$AAB?$AAN?$AA?$AA@ 0000000180066b58     libcpmt:winapinls.obj
 0002:00004b68       ??_C@_1BG@PBGJMCEM@?$AAu?$AAz?$AA?9?$AAU?$AAZ?$AA?9?$AAC?$AAy?$AAr?$AAl?$AA?$AA@ 0000000180066b68     libcpmt:winapinls.obj
 0002:00004b80       ??_C@_1O@LAOBCMDF@?$AAq?$AAu?$AAz?$AA?9?$AAE?$AAC?$AA?$AA@ 0000000180066b80     libcpmt:winapinls.obj
 0002:00004b90       ??_C@_1M@POEEMAIO@?$AAa?$AAr?$AA?9?$AAE?$AAG?$AA?$AA@ 0000000180066b90     libcpmt:winapinls.obj
 0002:00004ba0       ??_C@_1M@EFAKDEDL@?$AAz?$AAh?$AA?9?$AAH?$AAK?$AA?$AA@ 0000000180066ba0     libcpmt:winapinls.obj
 0002:00004bb0       ??_C@_1M@HKKIJHGI@?$AAd?$AAe?$AA?9?$AAA?$AAT?$AA?$AA@ 0000000180066bb0     libcpmt:winapinls.obj
 0002:00004bc0       ??_C@_1M@KBFBEHJF@?$AAe?$AAn?$AA?9?$AAA?$AAU?$AA?$AA@ 0000000180066bc0     libcpmt:winapinls.obj
 0002:00004bd0       ??_C@_1M@MNPLFAAH@?$AAe?$AAs?$AA?9?$AAE?$AAS?$AA?$AA@ 0000000180066bd0     libcpmt:winapinls.obj
 0002:00004be0       ??_C@_1M@HJOOJFMA@?$AAf?$AAr?$AA?9?$AAC?$AAA?$AA?$AA@ 0000000180066be0     libcpmt:winapinls.obj
 0002:00004bf0       ??_C@_1BG@JPOFPNAB@?$AAs?$AAr?$AA?9?$AAS?$AAP?$AA?9?$AAC?$AAy?$AAr?$AAl?$AA?$AA@ 0000000180066bf0     libcpmt:winapinls.obj
 0002:00004c08       ??_C@_1M@LNFOCMOB@?$AAs?$AAe?$AA?9?$AAF?$AAI?$AA?$AA@ 0000000180066c08     libcpmt:winapinls.obj
 0002:00004c18       ??_C@_1O@MGJBOAMB@?$AAq?$AAu?$AAz?$AA?9?$AAP?$AAE?$AA?$AA@ 0000000180066c18     libcpmt:winapinls.obj
 0002:00004c28       ??_C@_1M@GJINLBOK@?$AAa?$AAr?$AA?9?$AAL?$AAY?$AA?$AA@ 0000000180066c28     libcpmt:winapinls.obj
 0002:00004c38       ??_C@_1M@GGMNHJNL@?$AAz?$AAh?$AA?9?$AAS?$AAG?$AA?$AA@ 0000000180066c38     libcpmt:winapinls.obj
 0002:00004c48       ??_C@_1M@HOIKODND@?$AAd?$AAe?$AA?9?$AAL?$AAU?$AA?$AA@ 0000000180066c48     libcpmt:winapinls.obj
 0002:00004c58       ??_C@_1M@DDOCCGFG@?$AAe?$AAn?$AA?9?$AAC?$AAA?$AA?$AA@ 0000000180066c58     libcpmt:winapinls.obj
 0002:00004c68       ??_C@_1M@BNOEMJLF@?$AAe?$AAs?$AA?9?$AAG?$AAT?$AA?$AA@ 0000000180066c68     libcpmt:winapinls.obj
 0002:00004c78       ??_C@_1M@EOGNKEK@?$AAf?$AAr?$AA?9?$AAC?$AAH?$AA?$AA@ 0000000180066c78     libcpmt:winapinls.obj
 0002:00004c88       ??_C@_1M@FLIDJFHL@?$AAh?$AAr?$AA?9?$AAB?$AAA?$AA?$AA@ 0000000180066c88     libcpmt:winapinls.obj
 0002:00004c98       ??_C@_1O@FMCELNAJ@?$AAs?$AAm?$AAj?$AA?9?$AAN?$AAO?$AA?$AA@ 0000000180066c98     libcpmt:winapinls.obj
 0002:00004ca8       ??_C@_1M@JHGLJMGJ@?$AAa?$AAr?$AA?9?$AAD?$AAZ?$AA?$AA@ 0000000180066ca8     libcpmt:winapinls.obj
 0002:00004cb8       ??_C@_1M@JKKFDCNP@?$AAz?$AAh?$AA?9?$AAM?$AAO?$AA?$AA@ 0000000180066cb8     libcpmt:winapinls.obj
 0002:00004cc8       ??_C@_1M@GEEFALPE@?$AAd?$AAe?$AA?9?$AAL?$AAI?$AA?$AA@ 0000000180066cc8     libcpmt:winapinls.obj
 0002:00004cd8       ??_C@_1M@IGEOFBG@?$AAe?$AAn?$AA?9?$AAN?$AAZ?$AA?$AA@ 0000000180066cd8     libcpmt:winapinls.obj
 0002:00004ce8       ??_C@_1M@KDBONEHP@?$AAe?$AAs?$AA?9?$AAC?$AAR?$AA?$AA@ 0000000180066ce8     libcpmt:winapinls.obj
 0002:00004cf8       ??_C@_1M@FHMDOHNN@?$AAf?$AAr?$AA?9?$AAL?$AAU?$AA?$AA@ 0000000180066cf8     libcpmt:winapinls.obj
 0002:00004d08       ??_C@_1BG@NFKKMAFG@?$AAb?$AAs?$AA?9?$AAB?$AAA?$AA?9?$AAL?$AAa?$AAt?$AAn?$AA?$AA@ 0000000180066d08     libcpmt:winapinls.obj
 0002:00004d20       ??_C@_1O@IMNBEMCI@?$AAs?$AAm?$AAj?$AA?9?$AAS?$AAE?$AA?$AA@ 0000000180066d20     libcpmt:winapinls.obj
 0002:00004d30       ??_C@_1M@DHHMBNDP@?$AAa?$AAr?$AA?9?$AAM?$AAA?$AA?$AA@ 0000000180066d30     libcpmt:winapinls.obj
 0002:00004d40       ??_C@_1M@BNBLJCGH@?$AAe?$AAn?$AA?9?$AAI?$AAE?$AA?$AA@ 0000000180066d40     libcpmt:winapinls.obj
 0002:00004d50       ??_C@_1M@GEPAFMDL@?$AAe?$AAs?$AA?9?$AAP?$AAA?$AA?$AA@ 0000000180066d50     libcpmt:winapinls.obj
 0002:00004d60       ??_C@_1M@OJONDMDL@?$AAf?$AAr?$AA?9?$AAM?$AAC?$AA?$AA@ 0000000180066d60     libcpmt:winapinls.obj
 0002:00004d70       ??_C@_1BG@OBCNFJB@?$AAs?$AAr?$AA?9?$AAB?$AAA?$AA?9?$AAL?$AAa?$AAt?$AAn?$AA?$AA@ 0000000180066d70     libcpmt:winapinls.obj
 0002:00004d88       ??_C@_1O@KEMEEGPO@?$AAs?$AAm?$AAa?$AA?9?$AAN?$AAO?$AA?$AA@ 0000000180066d88     libcpmt:winapinls.obj
 0002:00004d98       ??_C@_1M@ELMGFODK@?$AAa?$AAr?$AA?9?$AAT?$AAN?$AA?$AA@ 0000000180066d98     libcpmt:winapinls.obj
 0002:00004da8       ??_C@_1M@BHDLHFAF@?$AAe?$AAn?$AA?9?$AAZ?$AAA?$AA?$AA@ 0000000180066da8     libcpmt:winapinls.obj
 0002:00004db8       ??_C@_1M@BMGIGLIF@?$AAe?$AAs?$AA?9?$AAD?$AAO?$AA?$AA@ 0000000180066db8     libcpmt:winapinls.obj
 0002:00004dc8       ??_C@_1BG@CMBHIPBE@?$AAs?$AAr?$AA?9?$AAB?$AAA?$AA?9?$AAC?$AAy?$AAr?$AAl?$AA?$AA@ 0000000180066dc8     libcpmt:winapinls.obj
 0002:00004de0       ??_C@_1O@HEDBLHNP@?$AAs?$AAm?$AAa?$AA?9?$AAS?$AAE?$AA?$AA@ 0000000180066de0     libcpmt:winapinls.obj
 0002:00004df0       ??_C@_1M@DAGCADIM@?$AAa?$AAr?$AA?9?$AAO?$AAM?$AA?$AA@ 0000000180066df0     libcpmt:winapinls.obj
 0002:00004e00       ??_C@_1M@FODLMICG@?$AAe?$AAn?$AA?9?$AAJ?$AAM?$AA?$AA@ 0000000180066e00     libcpmt:winapinls.obj
 0002:00004e10       ??_C@_1M@DNMLCIHB@?$AAe?$AAs?$AA?9?$AAV?$AAE?$AA?$AA@ 0000000180066e10     libcpmt:winapinls.obj
 0002:00004e20       ??_C@_1O@EOKHMKJK@?$AAs?$AAm?$AAs?$AA?9?$AAF?$AAI?$AA?$AA@ 0000000180066e20     libcpmt:winapinls.obj
 0002:00004e30       ??_C@_1M@CAFJMKOF@?$AAa?$AAr?$AA?9?$AAY?$AAE?$AA?$AA@ 0000000180066e30     libcpmt:winapinls.obj
 0002:00004e40       ??_C@_1M@CBFHIJLI@?$AAe?$AAn?$AA?9?$AAC?$AAB?$AA?$AA@ 0000000180066e40     libcpmt:winapinls.obj
 0002:00004e50       ??_C@_1M@BGNFLDN@?$AAe?$AAs?$AA?9?$AAC?$AAO?$AA?$AA@ 0000000180066e50     libcpmt:winapinls.obj
 0002:00004e60       ??_C@_1O@JMPHMAMC@?$AAs?$AAm?$AAn?$AA?9?$AAF?$AAI?$AA?$AA@ 0000000180066e60     libcpmt:winapinls.obj
 0002:00004e70       ??_C@_1M@JLANABKE@?$AAa?$AAr?$AA?9?$AAS?$AAY?$AA?$AA@ 0000000180066e70     libcpmt:winapinls.obj
 0002:00004e80       ??_C@_1M@HPKGCFGN@?$AAe?$AAn?$AA?9?$AAB?$AAZ?$AA?$AA@ 0000000180066e80     libcpmt:winapinls.obj
 0002:00004e90       ??_C@_1M@OLJCMLGM@?$AAe?$AAs?$AA?9?$AAP?$AAE?$AA?$AA@ 0000000180066e90     libcpmt:winapinls.obj
 0002:00004ea0       ??_C@_1M@MKKGFKLE@?$AAa?$AAr?$AA?9?$AAJ?$AAO?$AA?$AA@ 0000000180066ea0     libcpmt:winapinls.obj
 0002:00004eb0       ??_C@_1M@EKPGLDNI@?$AAe?$AAn?$AA?9?$AAT?$AAT?$AA?$AA@ 0000000180066eb0     libcpmt:winapinls.obj
 0002:00004ec0       ??_C@_1M@OONGHFHE@?$AAe?$AAs?$AA?9?$AAA?$AAR?$AA?$AA@ 0000000180066ec0     libcpmt:winapinls.obj
 0002:00004ed0       ??_C@_1M@OOJFGBHE@?$AAa?$AAr?$AA?9?$AAL?$AAB?$AA?$AA@ 0000000180066ed0     libcpmt:winapinls.obj
 0002:00004ee0       ??_C@_1M@GCEJHNEG@?$AAe?$AAn?$AA?9?$AAZ?$AAW?$AA?$AA@ 0000000180066ee0     libcpmt:winapinls.obj
 0002:00004ef0       ??_C@_1M@JNOCAHJI@?$AAe?$AAs?$AA?9?$AAE?$AAC?$AA?$AA@ 0000000180066ef0     libcpmt:winapinls.obj
 0002:00004f00       ??_C@_1M@JEFHPGGB@?$AAa?$AAr?$AA?9?$AAK?$AAW?$AA?$AA@ 0000000180066f00     libcpmt:winapinls.obj
 0002:00004f10       ??_C@_1M@MLKIBJOJ@?$AAe?$AAn?$AA?9?$AAP?$AAH?$AA?$AA@ 0000000180066f10     libcpmt:winapinls.obj
 0002:00004f20       ??_C@_1M@BDNIPEND@?$AAe?$AAs?$AA?9?$AAC?$AAL?$AA?$AA@ 0000000180066f20     libcpmt:winapinls.obj
 0002:00004f30       ??_C@_1M@MPNMEKBD@?$AAa?$AAr?$AA?9?$AAA?$AAE?$AA?$AA@ 0000000180066f30     libcpmt:winapinls.obj
 0002:00004f40       ??_C@_1M@KBJALCPI@?$AAe?$AAs?$AA?9?$AAU?$AAY?$AA?$AA@ 0000000180066f40     libcpmt:winapinls.obj
 0002:00004f50       ??_C@_1M@LLCCOAGA@?$AAa?$AAr?$AA?9?$AAB?$AAH?$AA?$AA@ 0000000180066f50     libcpmt:winapinls.obj
 0002:00004f60       ??_C@_1M@PBFNCDEL@?$AAe?$AAs?$AA?9?$AAP?$AAY?$AA?$AA@ 0000000180066f60     libcpmt:winapinls.obj
 0002:00004f70       ??_C@_1M@EDGINPNP@?$AAa?$AAr?$AA?9?$AAQ?$AAA?$AA?$AA@ 0000000180066f70     libcpmt:winapinls.obj
 0002:00004f80       ??_C@_1M@MKDBIIJI@?$AAe?$AAs?$AA?9?$AAB?$AAO?$AA?$AA@ 0000000180066f80     libcpmt:winapinls.obj
 0002:00004f90       ??_C@_1M@CPKKEBLD@?$AAe?$AAs?$AA?9?$AAS?$AAV?$AA?$AA@ 0000000180066f90     libcpmt:winapinls.obj
 0002:00004fa0       ??_C@_1M@NDBGMMJL@?$AAe?$AAs?$AA?9?$AAH?$AAN?$AA?$AA@ 0000000180066fa0     libcpmt:winapinls.obj
 0002:00004fb0       ??_C@_1M@JIJIBHDP@?$AAe?$AAs?$AA?9?$AAN?$AAI?$AA?$AA@ 0000000180066fb0     libcpmt:winapinls.obj
 0002:00004fc0       ??_C@_1M@CGFMKEEK@?$AAe?$AAs?$AA?9?$AAP?$AAR?$AA?$AA@ 0000000180066fc0     libcpmt:winapinls.obj
 0002:00004fd0       ??_C@_1O@ICJHKIIK@?$AAz?$AAh?$AA?9?$AAC?$AAH?$AAT?$AA?$AA@ 0000000180066fd0     libcpmt:winapinls.obj
 0002:00004fe0       ??_C@_15CLNEJCE@?$AAs?$AAr?$AA?$AA@ 0000000180066fe0     libcpmt:winapinls.obj
 0002:00004fe8       ??_C@_1M@KAHEKEIG@?$AAa?$AAf?$AA?9?$AAz?$AAa?$AA?$AA@ 0000000180066fe8     libcpmt:winapinls.obj
 0002:00004ff8       ??_C@_1M@GIECOABL@?$AAa?$AAr?$AA?9?$AAa?$AAe?$AA?$AA@ 0000000180066ff8     libcpmt:winapinls.obj
 0002:00005008       ??_C@_1M@BMLMEKGI@?$AAa?$AAr?$AA?9?$AAb?$AAh?$AA?$AA@ 0000000180067008     libcpmt:winapinls.obj
 0002:00005018       ??_C@_1M@DAPFDGGB@?$AAa?$AAr?$AA?9?$AAd?$AAz?$AA?$AA@ 0000000180067018     libcpmt:winapinls.obj
 0002:00005028       ??_C@_1M@FJNKGKIG@?$AAa?$AAr?$AA?9?$AAe?$AAg?$AA?$AA@ 0000000180067028     libcpmt:winapinls.obj
 0002:00005038       ??_C@_1M@FLGKKCLO@?$AAa?$AAr?$AA?9?$AAi?$AAq?$AA?$AA@ 0000000180067038     libcpmt:winapinls.obj
 0002:00005048       ??_C@_1M@GNDIPALM@?$AAa?$AAr?$AA?9?$AAj?$AAo?$AA?$AA@ 0000000180067048     libcpmt:winapinls.obj
 0002:00005058       ??_C@_1M@DDMJFMGJ@?$AAa?$AAr?$AA?9?$AAk?$AAw?$AA?$AA@ 0000000180067058     libcpmt:winapinls.obj
 0002:00005068       ??_C@_1M@EJALMLHM@?$AAa?$AAr?$AA?9?$AAl?$AAb?$AA?$AA@ 0000000180067068     libcpmt:winapinls.obj
 0002:00005078       ??_C@_1M@MOBDBLOC@?$AAa?$AAr?$AA?9?$AAl?$AAy?$AA?$AA@ 0000000180067078     libcpmt:winapinls.obj
 0002:00005088       ??_C@_1M@JAOCLHDH@?$AAa?$AAr?$AA?9?$AAm?$AAa?$AA?$AA@ 0000000180067088     libcpmt:winapinls.obj
 0002:00005098       ??_C@_1M@JHPMKJIE@?$AAa?$AAr?$AA?9?$AAo?$AAm?$AA?$AA@ 0000000180067098     libcpmt:winapinls.obj
 0002:000050a8       ??_C@_1M@OEPGHFNH@?$AAa?$AAr?$AA?9?$AAq?$AAa?$AA?$AA@ 00000001800670a8     libcpmt:winapinls.obj
 0002:000050b8       ??_C@_1M@KJDONENM@?$AAa?$AAr?$AA?9?$AAs?$AAa?$AA?$AA@ 00000001800670b8     libcpmt:winapinls.obj
 0002:000050c8       ??_C@_1M@DMJDKLKM@?$AAa?$AAr?$AA?9?$AAs?$AAy?$AA?$AA@ 00000001800670c8     libcpmt:winapinls.obj
 0002:000050d8       ??_C@_1M@OMFIPEDC@?$AAa?$AAr?$AA?9?$AAt?$AAn?$AA?$AA@ 00000001800670d8     libcpmt:winapinls.obj
 0002:000050e8       ??_C@_1M@IHMHGAON@?$AAa?$AAr?$AA?9?$AAy?$AAe?$AA?$AA@ 00000001800670e8     libcpmt:winapinls.obj
 0002:000050f8       ??_C@_1BG@KDCPGJGB@?$AAa?$AAz?$AA?9?$AAa?$AAz?$AA?9?$AAc?$AAy?$AAr?$AAl?$AA?$AA@ 00000001800670f8     libcpmt:winapinls.obj
 0002:00005110       ??_C@_1BG@IBCKDDOE@?$AAa?$AAz?$AA?9?$AAa?$AAz?$AA?9?$AAl?$AAa?$AAt?$AAn?$AA?$AA@ 0000000180067110     libcpmt:winapinls.obj
 0002:00005128       ??_C@_1M@EGPFDCPD@?$AAb?$AAe?$AA?9?$AAb?$AAy?$AA?$AA@ 0000000180067128     libcpmt:winapinls.obj
 0002:00005138       ??_C@_1M@PCMGMCGC@?$AAb?$AAg?$AA?9?$AAb?$AAg?$AA?$AA@ 0000000180067138     libcpmt:winapinls.obj
 0002:00005148       ??_C@_1M@BJBMFGOB@?$AAb?$AAn?$AA?9?$AAi?$AAn?$AA?$AA@ 0000000180067148     libcpmt:winapinls.obj
 0002:00005158       ??_C@_1BG@EAKMMACD@?$AAb?$AAs?$AA?9?$AAb?$AAa?$AA?9?$AAl?$AAa?$AAt?$AAn?$AA?$AA@ 0000000180067158     libcpmt:winapinls.obj
 0002:00005170       ??_C@_1M@KGADAODK@?$AAc?$AAa?$AA?9?$AAe?$AAs?$AA?$AA@ 0000000180067170     libcpmt:winapinls.obj
 0002:00005180       ??_C@_1M@COAJPDHI@?$AAc?$AAs?$AA?9?$AAc?$AAz?$AA?$AA@ 0000000180067180     libcpmt:winapinls.obj
 0002:00005190       ??_C@_1M@DHBHFONH@?$AAc?$AAy?$AA?9?$AAg?$AAb?$AA?$AA@ 0000000180067190     libcpmt:winapinls.obj
 0002:000051a0       ??_C@_1M@IMGKELGA@?$AAd?$AAa?$AA?9?$AAd?$AAk?$AA?$AA@ 00000001800671a0     libcpmt:winapinls.obj
 0002:000051b0       ??_C@_1M@NNDGDNGA@?$AAd?$AAe?$AA?9?$AAa?$AAt?$AA?$AA@ 00000001800671b0     libcpmt:winapinls.obj
 0002:000051c0       ??_C@_1M@IKDBHEEM@?$AAd?$AAe?$AA?9?$AAc?$AAh?$AA?$AA@ 00000001800671c0     libcpmt:winapinls.obj
 0002:000051d0       ??_C@_1M@GFFOJMCJ@?$AAd?$AAe?$AA?9?$AAd?$AAe?$AA?$AA@ 00000001800671d0     libcpmt:winapinls.obj
 0002:000051e0       ??_C@_1M@MDNLKBPM@?$AAd?$AAe?$AA?9?$AAl?$AAi?$AA?$AA@ 00000001800671e0     libcpmt:winapinls.obj
 0002:000051f0       ??_C@_1M@NJBEEJNL@?$AAd?$AAe?$AA?9?$AAl?$AAu?$AA?$AA@ 00000001800671f0     libcpmt:winapinls.obj
 0002:00005200       ??_C@_1O@GNNELBAP@?$AAd?$AAi?$AAv?$AA?9?$AAm?$AAv?$AA?$AA@ 0000000180067200     libcpmt:winapinls.obj
 0002:00005210       ??_C@_1M@EJLEOGAE@?$AAe?$AAl?$AA?9?$AAg?$AAr?$AA?$AA@ 0000000180067210     libcpmt:winapinls.obj
 0002:00005220       ??_C@_1M@GMPONJN@?$AAe?$AAn?$AA?9?$AAa?$AAu?$AA?$AA@ 0000000180067220     libcpmt:winapinls.obj
 0002:00005230       ??_C@_1M@NIDIIPGF@?$AAe?$AAn?$AA?9?$AAb?$AAz?$AA?$AA@ 0000000180067230     libcpmt:winapinls.obj
 0002:00005240       ??_C@_1M@JEHMIMFO@?$AAe?$AAn?$AA?9?$AAc?$AAa?$AA?$AA@ 0000000180067240     libcpmt:winapinls.obj
 0002:00005250       ??_C@_1M@IGMJCDLA@?$AAe?$AAn?$AA?9?$AAc?$AAb?$AA?$AA@ 0000000180067250     libcpmt:winapinls.obj
 0002:00005260       ??_C@_1M@BNFIGBKG@?$AAe?$AAn?$AA?9?$AAg?$AAb?$AA?$AA@ 0000000180067260     libcpmt:winapinls.obj
 0002:00005270       ??_C@_1M@LKIFDIGP@?$AAe?$AAn?$AA?9?$AAi?$AAe?$AA?$AA@ 0000000180067270     libcpmt:winapinls.obj
 0002:00005280       ??_C@_1M@PJKFGCCO@?$AAe?$AAn?$AA?9?$AAj?$AAm?$AA?$AA@ 0000000180067280     libcpmt:winapinls.obj
 0002:00005290       ??_C@_1M@KPPKEPBO@?$AAe?$AAn?$AA?9?$AAn?$AAz?$AA?$AA@ 0000000180067290     libcpmt:winapinls.obj
 0002:000052a0       ??_C@_1M@GMDGLDOB@?$AAe?$AAn?$AA?9?$AAp?$AAh?$AA?$AA@ 00000001800672a0     libcpmt:winapinls.obj
 0002:000052b0       ??_C@_1M@ONGIBJNA@?$AAe?$AAn?$AA?9?$AAt?$AAt?$AA?$AA@ 00000001800672b0     libcpmt:winapinls.obj
 0002:000052c0       ??_C@_1M@LLODPCMM@?$AAe?$AAn?$AA?9?$AAu?$AAs?$AA?$AA@ 00000001800672c0     libcpmt:winapinls.obj
 0002:000052d0       ??_C@_1M@LAKFNPAN@?$AAe?$AAn?$AA?9?$AAz?$AAa?$AA?$AA@ 00000001800672d0     libcpmt:winapinls.obj
 0002:000052e0       ??_C@_1M@MFNHNHEO@?$AAe?$AAn?$AA?9?$AAz?$AAw?$AA?$AA@ 00000001800672e0     libcpmt:winapinls.obj
 0002:000052f0       ??_C@_1M@EJEINPHM@?$AAe?$AAs?$AA?9?$AAa?$AAr?$AA?$AA@ 00000001800672f0     libcpmt:winapinls.obj
 0002:00005300       ??_C@_1M@GNKPCCJA@?$AAe?$AAs?$AA?9?$AAb?$AAo?$AA?$AA@ 0000000180067300     libcpmt:winapinls.obj
 0002:00005310       ??_C@_1M@LEEGFONL@?$AAe?$AAs?$AA?9?$AAc?$AAl?$AA?$AA@ 0000000180067310     libcpmt:winapinls.obj
 0002:00005398       ??_7type_info@@6B@         0000000180067398     LIBCMT:std_type_info_static.obj
 0002:000053b0       _pDefaultRawDllMain        00000001800673b0     LIBCMT:dll_dllmain.obj
 0002:000053b0       _pRawDllMain               00000001800673b0     LIBCMT:dll_dllmain.obj
 0002:000053c0       ??_7bad_array_new_length@std@@6B@ 00000001800673c0     LIBCMT:throw_bad_alloc.obj
 0002:000053d0       ??_C@_0BF@KINCDENJ@bad?5array?5new?5length?$AA@ 00000001800673d0     LIBCMT:throw_bad_alloc.obj
 0002:00005430       _pDestructExceptionObject  0000000180067430     libvcruntime:frame.obj
 0002:00005440       ??_7bad_exception@std@@6B@ 0000000180067440     libvcruntime:frame.obj
 0002:00005450       ??_C@_0O@DPKOEFFH@bad?5exception?$AA@ 0000000180067450     libvcruntime:frame.obj
 0002:00005518       ??_C@_1BC@DNHGCMLG@?$AAa?$AAd?$AAv?$AAa?$AAp?$AAi?$AA3?$AA2?$AA?$AA@ 0000000180067518     libvcruntime:winapi_downlevel.obj
 0002:00005530       ??_C@_1DM@KHCHBNEB@?$AAa?$AAp?$AAi?$AA?9?$AAm?$AAs?$AA?9?$AAw?$AAi?$AAn?$AA?9?$AAc?$AAo?$AAr?$AAe?$AA?9?$AAf?$AAi?$AAb?$AAe?$AAr?$AAs?$AA?9?$AAl?$AA1?$AA?9?$AA1?$AA?9?$AA1?$AA?$AA@ 0000000180067530     libvcruntime:winapi_downlevel.obj
 0002:00005570       ??_C@_1DK@LPPGFMPP@?$AAa?$AAp?$AAi?$AA?9?$AAm?$AAs?$AA?9?$AAw?$AAi?$AAn?$AA?9?$AAc?$AAo?$AAr?$AAe?$AA?9?$AAs?$AAy?$AAn?$AAc?$AAh?$AA?9?$AAl?$AA1?$AA?9?$AA2?$AA?9?$AA0?$AA?$AA@ 0000000180067570     libvcruntime:winapi_downlevel.obj
 0002:000055b0       ??_C@_1BC@GDMECMAK@?$AAk?$AAe?$AAr?$AAn?$AAe?$AAl?$AA3?$AA2?$AA?$AA@ 00000001800675b0     libvcruntime:winapi_downlevel.obj
 0002:000055c8       ??_C@_0O@BAMBGLIE@EventRegister?$AA@ 00000001800675c8     libvcruntime:winapi_downlevel.obj
 0002:000055e0       ??_C@_0BE@BJEEGHGK@EventSetInformation?$AA@ 00000001800675e0     libvcruntime:winapi_downlevel.obj
 0002:000055f8       ??_C@_0BA@FAKLIPIC@EventUnregister?$AA@ 00000001800675f8     libvcruntime:winapi_downlevel.obj
 0002:00005610       ??_C@_0BD@PKLHJPHD@EventWriteTransfer?$AA@ 0000000180067610     libvcruntime:winapi_downlevel.obj
 0002:00005650       _Microsoft_CRTProvider     0000000180067650     libvcruntime:telemetry.obj
 0002:00005658       ??_C@_0O@JEOPJOMI@Main?5Invoked?4?$AA@ 0000000180067658     libvcruntime:telemetry.obj
 0002:00005668       ??_C@_0P@NEAEIBDO@Main?5Returned?4?$AA@ 0000000180067668     libvcruntime:telemetry.obj
 0002:00005678       ??_C@_02EEKDKGMJ@?$DO?$DN?$AA@ 0000000180067678     libvcruntime:undname.obj
 0002:0000567c       ??_C@_01IHBHIGKO@?0?$AA@   000000018006767c     libvcruntime:undname.obj
 0002:00005680       ??_C@_02HCKGKOFO@?$CI?$CJ?$AA@ 0000000180067680     libvcruntime:undname.obj
 0002:00005684       ??_C@_01PJKLJHI@?$HO?$AA@  0000000180067684     libvcruntime:undname.obj
 0002:00005688       ??_C@_01JKBOJNNK@?$FO?$AA@ 0000000180067688     libvcruntime:undname.obj
 0002:0000568c       ??_C@_01DNKMNLPK@?$HM?$AA@ 000000018006768c     libvcruntime:undname.obj
 0002:00005690       ??_C@_02PPKAJPJL@?$CG?$CG?$AA@ 0000000180067690     libvcruntime:undname.obj
 0002:00005694       ??_C@_02NONPIBCD@?$HM?$HM?$AA@ 0000000180067694     libvcruntime:undname.obj
 0002:00005698       ??_C@_02FPIMKNGF@?$CK?$DN?$AA@ 0000000180067698     libvcruntime:undname.obj
 0002:0000569c       ??_C@_02FOEOMHFC@?$CL?$DN?$AA@ 000000018006769c     libvcruntime:undname.obj
 0002:000056a0       ??_C@_02FKMDLLOA@?9?$DN?$AA@ 00000001800676a0     libvcruntime:undname.obj
 0002:000056a4       ??_C@_02FJEHGPIO@?1?$DN?$AA@ 00000001800676a4     libvcruntime:undname.obj
 0002:000056a8       ??_C@_02FENAOKFI@?$CF?$DN?$AA@ 00000001800676a8     libvcruntime:undname.obj
 0002:000056ac       ??_C@_03IKFCCPFF@?$DO?$DO?$DN?$AA@ 00000001800676ac     libvcruntime:undname.obj
 0002:000056b0       ??_C@_03CDNPDDLA@?$DM?$DM?$DN?$AA@ 00000001800676b0     libvcruntime:undname.obj
 0002:000056b4       ??_C@_02FGJGFEAB@?$CG?$DN?$AA@ 00000001800676b4     libvcruntime:undname.obj
 0002:000056b8       ??_C@_02DHLNPPGH@?$HM?$DN?$AA@ 00000001800676b8     libvcruntime:undname.obj
 0002:000056bc       ??_C@_02MHEGNOJ@?$FO?$DN?$AA@ 00000001800676bc     libvcruntime:undname.obj
 0002:000056c0       ??_C@_09IFPLHPGF@?$GAvftable?8?$AA@ 00000001800676c0     libvcruntime:undname.obj
 0002:000056d0       ??_C@_09BLBHBJP@?$GAvbtable?8?$AA@ 00000001800676d0     libvcruntime:undname.obj
 0002:000056e0       ??_C@_07FEEIOKP@?$GAvcall?8?$AA@ 00000001800676e0     libvcruntime:undname.obj
 0002:000056e8       ??_C@_08LLFFHHDJ@?$GAtypeof?8?$AA@ 00000001800676e8     libvcruntime:undname.obj
 0002:000056f8       ??_C@_0BF@KDPPACIK@?$GAlocal?5static?5guard?8?$AA@ 00000001800676f8     libvcruntime:undname.obj
 0002:00005710       ??_C@_08OBABFOLI@?$GAstring?8?$AA@ 0000000180067710     libvcruntime:undname.obj
 0002:00005720       ??_C@_0BD@JDLKDPAB@?$GAvbase?5destructor?8?$AA@ 0000000180067720     libvcruntime:undname.obj
 0002:00005738       ??_C@_0BN@DEGPLNFK@?$GAvector?5deleting?5destructor?8?$AA@ 0000000180067738     libvcruntime:undname.obj
 0002:00005758       ??_C@_0BO@OBMKPJIG@?$GAdefault?5constructor?5closure?8?$AA@ 0000000180067758     libvcruntime:undname.obj
 0002:00005778       ??_C@_0BN@IMDCHIKM@?$GAscalar?5deleting?5destructor?8?$AA@ 0000000180067778     libvcruntime:undname.obj
 0002:00005798       ??_C@_0BO@PFGOCPJJ@?$GAvector?5constructor?5iterator?8?$AA@ 0000000180067798     libvcruntime:undname.obj
 0002:000057b8       ??_C@_0BN@LFPFMEDL@?$GAvector?5destructor?5iterator?8?$AA@ 00000001800677b8     libvcruntime:undname.obj
 0002:000057d8       ??_C@_0CE@IKBNEHA@?$GAvector?5vbase?5constructor?5iterat@ 00000001800677d8     libvcruntime:undname.obj
 0002:00005800       ??_C@_0BL@NILFHHPC@?$GAvirtual?5displacement?5map?8?$AA@ 0000000180067800     libvcruntime:undname.obj
 0002:00005820       ??_C@_0CB@JONCMFFK@?$GAeh?5vector?5constructor?5iterator?8@ 0000000180067820     libvcruntime:undname.obj
 0002:00005848       ??_C@_0CA@GCEOPDGL@?$GAeh?5vector?5destructor?5iterator?8?$AA@ 0000000180067848     libvcruntime:undname.obj
 0002:00005868       ??_C@_0CH@OOJPLCPH@?$GAeh?5vector?5vbase?5constructor?5ite@ 0000000180067868     libvcruntime:undname.obj
 0002:00005890       ??_C@_0BL@LLKPOHJI@?$GAcopy?5constructor?5closure?8?$AA@ 0000000180067890     libvcruntime:undname.obj
 0002:000058b0       ??_C@_0BA@KBCDOMBN@?$GAudt?5returning?8?$AA@ 00000001800678b0     libvcruntime:undname.obj
 0002:000058c0       ??_C@_03KLGMFNMG@?$GAEH?$AA@ 00000001800678c0     libvcruntime:undname.obj
 0002:000058c4       ??_C@_05KHLCHHI@?$GARTTI?$AA@ 00000001800678c4     libvcruntime:undname.obj
 0002:000058d0       ??_C@_0BA@KKLDJDLB@?$GAlocal?5vftable?8?$AA@ 00000001800678d0     libvcruntime:undname.obj
 0002:000058e0       ??_C@_0CE@IIHCMGGL@?$GAlocal?5vftable?5constructor?5closu@ 00000001800678e0     libvcruntime:undname.obj
 0002:00005904       ??_C@_06FHBGPFGH@?5new?$FL?$FN?$AA@ 0000000180067904     libvcruntime:undname.obj
 0002:00005910       ??_C@_09LBNFPBCA@?5delete?$FL?$FN?$AA@ 0000000180067910     libvcruntime:undname.obj
 0002:00005920       ??_C@_0P@HJKNJFNN@?$GAomni?5callsig?8?$AA@ 0000000180067920     libvcruntime:undname.obj
 0002:00005930       ??_C@_0BL@CNOONJFP@?$GAplacement?5delete?5closure?8?$AA@ 0000000180067930     libvcruntime:undname.obj
 0002:00005950       ??_C@_0BN@CKNJLHMB@?$GAplacement?5delete?$FL?$FN?5closure?8?$AA@ 0000000180067950     libvcruntime:undname.obj
 0002:00005970       ??_C@_0CG@CFDHKGGD@?$GAmanaged?5vector?5constructor?5iter@ 0000000180067970     libvcruntime:undname.obj
 0002:00005998       ??_C@_0CF@IMGKMJNO@?$GAmanaged?5vector?5destructor?5itera@ 0000000180067998     libvcruntime:undname.obj
 0002:000059c0       ??_C@_0CG@HLDDJMAG@?$GAeh?5vector?5copy?5constructor?5iter@ 00000001800679c0     libvcruntime:undname.obj
 0002:000059e8       ??_C@_0CM@FCBBDIGB@?$GAeh?5vector?5vbase?5copy?5constructo@ 00000001800679e8     libvcruntime:undname.obj
 0002:00005a18       ??_C@_0BL@CLIPGLGB@?$GAdynamic?5initializer?5for?5?8?$AA@ 0000000180067a18     libvcruntime:undname.obj
 0002:00005a38       ??_C@_0CB@PDBIFEP@?$GAdynamic?5atexit?5destructor?5for?5?8@ 0000000180067a38     libvcruntime:undname.obj
 0002:00005a60       ??_C@_0CD@CGAJBKEJ@?$GAvector?5copy?5constructor?5iterato@ 0000000180067a60     libvcruntime:undname.obj
 0002:00005a88       ??_C@_0CJ@GJELGAMM@?$GAvector?5vbase?5copy?5constructor?5i@ 0000000180067a88     libvcruntime:undname.obj
 0002:00005ab8       ??_C@_0CL@FGIJHLCE@?$GAmanaged?5vector?5copy?5constructor@ 0000000180067ab8     libvcruntime:undname.obj
 0002:00005ae8       ??_C@_0BM@PMGGMLDN@?$GAlocal?5static?5thread?5guard?8?$AA@ 0000000180067ae8     libvcruntime:undname.obj
 0002:00005b08       ??_C@_0N@BDNMDMOL@operator?5?$CC?$CC?5?$AA@ 0000000180067b08     libvcruntime:undname.obj
 0002:00005e48       ??_C@_0BC@DAFEJGAK@?5Type?5Descriptor?8?$AA@ 0000000180067e48     libvcruntime:undname.obj
 0002:00005e60       ??_C@_0BM@LDKODKLH@?5Base?5Class?5Descriptor?5at?5?$CI?$AA@ 0000000180067e60     libvcruntime:undname.obj
 0002:00005e80       ??_C@_0BD@LGICGFMM@?5Base?5Class?5Array?8?$AA@ 0000000180067e80     libvcruntime:undname.obj
 0002:00005e98       ??_C@_0BN@MECKDCOJ@?5Class?5Hierarchy?5Descriptor?8?$AA@ 0000000180067e98     libvcruntime:undname.obj
 0002:00005eb8       ??_C@_0BK@CFCOFLF@?5Complete?5Object?5Locator?8?$AA@ 0000000180067eb8     libvcruntime:undname.obj
 0002:00005ed8       ??_C@_08EHJDFFNH@__based?$CI?$AA@ 0000000180067ed8     libvcruntime:undname.obj
 0002:00005ee8       ??_C@_07KOLFKCDI@__cdecl?$AA@ 0000000180067ee8     libvcruntime:undname.obj
 0002:00005ef0       ??_C@_08GHMPAG@__pascal?$AA@ 0000000180067ef0     libvcruntime:undname.obj
 0002:00005f00       ??_C@_09IFJBGAPI@__stdcall?$AA@ 0000000180067f00     libvcruntime:undname.obj
 0002:00005f10       ??_C@_0L@NPHFGOKO@__thiscall?$AA@ 0000000180067f10     libvcruntime:undname.obj
 0002:00005f20       ??_C@_0L@JMKHOMEK@__fastcall?$AA@ 0000000180067f20     libvcruntime:undname.obj
 0002:00005f30       ??_C@_0N@BCKKPABJ@__vectorcall?$AA@ 0000000180067f30     libvcruntime:undname.obj
 0002:00005f40       ??_C@_09HIJEGCPM@__clrcall?$AA@ 0000000180067f40     libvcruntime:undname.obj
 0002:00005f4c       ??_C@_06GHPCKEAG@__eabi?$AA@ 0000000180067f4c     libvcruntime:undname.obj
 0002:00005f58       ??_C@_07JOMMBBKO@__ptr64?$AA@ 0000000180067f58     libvcruntime:undname.obj
 0002:00005f60       ??_C@_0L@PILCLIHE@__restrict?$AA@ 0000000180067f60     libvcruntime:undname.obj
 0002:00005f70       ??_C@_0M@GFIIJFMG@__unaligned?$AA@ 0000000180067f70     libvcruntime:undname.obj
 0002:00005f80       ??_C@_09DHDLOLLB@restrict?$CI?$AA@ 0000000180067f80     libvcruntime:undname.obj
 0002:00005f8c       ??_C@_04NIHEBCM@?5new?$AA@ 0000000180067f8c     libvcruntime:undname.obj
 0002:00005f98       ??_C@_07FPCDHGMM@?5delete?$AA@ 0000000180067f98     libvcruntime:undname.obj
 0002:00005fa0       ??_C@_01NEMOKFLO@?$DN?$AA@ 0000000180067fa0     libvcruntime:undname.obj
 0002:00005fa4       ??_C@_02GPIOPFAK@?$DO?$DO?$AA@ 0000000180067fa4     libvcruntime:undname.obj
 0002:00005fa8       ??_C@_02FODMEDOG@?$DM?$DM?$AA@ 0000000180067fa8     libvcruntime:undname.obj
 0002:00005fac       ??_C@_01DCLJPIOD@?$CB?$AA@ 0000000180067fac     libvcruntime:undname.obj
 0002:00005fb0       ??_C@_02EGOFBIJA@?$DN?$DN?$AA@ 0000000180067fb0     libvcruntime:undname.obj
 0002:00005fb4       ??_C@_02FDNJECIE@?$CB?$DN?$AA@ 0000000180067fb4     libvcruntime:undname.obj
 0002:00005fb8       ??_C@_02GPECMEKF@?$FL?$FN?$AA@ 0000000180067fb8     libvcruntime:undname.obj
 0002:00005fc0       ??_C@_08LHJFAFGD@operator?$AA@ 0000000180067fc0     libvcruntime:undname.obj
 0002:00005fcc       ??_C@_02HBOOOICD@?9?$DO?$AA@ 0000000180067fcc     libvcruntime:undname.obj
 0002:00005fd0       ??_C@_02ECNGHCIF@?$CL?$CL?$AA@ 0000000180067fd0     libvcruntime:undname.obj
 0002:00005fd4       ??_C@_02BAABKJLB@?9?9?$AA@ 0000000180067fd4     libvcruntime:undname.obj
 0002:00005fd8       ??_C@_01MIFGBAGJ@?$CL?$AA@ 0000000180067fd8     libvcruntime:undname.obj
 0002:00005fdc       ??_C@_01HNPIGOCE@?$CG?$AA@ 0000000180067fdc     libvcruntime:undname.obj
 0002:00005fe0       ??_C@_03MNHNFDLC@?9?$DO?$CK?$AA@ 0000000180067fe0     libvcruntime:undname.obj
 0002:00005fe4       ??_C@_01FGNFDNOH@?$CF?$AA@ 0000000180067fe4     libvcruntime:undname.obj
 0002:00005fe8       ??_C@_01MNNFJEPP@?$DM?$AA@ 0000000180067fe8     libvcruntime:undname.obj
 0002:00005fec       ??_C@_02EHCHHCKH@?$DM?$DN?$AA@ 0000000180067fec     libvcruntime:undname.obj
 0002:00005ff0       ??_C@_01PPODPGHN@?$DO?$AA@ 0000000180067ff0     libvcruntime:undname.obj
 0002:00006000       ??_C@_1EK@MBDPDCGA@?$AAM?$AAi?$AAc?$AAr?$AAo?$AAs?$AAo?$AAf?$AAt?$AA?5?$AAV?$AAi?$AAs?$AAu?$AAa?$AAl?$AA?5?$AAC?$AA?$CL?$AA?$CL?$AA?5?$AAR?$AAu?$AAn?$AAt?$AAi?$AAm?$AAe?$AA?5?$AAL?$AAi?$AAb@ 0000000180068000     libucrt:assert.obj
 0002:00006050       ??_C@_1FE@LHBLIKM@?$AAA?$AAs?$AAs?$AAe?$AAr?$AAt?$AAi?$AAo?$AAn?$AA?5?$AAf?$AAa?$AAi?$AAl?$AAe?$AAd?$AA?3?$AA?5?$AA?$CF?$AAT?$AAs?$AA?0?$AA?5?$AAf?$AAi?$AAl?$AAe?$AA?5?$AA?$CF?$AAT?$AAs?$AA?0@ 0000000180068050     libucrt:assert.obj
 0002:000060a8       ??_C@_1CE@OJBNHDMO@?$AAA?$AAs?$AAs?$AAe?$AAr?$AAt?$AAi?$AAo?$AAn?$AA?5?$AAf?$AAa?$AAi?$AAl?$AAe?$AAd?$AA?$CB?$AA?$AA@ 00000001800680a8     libucrt:assert.obj
 0002:000060d0       ??_C@_1BE@PHKBBGE@?$AAP?$AAr?$AAo?$AAg?$AAr?$AAa?$AAm?$AA?3?$AA?5?$AA?$AA@ 00000001800680d0     libucrt:assert.obj
 0002:000060e8       ??_C@_1O@HEMHKNDC@?$AAF?$AAi?$AAl?$AAe?$AA?3?$AA?5?$AA?$AA@ 00000001800680e8     libucrt:assert.obj
 0002:000060f8       ??_C@_1O@KCAFKHJE@?$AAL?$AAi?$AAn?$AAe?$AA?3?$AA?5?$AA?$AA@ 00000001800680f8     libucrt:assert.obj
 0002:00006108       ??_C@_1BK@PEDCIPMA@?$AAE?$AAx?$AAp?$AAr?$AAe?$AAs?$AAs?$AAi?$AAo?$AAn?$AA?3?$AA?5?$AA?$AA@ 0000000180068108     libucrt:assert.obj
 0002:00006130       ??_C@_1OA@EGMLFBHJ@?$AAF?$AAo?$AAr?$AA?5?$AAi?$AAn?$AAf?$AAo?$AAr?$AAm?$AAa?$AAt?$AAi?$AAo?$AAn?$AA?5?$AAo?$AAn?$AA?5?$AAh?$AAo?$AAw?$AA?5?$AAy?$AAo?$AAu?$AAr?$AA?5?$AAp?$AAr?$AAo?$AAg@ 0000000180068130     libucrt:assert.obj
 0002:00006210       ??_C@_1HK@POCJMFGK@?$AA?$CI?$AAP?$AAr?$AAe?$AAs?$AAs?$AA?5?$AAR?$AAe?$AAt?$AAr?$AAy?$AA?5?$AAt?$AAo?$AA?5?$AAd?$AAe?$AAb?$AAu?$AAg?$AA?5?$AAt?$AAh?$AAe?$AA?5?$AAa?$AAp?$AAp?$AAl?$AAi?$AAc@ 0000000180068210     libucrt:assert.obj
 0002:00006290       ??_C@_17LGKOMLJ@?$AA?4?$AA?4?$AA?4?$AA?$AA@ 0000000180068290     libucrt:assert.obj
 0002:00006298       ??_C@_13LBAGMAIH@?$AA?6?$AA?$AA@ 0000000180068298     libucrt:assert.obj
 0002:0000629c       ??_C@_15IABLJNFO@?$AA?6?$AA?6?$AA?$AA@ 000000018006829c     libucrt:assert.obj
 0002:000062a8       ??_C@_1CO@EAEJAADC@?$AA?$DM?$AAp?$AAr?$AAo?$AAg?$AAr?$AAa?$AAm?$AA?5?$AAn?$AAa?$AAm?$AAe?$AA?5?$AAu?$AAn?$AAk?$AAn?$AAo?$AAw?$AAn?$AA?$DO?$AA?$AA@ 00000001800682a8     libucrt:assert.obj
 0002:000062e0       standard_lookup_table      00000001800682e0     libucrt:output.obj
 0002:00006340       format_validation_lookup_table 0000000180068340     libucrt:output.obj
 0002:0000639c       ??_C@_06OJHGLDPL@?$CInull?$CJ?$AA@ 000000018006839c     libucrt:output.obj
 0002:000063a8       ??_C@_1O@CEDCILHN@?$AA?$CI?$AAn?$AAu?$AAl?$AAl?$AA?$CJ?$AA?$AA@ 00000001800683a8     libucrt:output.obj
 0002:000063b8       __real@8000000000000000    00000001800683b8     libucrt:frexp.obj
 0002:00006528       ??_C@_19DOGDICKI@?$AA?4?$AAe?$AAx?$AAe?$AA?$AA@ 0000000180068528     libucrt:stat.obj
 0002:00006538       ??_C@_19BDKLHPGC@?$AA?4?$AAc?$AAm?$AAd?$AA?$AA@ 0000000180068538     libucrt:stat.obj
 0002:00006548       ??_C@_19PINKOIBI@?$AA?4?$AAb?$AAa?$AAt?$AA?$AA@ 0000000180068548     libucrt:stat.obj
 0002:00006558       ??_C@_19CDGLJBOD@?$AA?4?$AAc?$AAo?$AAm?$AA?$AA@ 0000000180068558     libucrt:stat.obj
 0002:00006568       ??_C@_17BAAFHAL@?$AA?4?$AA?1?$AA?2?$AA?$AA@ 0000000180068568     libucrt:stat.obj
 0002:00006570       ??_C@_15HEJOKEHO@?$AA?$DP?$AA?$CK?$AA?$AA@ 0000000180068570     libucrt:stat.obj
 0002:00006578       ??_C@_1BI@BGOHAHKC@?$AAm?$AAs?$AAc?$AAo?$AAr?$AAe?$AAe?$AA?4?$AAd?$AAl?$AAl?$AA?$AA@ 0000000180068578     libucrt:exit.obj
 0002:00006590       ??_C@_0P@MIGLKIOC@CorExitProcess?$AA@ 0000000180068590     libucrt:exit.obj
 0002:000065a0       __newctype                 00000001800685a0     libucrt:ctype.obj
 0002:000068a0       __newclmap                 00000001800688a0     libucrt:ctype.obj
 0002:00006a20       __newcumap                 0000000180068a20     libucrt:ctype.obj
 0002:00006ba0       _wctype                    0000000180068ba0     libucrt:ctype.obj
 0002:00006da4       ??_C@_04EIAKFFMI@sqrt?$AA@ 0000000180068da4     libucrt:sqrt.obj
 0002:00006db0       __acrt_exception_action_table 0000000180068db0     libucrt:exception_filter.obj
 0002:00006e70       __acrt_signal_action_table_count 0000000180068e70     libucrt:exception_filter.obj
 0002:00006e78       __acrt_signal_action_first_fpe_index 0000000180068e78     libucrt:exception_filter.obj
 0002:00006e80       __acrt_signal_action_fpe_count 0000000180068e80     libucrt:exception_filter.obj
 0002:00006f80       ??_C@_03OEIAHPBN@INF?$AA@  0000000180068f80     libucrt:cvt.obj
 0002:00006f84       ??_C@_03OJHLLCGB@inf?$AA@  0000000180068f84     libucrt:cvt.obj
 0002:00006f88       ??_C@_03LKNCIKJB@NAN?$AA@  0000000180068f88     libucrt:cvt.obj
 0002:00006f8c       ??_C@_03LHCJEHON@nan?$AA@  0000000180068f8c     libucrt:cvt.obj
 0002:00006f90       ??_C@_09OFJJIMPC@NAN?$CISNAN?$CJ?$AA@ 0000000180068f90     libucrt:cvt.obj
 0002:00006fa0       ??_C@_09IPFBKMDL@nan?$CIsnan?$CJ?$AA@ 0000000180068fa0     libucrt:cvt.obj
 0002:00006fb0       ??_C@_08IKHNHAJ@NAN?$CIIND?$CJ?$AA@ 0000000180068fb0     libucrt:cvt.obj
 0002:00006fc0       ??_C@_08OFCDMILK@nan?$CIind?$CJ?$AA@ 0000000180068fc0     libucrt:cvt.obj
 0002:00006fcc       ??_C@_05KLBDPFGC@e?$CL000?$AA@ 0000000180068fcc     libucrt:cvt.obj
 0002:00006fe0       __lc_category              0000000180068fe0     libucrt:wsetlocale.obj
 0002:00007070       ??_C@_1O@GIFLHMA@?$AAL?$AAC?$AA_?$AAA?$AAL?$AAL?$AA?$AA@ 0000000180069070     libucrt:wsetlocale.obj
 0002:00007080       ??_C@_1BG@PPOMIBNJ@?$AAL?$AAC?$AA_?$AAC?$AAO?$AAL?$AAL?$AAA?$AAT?$AAE?$AA?$AA@ 0000000180069080     libucrt:wsetlocale.obj
 0002:00007098       ??_C@_1BC@FFJGAPJM@?$AAL?$AAC?$AA_?$AAC?$AAT?$AAY?$AAP?$AAE?$AA?$AA@ 0000000180069098     libucrt:wsetlocale.obj
 0002:000070b0       ??_C@_1BI@PCKFNJFB@?$AAL?$AAC?$AA_?$AAM?$AAO?$AAN?$AAE?$AAT?$AAA?$AAR?$AAY?$AA?$AA@ 00000001800690b0     libucrt:wsetlocale.obj
 0002:000070c8       ??_C@_1BG@ENIEDKID@?$AAL?$AAC?$AA_?$AAN?$AAU?$AAM?$AAE?$AAR?$AAI?$AAC?$AA?$AA@ 00000001800690c8     libucrt:wsetlocale.obj
 0002:000070e0       ??_C@_1BA@HAAOMIIG@?$AAL?$AAC?$AA_?$AAT?$AAI?$AAM?$AAE?$AA?$AA@ 00000001800690e0     libucrt:wsetlocale.obj
 0002:00007170       ??_C@_15NBPDDFIP@?$AA?$DN?$AA?$DL?$AA?$AA@ 0000000180069170     libucrt:wsetlocale.obj
 0002:00007178       ??_C@_13PJJBFPED@?$AA?$DL?$AA?$AA@ 0000000180069178     libucrt:wsetlocale.obj
 0002:0000717c       ??_C@_13NMPKAAJP@?$AA?$DN?$AA?$AA@ 000000018006917c     libucrt:wsetlocale.obj
 0002:00007180       ??_C@_13FHBKNHDA@?$AAC?$AA?$AA@ 0000000180069180     libucrt:wsetlocale.obj
 0002:00007188       ??_C@_17MBJJLFDM@?$AA_?$AA?4?$AA?0?$AA?$AA@ 0000000180069188     libucrt:wsetlocale.obj
 0002:00007190       ??_C@_13ENNFDPBH@?$AA_?$AA?$AA@ 0000000180069190     libucrt:wsetlocale.obj
 0002:00007194       ??_C@_13JOFGPIOO@?$AA?4?$AA?$AA@ 0000000180069194     libucrt:wsetlocale.obj
 0002:000071a0       __lc_time_c                00000001800691a0     libucrt:nlsdata.obj
 0002:00007460       ??_C@_03KOEHGMDN@Sun?$AA@  0000000180069460     libucrt:nlsdata.obj
 0002:00007464       ??_C@_03PDAGKDH@Mon?$AA@   0000000180069464     libucrt:nlsdata.obj
 0002:00007468       ??_C@_03NAGEINEP@Tue?$AA@  0000000180069468     libucrt:nlsdata.obj
 0002:0000746c       ??_C@_03MHOMLAJA@Wed?$AA@  000000018006946c     libucrt:nlsdata.obj
 0002:00007470       ??_C@_03IOFIKPDN@Thu?$AA@  0000000180069470     libucrt:nlsdata.obj
 0002:00007474       ??_C@_03IDIOELNC@Fri?$AA@  0000000180069474     libucrt:nlsdata.obj
 0002:00007478       ??_C@_03FEFJNEK@Sat?$AA@   0000000180069478     libucrt:nlsdata.obj
 0002:0000747c       ??_C@_06OOPIFAJ@Sunday?$AA@ 000000018006947c     libucrt:nlsdata.obj
 0002:00007484       ??_C@_06JLEDEDGH@Monday?$AA@ 0000000180069484     libucrt:nlsdata.obj
 0002:00007490       ??_C@_07BAAGCFCM@Tuesday?$AA@ 0000000180069490     libucrt:nlsdata.obj
 0002:00007498       ??_C@_09DLIGFAKA@Wednesday?$AA@ 0000000180069498     libucrt:nlsdata.obj
 0002:000074a8       ??_C@_08HACCIKIA@Thursday?$AA@ 00000001800694a8     libucrt:nlsdata.obj
 0002:000074b4       ??_C@_06JECMNKMI@Friday?$AA@ 00000001800694b4     libucrt:nlsdata.obj
 0002:000074c0       ??_C@_08INBOOONO@Saturday?$AA@ 00000001800694c0     libucrt:nlsdata.obj
 0002:000074cc       ??_C@_03JIHJHPIE@Jan?$AA@  00000001800694cc     libucrt:nlsdata.obj
 0002:000074d0       ??_C@_03HJBDCHOM@Feb?$AA@  00000001800694d0     libucrt:nlsdata.obj
 0002:000074d4       ??_C@_03ODNJBKGA@Mar?$AA@  00000001800694d4     libucrt:nlsdata.obj
 0002:000074d8       ??_C@_03LEOLGMJP@Apr?$AA@  00000001800694d8     libucrt:nlsdata.obj
 0002:000074dc       ??_C@_03CNMDKL@May?$AA@    00000001800694dc     libucrt:nlsdata.obj
 0002:000074e0       ??_C@_03IDFGHECI@Jun?$AA@  00000001800694e0     libucrt:nlsdata.obj
 0002:000074e4       ??_C@_03LBGABGKK@Jul?$AA@  00000001800694e4     libucrt:nlsdata.obj
 0002:000074e8       ??_C@_03IFJFEIGA@Aug?$AA@  00000001800694e8     libucrt:nlsdata.obj
 0002:000074ec       ??_C@_03GGCAPAJC@Sep?$AA@  00000001800694ec     libucrt:nlsdata.obj
 0002:000074f0       ??_C@_03BMAOKBAD@Oct?$AA@  00000001800694f0     libucrt:nlsdata.obj
 0002:000074f4       ??_C@_03JPJOFNIA@Nov?$AA@  00000001800694f4     libucrt:nlsdata.obj
 0002:000074f8       ??_C@_03MKABNOCG@Dec?$AA@  00000001800694f8     libucrt:nlsdata.obj
 0002:00007500       ??_C@_07CGJPFGJA@January?$AA@ 0000000180069500     libucrt:nlsdata.obj
 0002:00007508       ??_C@_08GNJGEPFN@February?$AA@ 0000000180069508     libucrt:nlsdata.obj
 0002:00007514       ??_C@_05HPCKOFNC@March?$AA@ 0000000180069514     libucrt:nlsdata.obj
 0002:0000751c       ??_C@_05DMJDNLEJ@April?$AA@ 000000018006951c     libucrt:nlsdata.obj
 0002:00007524       ??_C@_04CNLMGBGM@June?$AA@ 0000000180069524     libucrt:nlsdata.obj
 0002:0000752c       ??_C@_04MIEPOIFP@July?$AA@ 000000018006952c     libucrt:nlsdata.obj
 0002:00007534       ??_C@_06LBBHFDDG@August?$AA@ 0000000180069534     libucrt:nlsdata.obj
 0002:00007540       ??_C@_09BHHEALKD@September?$AA@ 0000000180069540     libucrt:nlsdata.obj
 0002:00007550       ??_C@_07JJNFCEND@October?$AA@ 0000000180069550     libucrt:nlsdata.obj
 0002:00007558       ??_C@_08HCHEGEOA@November?$AA@ 0000000180069558     libucrt:nlsdata.obj
 0002:00007568       ??_C@_08EDHMEBNP@December?$AA@ 0000000180069568     libucrt:nlsdata.obj
 0002:00007574       ??_C@_02DEDBPAFC@AM?$AA@   0000000180069574     libucrt:nlsdata.obj
 0002:00007578       ??_C@_02CJNFDJBF@PM?$AA@   0000000180069578     libucrt:nlsdata.obj
 0002:00007580       ??_C@_08BPBNCDIB@MM?1dd?1yy?$AA@ 0000000180069580     libucrt:nlsdata.obj
 0002:00007590       ??_C@_0BE@CKGJFCPC@dddd?0?5MMMM?5dd?0?5yyyy?$AA@ 0000000180069590     libucrt:nlsdata.obj
 0002:000075a8       ??_C@_08JCCMCCIL@HH?3mm?3ss?$AA@ 00000001800695a8     libucrt:nlsdata.obj
 0002:000075b8       ??_C@_17MBGCMIPB@?$AAS?$AAu?$AAn?$AA?$AA@ 00000001800695b8     libucrt:nlsdata.obj
 0002:000075c0       ??_C@_17KBOMKBF@?$AAM?$AAo?$AAn?$AA?$AA@ 00000001800695c0     libucrt:nlsdata.obj
 0002:000075c8       ??_C@_17BMKGEGOJ@?$AAT?$AAu?$AAe?$AA?$AA@ 00000001800695c8     libucrt:nlsdata.obj
 0002:000075d0       ??_C@_17CJEDCEPE@?$AAW?$AAe?$AAd?$AA?$AA@ 00000001800695d0     libucrt:nlsdata.obj
 0002:000075d8       ??_C@_17PDPHAADD@?$AAT?$AAh?$AAu?$AA?$AA@ 00000001800695d8     libucrt:nlsdata.obj
 0002:000075e0       ??_C@_17HFOLPPLP@?$AAF?$AAr?$AAi?$AA?$AA@ 00000001800695e0     libucrt:nlsdata.obj
 0002:000075e8       ??_C@_17GGIBDPIH@?$AAS?$AAa?$AAt?$AA?$AA@ 00000001800695e8     libucrt:nlsdata.obj
 0002:000075f0       ??_C@_1O@IHNHDHPB@?$AAS?$AAu?$AAn?$AAd?$AAa?$AAy?$AA?$AA@ 00000001800695f0     libucrt:nlsdata.obj
 0002:00007600       ??_C@_1O@MMNBFLIA@?$AAM?$AAo?$AAn?$AAd?$AAa?$AAy?$AA?$AA@ 0000000180069600     libucrt:nlsdata.obj
 0002:00007610       ??_C@_1BA@ENFBFFEK@?$AAT?$AAu?$AAe?$AAs?$AAd?$AAa?$AAy?$AA?$AA@ 0000000180069610     libucrt:nlsdata.obj
 0002:00007620       ??_C@_1BE@EBOGMDOH@?$AAW?$AAe?$AAd?$AAn?$AAe?$AAs?$AAd?$AAa?$AAy?$AA?$AA@ 0000000180069620     libucrt:nlsdata.obj
 0002:00007638       ??_C@_1BC@HHMNLIHE@?$AAT?$AAh?$AAu?$AAr?$AAs?$AAd?$AAa?$AAy?$AA?$AA@ 0000000180069638     libucrt:nlsdata.obj
 0002:00007650       ??_C@_1O@PDICJHAG@?$AAF?$AAr?$AAi?$AAd?$AAa?$AAy?$AA?$AA@ 0000000180069650     libucrt:nlsdata.obj
 0002:00007660       ??_C@_1BC@ENMNNPAJ@?$AAS?$AAa?$AAt?$AAu?$AAr?$AAd?$AAa?$AAy?$AA?$AA@ 0000000180069660     libucrt:nlsdata.obj
 0002:00007678       ??_C@_17DKNBKCHM@?$AAJ?$AAa?$AAn?$AA?$AA@ 0000000180069678     libucrt:nlsdata.obj
 0002:00007680       ??_C@_17LMDJEKJN@?$AAF?$AAe?$AAb?$AA?$AA@ 0000000180069680     libucrt:nlsdata.obj
 0002:00007688       ??_C@_17CKNLEDEC@?$AAM?$AAa?$AAr?$AA?$AA@ 0000000180069688     libucrt:nlsdata.obj
 0002:00007690       ??_C@_17LFPOIHDD@?$AAA?$AAp?$AAr?$AA?$AA@ 0000000180069690     libucrt:nlsdata.obj
 0002:00007698       ??_C@_17PNNKMEED@?$AAM?$AAa?$AAy?$AA?$AA@ 0000000180069698     libucrt:nlsdata.obj
 0002:000076a0       ??_C@_17KCJGOCPB@?$AAJ?$AAu?$AAn?$AA?$AA@ 00000001800696a0     libucrt:nlsdata.obj
 0002:000076a8       ??_C@_17IJPCKHK@?$AAJ?$AAu?$AAl?$AA?$AA@ 00000001800696a8     libucrt:nlsdata.obj
 0002:000076b0       ??_C@_17ICPELBCN@?$AAA?$AAu?$AAg?$AA?$AA@ 00000001800696b0     libucrt:nlsdata.obj
 0002:000076b8       ??_C@_17HCHCOKMG@?$AAS?$AAe?$AAp?$AA?$AA@ 00000001800696b8     libucrt:nlsdata.obj
 0002:000076c0       ??_C@_17FNLKOI@?$AAO?$AAc?$AAt?$AA?$AA@ 00000001800696c0     libucrt:nlsdata.obj
 0002:000076c8       ??_C@_17BBDMLCIG@?$AAN?$AAo?$AAv?$AA?$AA@ 00000001800696c8     libucrt:nlsdata.obj
 0002:000076d0       ??_C@_17EGKACKIF@?$AAD?$AAe?$AAc?$AA?$AA@ 00000001800696d0     libucrt:nlsdata.obj
 0002:000076d8       ??_C@_1BA@EFMEIEBA@?$AAJ?$AAa?$AAn?$AAu?$AAa?$AAr?$AAy?$AA?$AA@ 00000001800696d8     libucrt:nlsdata.obj
 0002:000076e8       ??_C@_1BC@JGDDFFAM@?$AAF?$AAe?$AAb?$AAr?$AAu?$AAa?$AAr?$AAy?$AA?$AA@ 00000001800696e8     libucrt:nlsdata.obj
 0002:00007700       ??_C@_1M@IKEENEDF@?$AAM?$AAa?$AAr?$AAc?$AAh?$AA?$AA@ 0000000180069700     libucrt:nlsdata.obj
 0002:00007710       ??_C@_1M@GJNLMHFD@?$AAA?$AAp?$AAr?$AAi?$AAl?$AA?$AA@ 0000000180069710     libucrt:nlsdata.obj
 0002:00007720       ??_C@_19EPFLPGAP@?$AAJ?$AAu?$AAn?$AAe?$AA?$AA@ 0000000180069720     libucrt:nlsdata.obj
 0002:00007730       ??_C@_19BIFMLPCD@?$AAJ?$AAu?$AAl?$AAy?$AA?$AA@ 0000000180069730     libucrt:nlsdata.obj
 0002:00007740       ??_C@_1O@PAHLKOAC@?$AAA?$AAu?$AAg?$AAu?$AAs?$AAt?$AA?$AA@ 0000000180069740     libucrt:nlsdata.obj
 0002:00007750       ??_C@_1BE@DKAAMBJL@?$AAS?$AAe?$AAp?$AAt?$AAe?$AAm?$AAb?$AAe?$AAr?$AA?$AA@ 0000000180069750     libucrt:nlsdata.obj
 0002:00007768       ??_C@_1BA@EPANDLNG@?$AAO?$AAc?$AAt?$AAo?$AAb?$AAe?$AAr?$AA?$AA@ 0000000180069768     libucrt:nlsdata.obj
 0002:00007778       ??_C@_1BC@BGLIFPF@?$AAN?$AAo?$AAv?$AAe?$AAm?$AAb?$AAe?$AAr?$AA?$AA@ 0000000180069778     libucrt:nlsdata.obj
 0002:00007790       ??_C@_1BC@FEMKIFH@?$AAD?$AAe?$AAc?$AAe?$AAm?$AAb?$AAe?$AAr?$AA?$AA@ 0000000180069790     libucrt:nlsdata.obj
 0002:000077a4       ??_C@_15ODEHAHHF@?$AAA?$AAM?$AA?$AA@ 00000001800697a4     libucrt:nlsdata.obj
 0002:000077ac       ??_C@_15CLMNNGEL@?$AAP?$AAM?$AA?$AA@ 00000001800697ac     libucrt:nlsdata.obj
 0002:000077b8       ??_C@_1BC@IEBCMHCM@?$AAM?$AAM?$AA?1?$AAd?$AAd?$AA?1?$AAy?$AAy?$AA?$AA@ 00000001800697b8     libucrt:nlsdata.obj
 0002:000077d0       ??_C@_1CI@KNAKOEBC@?$AAd?$AAd?$AAd?$AAd?$AA?0?$AA?5?$AAM?$AAM?$AAM?$AAM?$AA?5?$AAd?$AAd?$AA?0?$AA?5?$AAy?$AAy?$AAy?$AAy?$AA?$AA@ 00000001800697d0     libucrt:nlsdata.obj
 0002:000077f8       ??_C@_1BC@GDGBMEMK@?$AAH?$AAH?$AA?3?$AAm?$AAm?$AA?3?$AAs?$AAs?$AA?$AA@ 00000001800697f8     libucrt:nlsdata.obj
 0002:000079e0       ??_C@_03KHJOGHMM@exp?$AA@  00000001800699e0     libucrt:fpexcept.obj
 0002:000079e4       ??_C@_03JGHBODFD@pow?$AA@  00000001800699e4     libucrt:fpexcept.obj
 0002:000079e8       ??_C@_03MGHMBJCF@log?$AA@  00000001800699e8     libucrt:fpexcept.obj
 0002:000079ec       ??_C@_05HGHHAHAP@log10?$AA@ 00000001800699ec     libucrt:fpexcept.obj
 0002:000079f4       ??_C@_04COOMCNPB@sinh?$AA@ 00000001800699f4     libucrt:fpexcept.obj
 0002:000079fc       ??_C@_04HPJJNFIM@cosh?$AA@ 00000001800699fc     libucrt:fpexcept.obj
 0002:00007a04       ??_C@_04FJHINJAO@tanh?$AA@ 0000000180069a04     libucrt:fpexcept.obj
 0002:00007a0c       ??_C@_04FIHNOPOL@asin?$AA@ 0000000180069a0c     libucrt:fpexcept.obj
 0002:00007a14       ??_C@_04PDIFKINK@acos?$AA@ 0000000180069a14     libucrt:fpexcept.obj
 0002:00007a1c       ??_C@_04MLLJIGOK@atan?$AA@ 0000000180069a1c     libucrt:fpexcept.obj
 0002:00007a24       ??_C@_05KNGEOGJB@atan2?$AA@ 0000000180069a24     libucrt:fpexcept.obj
 0002:00007a2c       ??_C@_03BLEJJJBH@sin?$AA@  0000000180069a2c     libucrt:fpexcept.obj
 0002:00007a30       ??_C@_03LALBNOCG@cos?$AA@  0000000180069a30     libucrt:fpexcept.obj
 0002:00007a34       ??_C@_03IIINPABG@tan?$AA@  0000000180069a34     libucrt:fpexcept.obj
 0002:00007a38       ??_C@_04GFPJNGEK@ceil?$AA@ 0000000180069a38     libucrt:fpexcept.obj
 0002:00007a40       ??_C@_05PBJFFIGL@floor?$AA@ 0000000180069a40     libucrt:fpexcept.obj
 0002:00007a48       ??_C@_04ODHECPBC@fabs?$AA@ 0000000180069a48     libucrt:fpexcept.obj
 0002:00007a50       ??_C@_04EHEDPDJG@modf?$AA@ 0000000180069a50     libucrt:fpexcept.obj
 0002:00007a58       ??_C@_05CEJMAHNP@ldexp?$AA@ 0000000180069a58     libucrt:fpexcept.obj
 0002:00007a60       ??_C@_05KBKMEMPO@_cabs?$AA@ 0000000180069a60     libucrt:fpexcept.obj
 0002:00007a68       ??_C@_06MEIMCGCF@_hypot?$AA@ 0000000180069a68     libucrt:fpexcept.obj
 0002:00007a70       ??_C@_04KEPJIHGP@fmod?$AA@ 0000000180069a70     libucrt:fpexcept.obj
 0002:00007a78       ??_C@_05GKKHEGJL@frexp?$AA@ 0000000180069a78     libucrt:fpexcept.obj
 0002:00007a80       ??_C@_03MJLDFKDL@_y0?$AA@  0000000180069a80     libucrt:fpexcept.obj
 0002:00007a84       ??_C@_03NAKIGLHK@_y1?$AA@  0000000180069a84     libucrt:fpexcept.obj
 0002:00007a88       ??_C@_03ONILCKOB@_yn?$AA@  0000000180069a88     libucrt:fpexcept.obj
 0002:00007a8c       ??_C@_05JGDBENOH@_logb?$AA@ 0000000180069a8c     libucrt:fpexcept.obj
 0002:00007a98       ??_C@_0L@KDOEJCKC@_nextafter?$AA@ 0000000180069a98     libucrt:fpexcept.obj
 0002:00007aa8       _d_inf                     0000000180069aa8     libucrt:util.obj
 0002:00007ab0       _d_max                     0000000180069ab0     libucrt:util.obj
 0002:00007ab8       ?ccs@?BL@???$__acrt_stdio_parse_mode@D@@YA?AU__acrt_stdio_stream_mode@@QEBD@Z@4QBDB 0000000180069ab8     libucrt:openfile.obj
 0002:00007abc       ?utf8_encoding@?BL@???$__acrt_stdio_parse_mode@D@@YA?AU__acrt_stdio_stream_mode@@QEBD@Z@4QBDB 0000000180069abc     libucrt:openfile.obj
 0002:00007ac8       ?utf16_encoding@?BL@???$__acrt_stdio_parse_mode@D@@YA?AU__acrt_stdio_stream_mode@@QEBD@Z@4QBDB 0000000180069ac8     libucrt:openfile.obj
 0002:00007ad0       ?unicode_encoding@?BL@???$__acrt_stdio_parse_mode@D@@YA?AU__acrt_stdio_stream_mode@@QEBD@Z@4QBDB 0000000180069ad0     libucrt:openfile.obj
 0002:00007b80       ??_C@_1EG@CNNIPFIM@?$AAa?$AAp?$AAi?$AA?9?$AAm?$AAs?$AA?9?$AAw?$AAi?$AAn?$AA?9?$AAa?$AAp?$AAp?$AAm?$AAo?$AAd?$AAe?$AAl?$AA?9?$AAr?$AAu?$AAn?$AAt?$AAi?$AAm?$AAe?$AA?9?$AAl?$AA1?$AA?9?$AA1@ 0000000180069b80     libucrt:winapi_thunks.obj
 0002:00007bd0       ??_C@_1EA@JGEFHKEI@?$AAa?$AAp?$AAi?$AA?9?$AAm?$AAs?$AA?9?$AAw?$AAi?$AAn?$AA?9?$AAc?$AAo?$AAr?$AAe?$AA?9?$AAd?$AAa?$AAt?$AAe?$AAt?$AAi?$AAm?$AAe?$AA?9?$AAl?$AA1?$AA?9?$AA1?$AA?9?$AA1?$AA?$AA@ 0000000180069bd0     libucrt:winapi_thunks.obj
 0002:00007c10       ??_C@_1DI@GCIAAENM@?$AAa?$AAp?$AAi?$AA?9?$AAm?$AAs?$AA?9?$AAw?$AAi?$AAn?$AA?9?$AAc?$AAo?$AAr?$AAe?$AA?9?$AAf?$AAi?$AAl?$AAe?$AA?9?$AAl?$AA2?$AA?9?$AA1?$AA?9?$AA1?$AA?$AA@ 0000000180069c10     libucrt:winapi_thunks.obj
 0002:00007c50       ??_C@_1EI@MPIAOHOC@?$AAa?$AAp?$AAi?$AA?9?$AAm?$AAs?$AA?9?$AAw?$AAi?$AAn?$AA?9?$AAc?$AAo?$AAr?$AAe?$AA?9?$AAl?$AAo?$AAc?$AAa?$AAl?$AAi?$AAz?$AAa?$AAt?$AAi?$AAo?$AAn?$AA?9?$AAl?$AA1?$AA?9@ 0000000180069c50     libucrt:winapi_thunks.obj
 0002:00007ca0       ??_C@_1FK@FPHCKFIE@?$AAa?$AAp?$AAi?$AA?9?$AAm?$AAs?$AA?9?$AAw?$AAi?$AAn?$AA?9?$AAc?$AAo?$AAr?$AAe?$AA?9?$AAl?$AAo?$AAc?$AAa?$AAl?$AAi?$AAz?$AAa?$AAt?$AAi?$AAo?$AAn?$AA?9?$AAo?$AAb?$AAs@ 0000000180069ca0     libucrt:winapi_thunks.obj
 0002:00007d00       ??_C@_1EM@DILCGIIO@?$AAa?$AAp?$AAi?$AA?9?$AAm?$AAs?$AA?9?$AAw?$AAi?$AAn?$AA?9?$AAc?$AAo?$AAr?$AAe?$AA?9?$AAp?$AAr?$AAo?$AAc?$AAe?$AAs?$AAs?$AAt?$AAh?$AAr?$AAe?$AAa?$AAd?$AAs?$AA?9?$AAl@ 0000000180069d00     libucrt:winapi_thunks.obj
 0002:00007d50       ??_C@_1DM@LNCGDDPN@?$AAa?$AAp?$AAi?$AA?9?$AAm?$AAs?$AA?9?$AAw?$AAi?$AAn?$AA?9?$AAc?$AAo?$AAr?$AAe?$AA?9?$AAs?$AAt?$AAr?$AAi?$AAn?$AAg?$AA?9?$AAl?$AA1?$AA?9?$AA1?$AA?9?$AA0?$AA?$AA@ 0000000180069d50     libucrt:winapi_thunks.obj
 0002:00007d90       ??_C@_1DO@FPAPJEMD@?$AAa?$AAp?$AAi?$AA?9?$AAm?$AAs?$AA?9?$AAw?$AAi?$AAn?$AA?9?$AAc?$AAo?$AAr?$AAe?$AA?9?$AAs?$AAy?$AAs?$AAi?$AAn?$AAf?$AAo?$AA?9?$AAl?$AA1?$AA?9?$AA2?$AA?9?$AA1?$AA?$AA@ 0000000180069d90     libucrt:winapi_thunks.obj
 0002:00007dd0       ??_C@_1DK@NDHNAHIO@?$AAa?$AAp?$AAi?$AA?9?$AAm?$AAs?$AA?9?$AAw?$AAi?$AAn?$AA?9?$AAc?$AAo?$AAr?$AAe?$AA?9?$AAw?$AAi?$AAn?$AAr?$AAt?$AA?9?$AAl?$AA1?$AA?9?$AA1?$AA?9?$AA0?$AA?$AA@ 0000000180069dd0     libucrt:winapi_thunks.obj
 0002:00007e10       ??_C@_1DM@KGHDGBCM@?$AAa?$AAp?$AAi?$AA?9?$AAm?$AAs?$AA?9?$AAw?$AAi?$AAn?$AA?9?$AAc?$AAo?$AAr?$AAe?$AA?9?$AAx?$AAs?$AAt?$AAa?$AAt?$AAe?$AA?9?$AAl?$AA2?$AA?9?$AA1?$AA?9?$AA0?$AA?$AA@ 0000000180069e10     libucrt:winapi_thunks.obj
 0002:00007e50       ??_C@_1EO@IJIOEFOH@?$AAa?$AAp?$AAi?$AA?9?$AAm?$AAs?$AA?9?$AAw?$AAi?$AAn?$AA?9?$AAr?$AAt?$AAc?$AAo?$AAr?$AAe?$AA?9?$AAn?$AAt?$AAu?$AAs?$AAe?$AAr?$AA?9?$AAw?$AAi?$AAn?$AAd?$AAo?$AAw?$AA?9@ 0000000180069e50     libucrt:winapi_thunks.obj
 0002:00007ea0       ??_C@_1FG@HHGEKANL@?$AAa?$AAp?$AAi?$AA?9?$AAm?$AAs?$AA?9?$AAw?$AAi?$AAn?$AA?9?$AAs?$AAe?$AAc?$AAu?$AAr?$AAi?$AAt?$AAy?$AA?9?$AAs?$AAy?$AAs?$AAt?$AAe?$AAm?$AAf?$AAu?$AAn?$AAc?$AAt?$AAi@ 0000000180069ea0     libucrt:winapi_thunks.obj
 0002:00007f00       ??_C@_1FG@NCKKOLKO@?$AAe?$AAx?$AAt?$AA?9?$AAm?$AAs?$AA?9?$AAw?$AAi?$AAn?$AA?9?$AAk?$AAe?$AAr?$AAn?$AAe?$AAl?$AA3?$AA2?$AA?9?$AAp?$AAa?$AAc?$AAk?$AAa?$AAg?$AAe?$AA?9?$AAc?$AAu?$AAr?$AAr@ 0000000180069f00     libucrt:winapi_thunks.obj
 0002:00007f60       ??_C@_1EG@DBIOJECG@?$AAe?$AAx?$AAt?$AA?9?$AAm?$AAs?$AA?9?$AAw?$AAi?$AAn?$AA?9?$AAn?$AAt?$AAu?$AAs?$AAe?$AAr?$AA?9?$AAd?$AAi?$AAa?$AAl?$AAo?$AAg?$AAb?$AAo?$AAx?$AA?9?$AAl?$AA1?$AA?9?$AA1@ 0000000180069f60     libucrt:winapi_thunks.obj
 0002:00007fb0       ??_C@_1EO@FIHMJCLF@?$AAe?$AAx?$AAt?$AA?9?$AAm?$AAs?$AA?9?$AAw?$AAi?$AAn?$AA?9?$AAn?$AAt?$AAu?$AAs?$AAe?$AAr?$AA?9?$AAw?$AAi?$AAn?$AAd?$AAo?$AAw?$AAs?$AAt?$AAa?$AAt?$AAi?$AAo?$AAn?$AA?9@ 0000000180069fb0     libucrt:winapi_thunks.obj
 0002:00008000       ??_C@_1O@BCCLBEOE@?$AAu?$AAs?$AAe?$AAr?$AA3?$AA2?$AA?$AA@ 000000018006a000     libucrt:winapi_thunks.obj
 0002:00008018       ??_C@_0BA@FHFNEAED@AreFileApisANSI?$AA@ 000000018006a018     libucrt:winapi_thunks.obj
 0002:00008038       ??_C@_0BE@LJANKFHF@EnumSystemLocalesEx?$AA@ 000000018006a038     libucrt:winapi_thunks.obj
 0002:00008078       ??_C@_0BA@HNOPNCHB@GetActiveWindow?$AA@ 000000018006a078     libucrt:winapi_thunks.obj
 0002:000080a0       ??_C@_0BD@HHGDFDBJ@GetLastActivePopup?$AA@ 000000018006a0a0     libucrt:winapi_thunks.obj
 0002:000080c8       ??_C@_0BI@DFKBFLJE@GetProcessWindowStation?$AA@ 000000018006a0c8     libucrt:winapi_thunks.obj
 0002:000080f0       ??_C@_0BJ@PBCCBIPI@GetUserDefaultLocaleName?$AA@ 000000018006a0f0     libucrt:winapi_thunks.obj
 0002:00008118       ??_C@_0BK@DEKFELLI@GetUserObjectInformationW?$AA@ 000000018006a118     libucrt:winapi_thunks.obj
 0002:00008148       ??_C@_0BC@CELBKLLA@IsValidLocaleName?$AA@ 000000018006a148     libucrt:winapi_thunks.obj
 0002:00008170       ??_C@_0BB@CDHDDLLP@LCIDToLocaleName?$AA@ 000000018006a170     libucrt:winapi_thunks.obj
 0002:00008190       ??_C@_0BB@HBDEELFH@LocaleNameToLCID?$AA@ 000000018006a190     libucrt:winapi_thunks.obj
 0002:000081b0       ??_C@_0M@CHKKJDAI@MessageBoxA?$AA@ 000000018006a1b0     libucrt:winapi_thunks.obj
 0002:000081c8       ??_C@_0M@DLDCCGNP@MessageBoxW?$AA@ 000000018006a1c8     libucrt:winapi_thunks.obj
 0002:000081d4       ??_C@_02CLFPBFFP@TZ?$AA@   000000018006a1d4     libucrt:tzset.obj
 0002:00008200       ?large_power_data@?1??multiply_by_power_of_ten@__crt_strtox@@YA_NAEAUbig_integer@2@I@Z@4QBIB 000000018006a200     libucrt:cfout.obj
 0002:00008b10       ?large_power_indices@?1??multiply_by_power_of_ten@__crt_strtox@@YA_NAEAUbig_integer@2@I@Z@4QBUunpack_index@?1??12@YA_N0I@Z@B 000000018006ab10     libucrt:cfout.obj
 0002:00008ba8       ?small_powers_of_ten@?6??multiply_by_power_of_ten@__crt_strtox@@YA_NAEAUbig_integer@2@I@Z@4QBIB 000000018006aba8     libucrt:cfout.obj
 0002:00008bcc       ??_C@_01GBGANLPD@0?$AA@    000000018006abcc     libucrt:cfout.obj
 0002:00008bd0       ??_C@_05DNEBIAHO@1?$CDINF?$AA@ 000000018006abd0     libucrt:cfout.obj
 0002:00008bd8       ??_C@_06IMKFLFPG@1?$CDQNAN?$AA@ 000000018006abd8     libucrt:cfout.obj
 0002:00008be0       ??_C@_06PGGFOGJG@1?$CDSNAN?$AA@ 000000018006abe0     libucrt:cfout.obj
 0002:00008be8       ??_C@_05PHHOCPM@1?$CDIND?$AA@ 000000018006abe8     libucrt:cfout.obj
 0002:00008bf0       __acrt_rg_language         000000018006abf0     libucrt:get_qualified_locale.obj
 0002:00009000       __acrt_rg_language_count   000000018006b000     libucrt:get_qualified_locale.obj
 0002:00009010       __acrt_rg_country          000000018006b010     libucrt:get_qualified_locale.obj
 0002:00009180       __acrt_rg_country_count    000000018006b180     libucrt:get_qualified_locale.obj
 0002:00009188       ??_C@_1BC@LLOKLNP@?$AAa?$AAm?$AAe?$AAr?$AAi?$AAc?$AAa?$AAn?$AA?$AA@ 000000018006b188     libucrt:get_qualified_locale.obj
 0002:000091a0       ??_C@_1CC@HEIGCDGG@?$AAa?$AAm?$AAe?$AAr?$AAi?$AAc?$AAa?$AAn?$AA?5?$AAe?$AAn?$AAg?$AAl?$AAi?$AAs?$AAh?$AA?$AA@ 000000018006b1a0     libucrt:get_qualified_locale.obj
 0002:000091c8       ??_C@_1CC@IHCNOMIN@?$AAa?$AAm?$AAe?$AAr?$AAi?$AAc?$AAa?$AAn?$AA?9?$AAe?$AAn?$AAg?$AAl?$AAi?$AAs?$AAh?$AA?$AA@ 000000018006b1c8     libucrt:get_qualified_locale.obj
 0002:000091f0       ??_C@_1BG@GKAGPCGG@?$AAa?$AAu?$AAs?$AAt?$AAr?$AAa?$AAl?$AAi?$AAa?$AAn?$AA?$AA@ 000000018006b1f0     libucrt:get_qualified_locale.obj
 0002:00009208       ??_C@_1BA@GMENCENF@?$AAb?$AAe?$AAl?$AAg?$AAi?$AAa?$AAn?$AA?$AA@ 000000018006b208     libucrt:get_qualified_locale.obj
 0002:00009218       ??_C@_1BC@PJMIIAAN@?$AAc?$AAa?$AAn?$AAa?$AAd?$AAi?$AAa?$AAn?$AA?$AA@ 000000018006b218     libucrt:get_qualified_locale.obj
 0002:00009230       ??_C@_17NOIMNFBF@?$AAc?$AAh?$AAh?$AA?$AA@ 000000018006b230     libucrt:get_qualified_locale.obj
 0002:00009238       ??_C@_17GGDALCHA@?$AAc?$AAh?$AAi?$AA?$AA@ 000000018006b238     libucrt:get_qualified_locale.obj
 0002:00009240       ??_C@_1BA@NPNJKIBL@?$AAc?$AAh?$AAi?$AAn?$AAe?$AAs?$AAe?$AA?$AA@ 000000018006b240     libucrt:get_qualified_locale.obj
 0002:00009250       ??_C@_1CC@DINBAMMJ@?$AAc?$AAh?$AAi?$AAn?$AAe?$AAs?$AAe?$AA?9?$AAh?$AAo?$AAn?$AAg?$AAk?$AAo?$AAn?$AAg?$AA?$AA@ 000000018006b250     libucrt:get_qualified_locale.obj
 0002:00009278       ??_C@_1CG@IOBJPACO@?$AAc?$AAh?$AAi?$AAn?$AAe?$AAs?$AAe?$AA?9?$AAs?$AAi?$AAm?$AAp?$AAl?$AAi?$AAf?$AAi?$AAe?$AAd?$AA?$AA@ 000000018006b278     libucrt:get_qualified_locale.obj
 0002:000092a0       ??_C@_1CE@GAJNDCKG@?$AAc?$AAh?$AAi?$AAn?$AAe?$AAs?$AAe?$AA?9?$AAs?$AAi?$AAn?$AAg?$AAa?$AAp?$AAo?$AAr?$AAe?$AA?$AA@ 000000018006b2a0     libucrt:get_qualified_locale.obj
 0002:000092c8       ??_C@_1CI@PAJPIOOD@?$AAc?$AAh?$AAi?$AAn?$AAe?$AAs?$AAe?$AA?9?$AAt?$AAr?$AAa?$AAd?$AAi?$AAt?$AAi?$AAo?$AAn?$AAa?$AAl?$AA?$AA@ 000000018006b2c8     libucrt:get_qualified_locale.obj
 0002:000092f0       ??_C@_1BM@NILJBMMD@?$AAd?$AAu?$AAt?$AAc?$AAh?$AA?9?$AAb?$AAe?$AAl?$AAg?$AAi?$AAa?$AAn?$AA?$AA@ 000000018006b2f0     libucrt:get_qualified_locale.obj
 0002:00009310       ??_C@_1CC@OOJPJNEJ@?$AAe?$AAn?$AAg?$AAl?$AAi?$AAs?$AAh?$AA?9?$AAa?$AAm?$AAe?$AAr?$AAi?$AAc?$AAa?$AAn?$AA?$AA@ 000000018006b310     libucrt:get_qualified_locale.obj
 0002:00009338       ??_C@_1BI@IOLFEEM@?$AAe?$AAn?$AAg?$AAl?$AAi?$AAs?$AAh?$AA?9?$AAa?$AAu?$AAs?$AA?$AA@ 000000018006b338     libucrt:get_qualified_locale.obj
 0002:00009350       ??_C@_1BO@HFFNLENJ@?$AAe?$AAn?$AAg?$AAl?$AAi?$AAs?$AAh?$AA?9?$AAb?$AAe?$AAl?$AAi?$AAz?$AAe?$AA?$AA@ 000000018006b350     libucrt:get_qualified_locale.obj
 0002:00009370       ??_C@_1BI@HAPKJMPO@?$AAe?$AAn?$AAg?$AAl?$AAi?$AAs?$AAh?$AA?9?$AAc?$AAa?$AAn?$AA?$AA@ 000000018006b370     libucrt:get_qualified_locale.obj
 0002:00009388       ??_C@_1CE@HLNDMIOJ@?$AAe?$AAn?$AAg?$AAl?$AAi?$AAs?$AAh?$AA?9?$AAc?$AAa?$AAr?$AAi?$AAb?$AAb?$AAe?$AAa?$AAn?$AA?$AA@ 000000018006b388     libucrt:get_qualified_locale.obj
 0002:000093b0       ??_C@_1BI@LDHJHHAC@?$AAe?$AAn?$AAg?$AAl?$AAi?$AAs?$AAh?$AA?9?$AAi?$AAr?$AAe?$AA?$AA@ 000000018006b3b0     libucrt:get_qualified_locale.obj
 0002:000093c8       ??_C@_1CA@NJMMCFOC@?$AAe?$AAn?$AAg?$AAl?$AAi?$AAs?$AAh?$AA?9?$AAj?$AAa?$AAm?$AAa?$AAi?$AAc?$AAa?$AA?$AA@ 000000018006b3c8     libucrt:get_qualified_locale.obj
 0002:000093e8       ??_C@_1BG@BHJEBBGG@?$AAe?$AAn?$AAg?$AAl?$AAi?$AAs?$AAh?$AA?9?$AAn?$AAz?$AA?$AA@ 000000018006b3e8     libucrt:get_qualified_locale.obj
 0002:00009400       ??_C@_1CK@FGOEJJCO@?$AAe?$AAn?$AAg?$AAl?$AAi?$AAs?$AAh?$AA?9?$AAs?$AAo?$AAu?$AAt?$AAh?$AA?5?$AAa?$AAf?$AAr?$AAi?$AAc?$AAa?$AA?$AA@ 000000018006b400     libucrt:get_qualified_locale.obj
 0002:00009430       ??_C@_1DE@PDBJPCJ@?$AAe?$AAn?$AAg?$AAl?$AAi?$AAs?$AAh?$AA?9?$AAt?$AAr?$AAi?$AAn?$AAi?$AAd?$AAa?$AAd?$AA?5?$AAy?$AA?5?$AAt?$AAo?$AAb?$AAa?$AAg?$AAo?$AA?$AA@ 000000018006b430     libucrt:get_qualified_locale.obj
 0002:00009468       ??_C@_1BG@JGCANDME@?$AAe?$AAn?$AAg?$AAl?$AAi?$AAs?$AAh?$AA?9?$AAu?$AAk?$AA?$AA@ 000000018006b468     libucrt:get_qualified_locale.obj
 0002:00009480       ??_C@_1BG@DINKMLE@?$AAe?$AAn?$AAg?$AAl?$AAi?$AAs?$AAh?$AA?9?$AAu?$AAs?$AA?$AA@ 000000018006b480     libucrt:get_qualified_locale.obj
 0002:00009498       ??_C@_1BI@NMFDBHJE@?$AAe?$AAn?$AAg?$AAl?$AAi?$AAs?$AAh?$AA?9?$AAu?$AAs?$AAa?$AA?$AA@ 000000018006b498     libucrt:get_qualified_locale.obj
 0002:000094b0       ??_C@_1BO@OIHKJKII@?$AAf?$AAr?$AAe?$AAn?$AAc?$AAh?$AA?9?$AAb?$AAe?$AAl?$AAg?$AAi?$AAa?$AAn?$AA?$AA@ 000000018006b4b0     libucrt:get_qualified_locale.obj
 0002:000094d0       ??_C@_1CA@NKAELJKI@?$AAf?$AAr?$AAe?$AAn?$AAc?$AAh?$AA?9?$AAc?$AAa?$AAn?$AAa?$AAd?$AAi?$AAa?$AAn?$AA?$AA@ 000000018006b4d0     libucrt:get_qualified_locale.obj
 0002:000094f0       ??_C@_1CE@MGKCNLGN@?$AAf?$AAr?$AAe?$AAn?$AAc?$AAh?$AA?9?$AAl?$AAu?$AAx?$AAe?$AAm?$AAb?$AAo?$AAu?$AAr?$AAg?$AA?$AA@ 000000018006b4f0     libucrt:get_qualified_locale.obj
 0002:00009518       ??_C@_1BK@CEGEAILM@?$AAf?$AAr?$AAe?$AAn?$AAc?$AAh?$AA?9?$AAs?$AAw?$AAi?$AAs?$AAs?$AA?$AA@ 000000018006b518     libucrt:get_qualified_locale.obj
 0002:00009538       ??_C@_1CA@PAFKEOCC@?$AAg?$AAe?$AAr?$AAm?$AAa?$AAn?$AA?9?$AAa?$AAu?$AAs?$AAt?$AAr?$AAi?$AAa?$AAn?$AA?$AA@ 000000018006b538     libucrt:get_qualified_locale.obj
 0002:00009558       ??_C@_1CI@HCFHGOFD@?$AAg?$AAe?$AAr?$AAm?$AAa?$AAn?$AA?9?$AAl?$AAi?$AAc?$AAh?$AAt?$AAe?$AAn?$AAs?$AAt?$AAe?$AAi?$AAn?$AA?$AA@ 000000018006b558     libucrt:get_qualified_locale.obj
 0002:00009580       ??_C@_1CE@FEDDNPDG@?$AAg?$AAe?$AAr?$AAm?$AAa?$AAn?$AA?9?$AAl?$AAu?$AAx?$AAe?$AAm?$AAb?$AAo?$AAu?$AAr?$AAg?$AA?$AA@ 000000018006b580     libucrt:get_qualified_locale.obj
 0002:000095a8       ??_C@_1BK@LIMINNMN@?$AAg?$AAe?$AAr?$AAm?$AAa?$AAn?$AA?9?$AAs?$AAw?$AAi?$AAs?$AAs?$AA?$AA@ 000000018006b5a8     libucrt:get_qualified_locale.obj
 0002:000095c8       ??_C@_1BM@LGMDBEPD@?$AAi?$AAr?$AAi?$AAs?$AAh?$AA?9?$AAe?$AAn?$AAg?$AAl?$AAi?$AAs?$AAh?$AA?$AA@ 000000018006b5c8     libucrt:get_qualified_locale.obj
 0002:000095e8       ??_C@_1BM@NNCFBAEE@?$AAi?$AAt?$AAa?$AAl?$AAi?$AAa?$AAn?$AA?9?$AAs?$AAw?$AAi?$AAs?$AAs?$AA?$AA@ 000000018006b5e8     libucrt:get_qualified_locale.obj
 0002:00009608       ??_C@_1BE@FEDJNPIB@?$AAn?$AAo?$AAr?$AAw?$AAe?$AAg?$AAi?$AAa?$AAn?$AA?$AA@ 000000018006b608     libucrt:get_qualified_locale.obj
 0002:00009620       ??_C@_1CC@CILKDEIE@?$AAn?$AAo?$AAr?$AAw?$AAe?$AAg?$AAi?$AAa?$AAn?$AA?9?$AAb?$AAo?$AAk?$AAm?$AAa?$AAl?$AA?$AA@ 000000018006b620     libucrt:get_qualified_locale.obj
 0002:00009648       ??_C@_1CE@DHMMHEPL@?$AAn?$AAo?$AAr?$AAw?$AAe?$AAg?$AAi?$AAa?$AAn?$AA?9?$AAn?$AAy?$AAn?$AAo?$AAr?$AAs?$AAk?$AA?$AA@ 000000018006b648     libucrt:get_qualified_locale.obj
 0002:00009670       ??_C@_1CK@OPNMHECD@?$AAp?$AAo?$AAr?$AAt?$AAu?$AAg?$AAu?$AAe?$AAs?$AAe?$AA?9?$AAb?$AAr?$AAa?$AAz?$AAi?$AAl?$AAi?$AAa?$AAn?$AA?$AA@ 000000018006b670     libucrt:get_qualified_locale.obj
 0002:000096a0       ??_C@_1CE@KEEHCDB@?$AAs?$AAp?$AAa?$AAn?$AAi?$AAs?$AAh?$AA?9?$AAa?$AAr?$AAg?$AAe?$AAn?$AAt?$AAi?$AAn?$AAa?$AA?$AA@ 000000018006b6a0     libucrt:get_qualified_locale.obj
 0002:000096c8       ??_C@_1CA@GIAOLHJD@?$AAs?$AAp?$AAa?$AAn?$AAi?$AAs?$AAh?$AA?9?$AAb?$AAo?$AAl?$AAi?$AAv?$AAi?$AAa?$AA?$AA@ 000000018006b6c8     libucrt:get_qualified_locale.obj
 0002:000096e8       ??_C@_1BM@OJNDFNPD@?$AAs?$AAp?$AAa?$AAn?$AAi?$AAs?$AAh?$AA?9?$AAc?$AAh?$AAi?$AAl?$AAe?$AA?$AA@ 000000018006b6e8     libucrt:get_qualified_locale.obj
 0002:00009708       ??_C@_1CC@OCOLPALL@?$AAs?$AAp?$AAa?$AAn?$AAi?$AAs?$AAh?$AA?9?$AAc?$AAo?$AAl?$AAo?$AAm?$AAb?$AAi?$AAa?$AA?$AA@ 000000018006b708     libucrt:get_qualified_locale.obj
 0002:00009730       ??_C@_1CG@BPOFMKBB@?$AAs?$AAp?$AAa?$AAn?$AAi?$AAs?$AAh?$AA?9?$AAc?$AAo?$AAs?$AAt?$AAa?$AA?5?$AAr?$AAi?$AAc?$AAa?$AA?$AA@ 000000018006b730     libucrt:get_qualified_locale.obj
 0002:00009758       ??_C@_1DG@IGOBAPBB@?$AAs?$AAp?$AAa?$AAn?$AAi?$AAs?$AAh?$AA?9?$AAd?$AAo?$AAm?$AAi?$AAn?$AAi?$AAc?$AAa?$AAn?$AA?5?$AAr?$AAe?$AAp?$AAu?$AAb?$AAl?$AAi?$AAc?$AA?$AA@ 000000018006b758     libucrt:get_qualified_locale.obj
 0002:00009790       ??_C@_1CA@JHAPGEGI@?$AAs?$AAp?$AAa?$AAn?$AAi?$AAs?$AAh?$AA?9?$AAe?$AAc?$AAu?$AAa?$AAd?$AAo?$AAr?$AA?$AA@ 000000018006b790     libucrt:get_qualified_locale.obj
 0002:000097b0       ??_C@_1CI@LAPALJPP@?$AAs?$AAp?$AAa?$AAn?$AAi?$AAs?$AAh?$AA?9?$AAe?$AAl?$AA?5?$AAs?$AAa?$AAl?$AAv?$AAa?$AAd?$AAo?$AAr?$AA?$AA@ 000000018006b7b0     libucrt:get_qualified_locale.obj
 0002:000097d8       ??_C@_1CE@PDGBOFOM@?$AAs?$AAp?$AAa?$AAn?$AAi?$AAs?$AAh?$AA?9?$AAg?$AAu?$AAa?$AAt?$AAe?$AAm?$AAa?$AAl?$AAa?$AA?$AA@ 000000018006b7d8     libucrt:get_qualified_locale.obj
 0002:00009800       ??_C@_1CC@NBEBAODI@?$AAs?$AAp?$AAa?$AAn?$AAi?$AAs?$AAh?$AA?9?$AAh?$AAo?$AAn?$AAd?$AAu?$AAr?$AAa?$AAs?$AA?$AA@ 000000018006b800     libucrt:get_qualified_locale.obj
 0002:00009828       ??_C@_1CA@LLKGHBMF@?$AAs?$AAp?$AAa?$AAn?$AAi?$AAs?$AAh?$AA?9?$AAm?$AAe?$AAx?$AAi?$AAc?$AAa?$AAn?$AA?$AA@ 000000018006b828     libucrt:get_qualified_locale.obj
 0002:00009848       ??_C@_1BO@LKNDOIGD@?$AAs?$AAp?$AAa?$AAn?$AAi?$AAs?$AAh?$AA?9?$AAm?$AAo?$AAd?$AAe?$AAr?$AAn?$AA?$AA@ 000000018006b848     libucrt:get_qualified_locale.obj
 0002:00009868       ??_C@_1CE@NMDMOEEB@?$AAs?$AAp?$AAa?$AAn?$AAi?$AAs?$AAh?$AA?9?$AAn?$AAi?$AAc?$AAa?$AAr?$AAa?$AAg?$AAu?$AAa?$AA?$AA@ 000000018006b868     libucrt:get_qualified_locale.obj
 0002:00009890       ??_C@_1BO@LLCBEJGB@?$AAs?$AAp?$AAa?$AAn?$AAi?$AAs?$AAh?$AA?9?$AAp?$AAa?$AAn?$AAa?$AAm?$AAa?$AA?$AA@ 000000018006b890     libucrt:get_qualified_locale.obj
 0002:000098b0       ??_C@_1CC@FKPGGIHO@?$AAs?$AAp?$AAa?$AAn?$AAi?$AAs?$AAh?$AA?9?$AAp?$AAa?$AAr?$AAa?$AAg?$AAu?$AAa?$AAy?$AA?$AA@ 000000018006b8b0     libucrt:get_qualified_locale.obj
 0002:000098d8       ??_C@_1BK@CDEIHOOP@?$AAs?$AAp?$AAa?$AAn?$AAi?$AAs?$AAh?$AA?9?$AAp?$AAe?$AAr?$AAu?$AA?$AA@ 000000018006b8d8     libucrt:get_qualified_locale.obj
 0002:000098f8       ??_C@_1CI@GAHAKKGP@?$AAs?$AAp?$AAa?$AAn?$AAi?$AAs?$AAh?$AA?9?$AAp?$AAu?$AAe?$AAr?$AAt?$AAo?$AA?5?$AAr?$AAi?$AAc?$AAo?$AA?$AA@ 000000018006b8f8     libucrt:get_qualified_locale.obj
 0002:00009920       ??_C@_1CA@NKJBCAGP@?$AAs?$AAp?$AAa?$AAn?$AAi?$AAs?$AAh?$AA?9?$AAu?$AAr?$AAu?$AAg?$AAu?$AAa?$AAy?$AA?$AA@ 000000018006b920     libucrt:get_qualified_locale.obj
 0002:00009940       ??_C@_1CE@ODILCONM@?$AAs?$AAp?$AAa?$AAn?$AAi?$AAs?$AAh?$AA?9?$AAv?$AAe?$AAn?$AAe?$AAz?$AAu?$AAe?$AAl?$AAa?$AA?$AA@ 000000018006b940     libucrt:get_qualified_locale.obj
 0002:00009968       ??_C@_1CA@OBNMCGFO@?$AAs?$AAw?$AAe?$AAd?$AAi?$AAs?$AAh?$AA?9?$AAf?$AAi?$AAn?$AAl?$AAa?$AAn?$AAd?$AA?$AA@ 000000018006b968     libucrt:get_qualified_locale.obj
 0002:00009988       ??_C@_1M@PIPDDPPI@?$AAs?$AAw?$AAi?$AAs?$AAs?$AA?$AA@ 000000018006b988     libucrt:get_qualified_locale.obj
 0002:00009994       ??_C@_15GMFIMNFM@?$AAu?$AAs?$AA?$AA@ 000000018006b994     libucrt:get_qualified_locale.obj
 0002:000099a0       ??_C@_17HAEBFAGL@?$AAu?$AAs?$AAa?$AA?$AA@ 000000018006b9a0     libucrt:get_qualified_locale.obj
 0002:000099a8       ??_C@_1BA@DPFJEPHB@?$AAa?$AAm?$AAe?$AAr?$AAi?$AAc?$AAa?$AA?$AA@ 000000018006b9a8     libucrt:get_qualified_locale.obj
 0002:000099b8       ??_C@_1BA@ELOGGFK@?$AAb?$AAr?$AAi?$AAt?$AAa?$AAi?$AAn?$AA?$AA@ 000000018006b9b8     libucrt:get_qualified_locale.obj
 0002:000099c8       ??_C@_1M@GHBGIGDA@?$AAc?$AAh?$AAi?$AAn?$AAa?$AA?$AA@ 000000018006b9c8     libucrt:get_qualified_locale.obj
 0002:000099d8       ??_C@_1M@NCHEJOPO@?$AAc?$AAz?$AAe?$AAc?$AAh?$AA?$AA@ 000000018006b9d8     libucrt:get_qualified_locale.obj
 0002:000099e8       ??_C@_1BA@BKPAPBLA@?$AAe?$AAn?$AAg?$AAl?$AAa?$AAn?$AAd?$AA?$AA@ 000000018006b9e8     libucrt:get_qualified_locale.obj
 0002:000099f8       ??_C@_1BM@HKBCKIPC@?$AAg?$AAr?$AAe?$AAa?$AAt?$AA?5?$AAb?$AAr?$AAi?$AAt?$AAa?$AAi?$AAn?$AA?$AA@ 000000018006b9f8     libucrt:get_qualified_locale.obj
 0002:00009a18       ??_C@_1BA@PPCHPGJB@?$AAh?$AAo?$AAl?$AAl?$AAa?$AAn?$AAd?$AA?$AA@ 000000018006ba18     libucrt:get_qualified_locale.obj
 0002:00009a28       ??_C@_1BE@JBMPEGDG@?$AAh?$AAo?$AAn?$AAg?$AA?9?$AAk?$AAo?$AAn?$AAg?$AA?$AA@ 000000018006ba28     libucrt:get_qualified_locale.obj
 0002:00009a40       ??_C@_1BI@KOELBBPJ@?$AAn?$AAe?$AAw?$AA?9?$AAz?$AAe?$AAa?$AAl?$AAa?$AAn?$AAd?$AA?$AA@ 000000018006ba40     libucrt:get_qualified_locale.obj
 0002:00009a58       ??_C@_15HIEBHAIO@?$AAn?$AAz?$AA?$AA@ 000000018006ba58     libucrt:get_qualified_locale.obj
 0002:00009a60       ??_C@_1BC@CHBCPFPI@?$AAp?$AAr?$AA?5?$AAc?$AAh?$AAi?$AAn?$AAa?$AA?$AA@ 000000018006ba60     libucrt:get_qualified_locale.obj
 0002:00009a78       ??_C@_1BC@JAOIIFKD@?$AAp?$AAr?$AA?9?$AAc?$AAh?$AAi?$AAn?$AAa?$AA?$AA@ 000000018006ba78     libucrt:get_qualified_locale.obj
 0002:00009a90       ??_C@_1BI@BEHPPHKC@?$AAp?$AAu?$AAe?$AAr?$AAt?$AAo?$AA?9?$AAr?$AAi?$AAc?$AAo?$AA?$AA@ 000000018006ba90     libucrt:get_qualified_locale.obj
 0002:00009aa8       ??_C@_1O@PAEOFKDI@?$AAs?$AAl?$AAo?$AAv?$AAa?$AAk?$AA?$AA@ 000000018006baa8     libucrt:get_qualified_locale.obj
 0002:00009ab8       ??_C@_1BK@FIHMCKAM@?$AAs?$AAo?$AAu?$AAt?$AAh?$AA?5?$AAa?$AAf?$AAr?$AAi?$AAc?$AAa?$AA?$AA@ 000000018006bab8     libucrt:get_qualified_locale.obj
 0002:00009ad8       ??_C@_1BI@NAEOODKB@?$AAs?$AAo?$AAu?$AAt?$AAh?$AA?5?$AAk?$AAo?$AAr?$AAe?$AAa?$AA?$AA@ 000000018006bad8     libucrt:get_qualified_locale.obj
 0002:00009af0       ??_C@_1BK@FBDGGIFF@?$AAs?$AAo?$AAu?$AAt?$AAh?$AA?9?$AAa?$AAf?$AAr?$AAi?$AAc?$AAa?$AA?$AA@ 000000018006baf0     libucrt:get_qualified_locale.obj
 0002:00009b10       ??_C@_1BI@GHLEJDPK@?$AAs?$AAo?$AAu?$AAt?$AAh?$AA?9?$AAk?$AAo?$AAr?$AAe?$AAa?$AA?$AA@ 000000018006bb10     libucrt:get_qualified_locale.obj
 0002:00009b28       ??_C@_1CE@PLHLOMJF@?$AAt?$AAr?$AAi?$AAn?$AAi?$AAd?$AAa?$AAd?$AA?5?$AA?$CG?$AA?5?$AAt?$AAo?$AAb?$AAa?$AAg?$AAo?$AA?$AA@ 000000018006bb28     libucrt:get_qualified_locale.obj
 0002:00009b50       ??_C@_1BO@MODIMHHI@?$AAu?$AAn?$AAi?$AAt?$AAe?$AAd?$AA?9?$AAk?$AAi?$AAn?$AAg?$AAd?$AAo?$AAm?$AA?$AA@ 000000018006bb50     libucrt:get_qualified_locale.obj
 0002:00009b70       ??_C@_1BM@FFHJONBJ@?$AAu?$AAn?$AAi?$AAt?$AAe?$AAd?$AA?9?$AAs?$AAt?$AAa?$AAt?$AAe?$AAs?$AA?$AA@ 000000018006bb70     libucrt:get_qualified_locale.obj
 0002:00009b90       ??_C@_17DNCLJFIF@?$AAA?$AAC?$AAP?$AA?$AA@ 000000018006bb90     libucrt:get_qualified_locale.obj
 0002:00009b98       ??_C@_17CIKBIHLH@?$AAO?$AAC?$AAP?$AA?$AA@ 000000018006bb98     libucrt:get_qualified_locale.obj
 0002:00009ba0       __rglangidNotDefault       000000018006bba0     libucrt:getqloc_downlevel.obj
 0002:0000b850       _days                      000000018006d850     libucrt:days.obj
 0002:0000b888       _lpdays                    000000018006d888     libucrt:days.obj
 0002:0000bb10       ??_C@_1BA@BALFACEM@?$AAC?$AAO?$AAN?$AAO?$AAU?$AAT?$AA$?$AA?$AA@ 000000018006db10     libucrt:initcon.obj
 0002:0000bb20       __log10_256_lead           000000018006db20     libucrt:log10_256_lead_tail_table.obj
 0002:0000c330       __log10_256_tail           000000018006e330     libucrt:log10_256_lead_tail_table.obj
 0002:0000cb40       __log_F_inv_qword          000000018006eb40     libucrt:log_f_inv_qword_table.obj
 0002:0000d350       ??_C@_0BA@JFNIOLAK@string?5too?5long?$AA@ 000000018006f350     greenworks_api_utils.obj
 0002:0000d360       ??_C@_0O@NAPPEKME@bad?5arguments?$AA@ 000000018006f360     greenworks_api_utils.obj
 0002:0000d370       ??_C@_0O@HLJHCHGM@createArchive?$AA@ 000000018006f370     greenworks_api_utils.obj
 0002:0000d380       ??_C@_0P@IDGALGKI@extractArchive?$AA@ 000000018006f380     greenworks_api_utils.obj
 0002:0000d390       ??_C@_05BNNNCBOP@Utils?$AA@ 000000018006f390     greenworks_api_utils.obj
 0002:0000d398       ??_C@_0BD@OLBABOEK@vector?$DMT?$DO?5too?5long?$AA@ 000000018006f398     greenworks_api_utils.obj
 0002:0000d3b0       ??_C@_0BI@CFPLBAOH@invalid?5string?5position?$AA@ 000000018006f3b0     greenworks_api_utils.obj
 0002:0000d3c8       ??_7?$_Func_base@XV?$Local@VObject@v8@@@v8@@@std@@6B@ 000000018006f3c8     greenworks_api_utils.obj
 0002:0000d3f8       ??_7?$_Func_impl@P6AXV?$Local@VObject@v8@@@v8@@@ZV?$allocator@H@std@@XV12@@std@@6B@ 000000018006f3f8     greenworks_api_utils.obj
 0002:0000d428       ??_C@_0P@NNLJDFMO@SteamClient017?$AA@ 000000018006f428     steam_api_achievement.obj
 0002:0000d438       ??_C@_0N@BBGGILGA@SteamUser019?$AA@ 000000018006f438     steam_api_achievement.obj
 0002:0000d448       ??_C@_0BA@DGLELCPI@SteamFriends015?$AA@ 000000018006f448     steam_api_achievement.obj
 0002:0000d458       ??_C@_0O@BPKAPEJM@SteamUtils009?$AA@ 000000018006f458     steam_api_achievement.obj
 0002:0000d468       ??_C@_0BE@EEAIDFBC@SteamMatchMaking009?$AA@ 000000018006f468     steam_api_achievement.obj
 0002:0000d480       ??_C@_0BL@DICFDLHN@SteamMatchMakingServers002?$AA@ 000000018006f480     steam_api_achievement.obj
 0002:0000d4a0       ??_C@_0CE@IKFHMBLE@STEAMUSERSTATS_INTERFACE_VERSION@ 000000018006f4a0     steam_api_achievement.obj
 0002:0000d4c8       ??_C@_0BP@EEAFIMOP@STEAMAPPS_INTERFACE_VERSION008?$AA@ 000000018006f4c8     steam_api_achievement.obj
 0002:0000d4e8       ??_C@_0BD@NPFJJJGM@SteamNetworking005?$AA@ 000000018006f4e8     steam_api_achievement.obj
 0002:0000d500       ??_C@_0CI@JKJCCAIC@STEAMREMOTESTORAGE_INTERFACE_VER@ 000000018006f500     steam_api_achievement.obj
 0002:0000d528       ??_C@_0CG@MFGJIPKA@STEAMSCREENSHOTS_INTERFACE_VERSI@ 000000018006f528     steam_api_achievement.obj
 0002:0000d550       ??_C@_0BP@OIIAACNH@STEAMHTTP_INTERFACE_VERSION002?$AA@ 000000018006f550     steam_api_achievement.obj
 0002:0000d570       ??_C@_0CK@MPCBICCF@STEAMUNIFIEDMESSAGES_INTERFACE_V@ 000000018006f570     steam_api_achievement.obj
 0002:0000d5a0       ??_C@_0BD@DINEINHM@SteamController005?$AA@ 000000018006f5a0     steam_api_achievement.obj
 0002:0000d5b8       ??_C@_0BO@INCOGJEH@STEAMUGC_INTERFACE_VERSION010?$AA@ 000000018006f5b8     steam_api_achievement.obj
 0002:0000d5d8       ??_C@_0CC@HLMJELID@STEAMAPPLIST_INTERFACE_VERSION00@ 000000018006f5d8     steam_api_achievement.obj
 0002:0000d600       ??_C@_0CA@OENAPDCE@STEAMMUSIC_INTERFACE_VERSION001?$AA@ 000000018006f600     steam_api_achievement.obj
 0002:0000d620       ??_C@_0CG@CFAACBHN@STEAMMUSICREMOTE_INTERFACE_VERSI@ 000000018006f620     steam_api_achievement.obj
 0002:0000d648       ??_C@_0CH@NCCDKGIP@STEAMHTMLSURFACE_INTERFACE_VERSI@ 000000018006f648     steam_api_achievement.obj
 0002:0000d670       ??_C@_0BO@DBADAEGM@STEAMINVENTORY_INTERFACE_V002?$AA@ 000000018006f670     steam_api_achievement.obj
 0002:0000d690       ??_C@_0BK@PAMIHJNM@STEAMVIDEO_INTERFACE_V002?$AA@ 000000018006f690     steam_api_achievement.obj
 0002:0000d6b0       ??_C@_0O@BNJLDCBM@Bad?5arguments?$AA@ 000000018006f6b0     steam_api_achievement.obj
 0002:0000d6c0       ??_C@_0BE@EOOHHBCL@activateAchievement?$AA@ 000000018006f6c0     steam_api_achievement.obj
 0002:0000d6d8       ??_C@_0P@PIOKACFI@getAchievement?$AA@ 000000018006f6d8     steam_api_achievement.obj
 0002:0000d6e8       ??_C@_0BB@EJAFEDJA@clearAchievement?$AA@ 000000018006f6e8     steam_api_achievement.obj
 0002:0000d700       ??_C@_0BE@MIDIELID@getAchievementNames?$AA@ 000000018006f700     steam_api_achievement.obj
 0002:0000d718       ??_C@_0BI@OCEIBNGD@getNumberOfAchievements?$AA@ 000000018006f718     steam_api_achievement.obj
 0002:0000d730       ??_C@_1KK@BJHDLCDD@?$AAC?$AA?3?$AA?2?$AAU?$AAs?$AAe?$AAr?$AAs?$AA?2?$AAN?$AAa?$AAt?$AAh?$AAa?$AAn?$AAi?$AAe?$AAl?$AA?2?$AAD?$AAo?$AAc?$AAu?$AAm?$AAe?$AAn?$AAt?$AAs?$AA?2?$AAs?$AAk?$AAe@ 000000018006f730     steam_api_auth.obj
 0002:0000d7e0       ??_C@_1FM@LOELJOFK@?$AAs?$AAi?$AAz?$AAe?$AA?5?$AA?$DM?$AA?$DN?$AA?5?$AAi?$AAm?$AAp?$AA?3?$AA?3?$AAk?$AAM?$AAa?$AAx?$AAL?$AAe?$AAn?$AAg?$AAt?$AAh?$AA?5?$AA?$CG?$AA?$CG?$AA?5?$AA?$CC?$AAt?$AAo?$AAo?$AA?5@ 000000018006f7e0     steam_api_auth.obj
 0002:0000d840       ??_C@_0BO@CODHLBNE@The?5key?5length?5is?5not?5matched?$AA@ 000000018006f840     steam_api_auth.obj
 0002:0000d860       ??_C@_0CF@JPDGJBDP@EncryptedAppTicketSymmetricKeyLe@ 000000018006f860     steam_api_auth.obj
 0002:0000d888       ??_C@_0BF@LKEIKCHM@getAuthSessionTicket?$AA@ 000000018006f888     steam_api_auth.obj
 0002:0000d8a0       ??_C@_0BG@LIMGEMPA@getEncryptedAppTicket?$AA@ 000000018006f8a0     steam_api_auth.obj
 0002:0000d8b8       ??_C@_0BB@JIGHMFMC@decryptAppTicket?$AA@ 000000018006f8b8     steam_api_auth.obj
 0002:0000d8d0       ??_C@_0P@CNHEAHNG@isTicketForApp?$AA@ 000000018006f8d0     steam_api_auth.obj
 0002:0000d8e0       ??_C@_0BD@GDGPHGJK@getTicketIssueTime?$AA@ 000000018006f8e0     steam_api_auth.obj
 0002:0000d8f8       ??_C@_0BB@CDFFFLDL@getTicketSteamId?$AA@ 000000018006f8f8     steam_api_auth.obj
 0002:0000d910       ??_C@_0P@NLDNPDOC@getTicketAppId?$AA@ 000000018006f910     steam_api_auth.obj
 0002:0000d920       ??_C@_0BB@IGEPFLMK@cancelAuthTicket?$AA@ 000000018006f920     steam_api_auth.obj
 0002:0000d938       ??_C@_0P@POBFMNAL@saveTextToFile?$AA@ 000000018006f938     steam_api_cloud.obj
 0002:0000d948       ??_C@_0L@OJCDGKOF@deleteFile?$AA@ 000000018006f948     steam_api_cloud.obj
 0002:0000d958       ??_C@_0BB@CLAGDKNL@readTextFromFile?$AA@ 000000018006f958     steam_api_cloud.obj
 0002:0000d970       ??_C@_0BB@PPAAIEHO@saveFilesToCloud?$AA@ 000000018006f970     steam_api_cloud.obj
 0002:0000d988       ??_C@_0P@NBGBPEFM@isCloudEnabled?$AA@ 000000018006f988     steam_api_cloud.obj
 0002:0000d998       ??_C@_0BG@FOEGFOBH@isCloudEnabledForUser?$AA@ 000000018006f998     steam_api_cloud.obj
 0002:0000d9b0       ??_C@_0M@MBODIOKP@enableCloud?$AA@ 000000018006f9b0     steam_api_cloud.obj
 0002:0000d9c0       ??_C@_0O@NFJNJLKC@getCloudQuota?$AA@ 000000018006f9c0     steam_api_cloud.obj
 0002:0000d9d0       ??_C@_0M@EJDLNLOK@getDLCCount?$AA@ 000000018006f9d0     steam_api_dlc.obj
 0002:0000d9e0       ??_C@_0P@OAHIPLNP@isDLCInstalled?$AA@ 000000018006f9e0     steam_api_dlc.obj
 0002:0000d9f0       ??_C@_0L@CJGMAHCD@installDLC?$AA@ 000000018006f9f0     steam_api_dlc.obj
 0002:0000da00       ??_C@_0N@CLCHIAMM@uninstallDLC?$AA@ 000000018006fa00     steam_api_dlc.obj
 0002:0000da10       ??_C@_04OHJIHAFH@None?$AA@ 000000018006fa10     steam_api_friends.obj
 0002:0000da18       ??_C@_07DJOJKEOP@Blocked?$AA@ 000000018006fa18     steam_api_friends.obj
 0002:0000da20       ??_C@_0BE@LFIKDNGL@FriendshipRequested?$AA@ 000000018006fa20     steam_api_friends.obj
 0002:0000da38       ??_C@_09IODJJMEA@Immediate?$AA@ 000000018006fa38     steam_api_friends.obj
 0002:0000da48       ??_C@_0L@EAANOGPG@ClanMember?$AA@ 000000018006fa48     steam_api_friends.obj
 0002:0000da58       ??_C@_0N@ILDDNKGI@OnGameServer?$AA@ 000000018006fa58     steam_api_friends.obj
 0002:0000da68       ??_C@_0BF@NACEBJAG@RequestingFriendship?$AA@ 000000018006fa68     steam_api_friends.obj
 0002:0000da80       ??_C@_0P@GNINEEBK@RequestingInfo?$AA@ 000000018006fa80     steam_api_friends.obj
 0002:0000da90       ??_C@_07EFDJMKPC@Ignored?$AA@ 000000018006fa90     steam_api_friends.obj
 0002:0000da98       ??_C@_0O@LKLOAGGF@IgnoredFriend?$AA@ 000000018006fa98     steam_api_friends.obj
 0002:0000daa8       ??_C@_0L@KEJNGLGP@ChatMember?$AA@ 000000018006faa8     steam_api_friends.obj
 0002:0000dab4       ??_C@_03HFJGAJFE@All?$AA@  000000018006fab4     steam_api_friends.obj
 0002:0000dab8       ??_C@_0M@DDHHOFFH@FriendFlags?$AA@ 000000018006fab8     steam_api_friends.obj
 0002:0000dac8       ??_C@_0BB@EFAGIMCN@RequestRecipient?$AA@ 000000018006fac8     steam_api_friends.obj
 0002:0000dadc       ??_C@_06NIKAJGIM@Friend?$AA@ 000000018006fadc     steam_api_friends.obj
 0002:0000dae8       ??_C@_0BB@CEEAGMPA@RequestInitiator?$AA@ 000000018006fae8     steam_api_friends.obj
 0002:0000db00       ??_C@_09CNMGGDME@Suggested?$AA@ 000000018006fb00     steam_api_friends.obj
 0002:0000db10       ??_C@_0BD@OKBGLFNA@FriendRelationship?$AA@ 000000018006fb10     steam_api_friends.obj
 0002:0000db24       ??_C@_04FABLJDN@Name?$AA@  000000018006fb24     steam_api_friends.obj
 0002:0000db2c       ??_C@_06PGDKHFME@Status?$AA@ 000000018006fb2c     steam_api_friends.obj
 0002:0000db38       ??_C@_0L@OILJGJL@ComeOnline?$AA@ 000000018006fb38     steam_api_friends.obj
 0002:0000db48       ??_C@_0M@FMHOOLON@GoneOffline?$AA@ 000000018006fb48     steam_api_friends.obj
 0002:0000db58       ??_C@_0L@MBACNFAI@GamePlayed?$AA@ 000000018006fb58     steam_api_friends.obj
 0002:0000db68       ??_C@_0L@LEFONGIO@GameServer?$AA@ 000000018006fb68     steam_api_friends.obj
 0002:0000db74       ??_C@_06EDBJEOMP@Avator?$AA@ 000000018006fb74     steam_api_friends.obj
 0002:0000db80       ??_C@_0N@MCPNOIML@JoinedSource?$AA@ 000000018006fb80     steam_api_friends.obj
 0002:0000db90       ??_C@_0L@DBAHMONN@LeftSource?$AA@ 000000018006fb90     steam_api_friends.obj
 0002:0000dba0       ??_C@_0BE@NDOFBBOE@RelationshipChanged?$AA@ 000000018006fba0     steam_api_friends.obj
 0002:0000dbb8       ??_C@_0N@OMFBDMAA@NameFirstSet?$AA@ 000000018006fbb8     steam_api_friends.obj
 0002:0000dbc8       ??_C@_0N@OEFKEKDD@FacebookInfo?$AA@ 000000018006fbc8     steam_api_friends.obj
 0002:0000dbd8       ??_C@_08CELDJAGK@NickName?$AA@ 000000018006fbd8     steam_api_friends.obj
 0002:0000dbe8       ??_C@_0L@IKBKHJDF@SteamLevel?$AA@ 000000018006fbe8     steam_api_friends.obj
 0002:0000dbf8       ??_C@_0O@KGNDNEMG@PersonaChange?$AA@ 000000018006fbf8     steam_api_friends.obj
 0002:0000dc08       ??_C@_07DJMIGIHO@Invalid?$AA@ 000000018006fc08     steam_api_friends.obj
 0002:0000dc10       ??_C@_0L@CIDFIJJO@Individual?$AA@ 000000018006fc10     steam_api_friends.obj
 0002:0000dc20       ??_C@_09MNFBACJG@Multiseat?$AA@ 000000018006fc20     steam_api_friends.obj
 0002:0000dc30       ??_C@_0BE@MOHMAFNB@AnonymousGameServer?$AA@ 000000018006fc30     steam_api_friends.obj
 0002:0000dc48       ??_C@_07GGOCKMHG@Pending?$AA@ 000000018006fc48     steam_api_friends.obj
 0002:0000dc50       ??_C@_0O@OKKFPMOF@ContentServer?$AA@ 000000018006fc50     steam_api_friends.obj
 0002:0000dc60       ??_C@_04OFBFIFPO@Clan?$AA@ 000000018006fc60     steam_api_friends.obj
 0002:0000dc68       ??_C@_04NKFKOIHC@Chat?$AA@ 000000018006fc68     steam_api_friends.obj
 0002:0000dc70       ??_C@_0M@MBHDKCKE@ConsoleUser?$AA@ 000000018006fc70     steam_api_friends.obj
 0002:0000dc80       ??_C@_0O@BJLCKPDF@AnonymousUser?$AA@ 000000018006fc80     steam_api_friends.obj
 0002:0000dc90       ??_C@_0M@GHIFFFAE@AccountType?$AA@ 000000018006fc90     steam_api_friends.obj
 0002:0000dca0       ??_C@_07FPBJNGGD@ChatMsg?$AA@ 000000018006fca0     steam_api_friends.obj
 0002:0000dca8       ??_C@_06EOCNPCCA@Typing?$AA@ 000000018006fca8     steam_api_friends.obj
 0002:0000dcb0       ??_C@_0L@MLJMOFAK@InviteGame?$AA@ 000000018006fcb0     steam_api_friends.obj
 0002:0000dcbc       ??_C@_05FIDNMOEE@Emote?$AA@ 000000018006fcbc     steam_api_friends.obj
 0002:0000dcc8       ??_C@_0BB@JJAFMIDJ@LeftConversation?$AA@ 000000018006fcc8     steam_api_friends.obj
 0002:0000dce0       ??_C@_07GPPDKDDC@Entered?$AA@ 000000018006fce0     steam_api_friends.obj
 0002:0000dce8       ??_C@_09DKLFKMMK@WasKicked?$AA@ 000000018006fce8     steam_api_friends.obj
 0002:0000dcf8       ??_C@_09IMDAFPPH@WasBanned?$AA@ 000000018006fcf8     steam_api_friends.obj
 0002:0000dd08       ??_C@_0N@NFBNFHML@Disconnected?$AA@ 000000018006fd08     steam_api_friends.obj
 0002:0000dd18       ??_C@_0P@BODFOFG@HistoricalChat?$AA@ 000000018006fd18     steam_api_friends.obj
 0002:0000dd28       ??_C@_0M@CIPGMEJP@LinkBlocked?$AA@ 000000018006fd28     steam_api_friends.obj
 0002:0000dd38       ??_C@_0O@LOENLJCL@ChatEntryType?$AA@ 000000018006fd38     steam_api_friends.obj
 0002:0000dd48       ??_C@_0BE@DADIFMKK@Steam?5ID?5is?5invalid?$AA@ 000000018006fd48     steam_api_friends.obj
 0002:0000dd60       ??_C@_07ONPBMBOP@message?$AA@ 000000018006fd60     steam_api_friends.obj
 0002:0000dd68       ??_C@_0O@HDCJMBPD@chatEntryType?$AA@ 000000018006fd68     steam_api_friends.obj
 0002:0000dd78       ??_C@_0P@LMPLBLJD@getFriendCount?$AA@ 000000018006fd78     steam_api_friends.obj
 0002:0000dd88       ??_C@_0L@NAPPFHL@getFriends?$AA@ 000000018006fd88     steam_api_friends.obj
 0002:0000dd98       ??_C@_0BF@CKHODCGH@getSmallFriendAvatar?$AA@ 000000018006fd98     steam_api_friends.obj
 0002:0000ddb0       ??_C@_0BG@KOJIKCPM@getMediumFriendAvatar?$AA@ 000000018006fdb0     steam_api_friends.obj
 0002:0000ddc8       ??_C@_0BF@NIPHHBJE@getLargeFriendAvatar?$AA@ 000000018006fdc8     steam_api_friends.obj
 0002:0000dde0       ??_C@_0BH@OPEOMMKK@requestUserInformation?$AA@ 000000018006fde0     steam_api_friends.obj
 0002:0000ddf8       ??_C@_0BL@DEDKKBFF@setListenForFriendsMessage?$AA@ 000000018006fdf8     steam_api_friends.obj
 0002:0000de18       ??_C@_0BF@ENAMEHLO@replyToFriendMessage?$AA@ 000000018006fe18     steam_api_friends.obj
 0002:0000de30       ??_C@_0BB@BNAPLEHG@getFriendMessage?$AA@ 000000018006fe30     steam_api_friends.obj
 0002:0000de48       ??_C@_0BC@BDKFLDHL@unknown?5exception?$AA@ 000000018006fe48     steam_api_settings.obj
 0002:0000de60       ??_C@_0BA@ELKIONDK@bad?5locale?5name?$AA@ 000000018006fe60     steam_api_settings.obj
 0002:0000de70       ??_C@_05LAPONLG@false?$AA@ 000000018006fe70     steam_api_settings.obj
 0002:0000de78       ??_C@_04LOAJBDKD@true?$AA@ 000000018006fe78     steam_api_settings.obj
 0002:0000de7d       ??_C@_00CNPNBAHC@?$AA@     000000018006fe7d     steam_api_settings.obj
 0002:0000de80       ??_C@_02LMMGGCAJ@?3?5?$AA@ 000000018006fe80     steam_api_settings.obj
 0002:0000de88       ??_C@_08LLGCOLLL@iostream?$AA@ 000000018006fe88     steam_api_settings.obj
 0002:0000de98       ??_C@_0BG@PADBLCHM@iostream?5stream?5error?$AA@ 000000018006fe98     steam_api_settings.obj
 0002:0000deb0       ??_C@_0BF@PHHKMMFD@ios_base?3?3badbit?5set?$AA@ 000000018006feb0     steam_api_settings.obj
 0002:0000dec8       ??_C@_0BG@FMKFHCIL@ios_base?3?3failbit?5set?$AA@ 000000018006fec8     steam_api_settings.obj
 0002:0000dee0       ??_C@_0BF@OOHOMBOF@ios_base?3?3eofbit?5set?$AA@ 000000018006fee0     steam_api_settings.obj
 0002:0000df00       ??_C@_1NG@ONHMNLLH@?$AAc?$AA?3?$AA?2?$AAu?$AAs?$AAe?$AAr?$AAs?$AA?2?$AAn?$AAa?$AAt?$AAh?$AAa?$AAn?$AAi?$AAe?$AAl?$AA?2?$AAd?$AAo?$AAc?$AAu?$AAm?$AAe?$AAn?$AAt?$AAs?$AA?2?$AAs?$AAk?$AAe@ 000000018006ff00     steam_api_settings.obj
 0002:0000dfe0       ??_C@_1FK@CBGIJHDF@?$AAv?$AAa?$AAl?$AAu?$AAe?$AA?4?$AAs?$AAi?$AAz?$AAe?$AA?$CI?$AA?$CJ?$AA?5?$AA?$DM?$AA?$DN?$AA?5?$AAI?$AAN?$AAT?$AA_?$AAM?$AAA?$AAX?$AA?5?$AA?$CG?$AA?$CG?$AA?5?$AA?$CC?$AAs?$AAt?$AAr?$AAi@ 000000018006ffe0     steam_api_settings.obj
 0002:0000e040       ??_C@_1GA@PFOOBIAG@?$AAl?$AAe?$AAn?$AAg?$AAt?$AAh?$AA?5?$AA?$DM?$AA?$DN?$AA?5?$AAi?$AAm?$AAp?$AA?3?$AA?3?$AAk?$AAM?$AAa?$AAx?$AAL?$AAe?$AAn?$AAg?$AAt?$AAh?$AA?5?$AA?$CG?$AA?$CG?$AA?5?$AA?$CC?$AAt?$AAo@ 0000000180070040     steam_api_settings.obj
 0002:0000e0a0       ??_C@_0N@OFCOFIJG@Bad?5argument?$AA@ 00000001800700a0     steam_api_settings.obj
 0002:0000e0b0       ??_C@_0BG@IJEHOHBG@k_EAccountTypeInvalid?$AA@ 00000001800700b0     steam_api_settings.obj
 0002:0000e0c8       ??_C@_0BJ@KPONAJID@k_EAccountTypeIndividual?$AA@ 00000001800700c8     steam_api_settings.obj
 0002:0000e0e8       ??_C@_0BI@BNHCMNAH@k_EAccountTypeMultiseat?$AA@ 00000001800700e8     steam_api_settings.obj
 0002:0000e100       ??_C@_0BJ@DDIGFGJD@k_EAccountTypeGameServer?$AA@ 0000000180070100     steam_api_settings.obj
 0002:0000e120       ??_C@_0BN@KNNHGDJC@k_EAccountTypeAnonGameServer?$AA@ 0000000180070120     steam_api_settings.obj
 0002:0000e140       ??_C@_0BG@NGGNCDBO@k_EAccountTypePending?$AA@ 0000000180070140     steam_api_settings.obj
 0002:0000e158       ??_C@_0BM@ENNAAOOM@k_EAccountTypeContentServer?$AA@ 0000000180070158     steam_api_settings.obj
 0002:0000e178       ??_C@_0BD@JAIOOMKH@k_EAccountTypeClan?$AA@ 0000000180070178     steam_api_settings.obj
 0002:0000e190       ??_C@_0BD@KPMBIBCL@k_EAccountTypeChat?$AA@ 0000000180070190     steam_api_settings.obj
 0002:0000e1a8       ??_C@_0BK@KCPCBGPN@k_EAccountTypeConsoleUser?$AA@ 00000001800701a8     steam_api_settings.obj
 0002:0000e1c8       ??_C@_0BH@MDMLCHCJ@k_EAccountTypeAnonUser?$AA@ 00000001800701c8     steam_api_settings.obj
 0002:0000e1e0       ??_C@_0BC@OIPMDHCI@k_EAccountTypeMax?$AA@ 00000001800701e0     steam_api_settings.obj
 0002:0000e1f4       ??_C@_04MEMAJGDJ@name?$AA@ 00000001800701f4     steam_api_settings.obj
 0002:0000e1fc       ??_C@_05MFEJDJP@value?$AA@ 00000001800701fc     steam_api_settings.obj
 0002:0000e208       ??_C@_0DD@PCHAJMDN@You?5must?5pass?5your?5app?5ID?5to?5Res@ 0000000180070208     steam_api_settings.obj
 0002:0000e240       ??_C@_0CK@LKDMCFG@Your?5app?5ID?5argument?5should?5be?5a@ 0000000180070240     steam_api_settings.obj
 0002:0000e270       ??_C@_09BMFBKPHA@anonymous?$AA@ 0000000180070270     steam_api_settings.obj
 0002:0000e280       ??_C@_0BE@NEIAFFNK@anonymousGameServer?$AA@ 0000000180070280     steam_api_settings.obj
 0002:0000e298       ??_C@_0BJ@ECIGNAEE@anonymousGameServerLogin?$AA@ 0000000180070298     steam_api_settings.obj
 0002:0000e2b8       ??_C@_0O@NENGNHON@anonymousUser?$AA@ 00000001800702b8     steam_api_settings.obj
 0002:0000e2c8       ??_C@_04BLJLMHHG@chat?$AA@ 00000001800702c8     steam_api_settings.obj
 0002:0000e2d0       ??_C@_04CENEKKPK@clan?$AA@ 00000001800702d0     steam_api_settings.obj
 0002:0000e2d8       ??_C@_0M@NJECHJFM@consoleUser?$AA@ 00000001800702d8     steam_api_settings.obj
 0002:0000e2e8       ??_C@_0O@CHMBIEDN@contentServer?$AA@ 00000001800702e8     steam_api_settings.obj
 0002:0000e2f8       ??_C@_0L@DCMCFJFJ@gameServer?$AA@ 00000001800702f8     steam_api_settings.obj
 0002:0000e308       ??_C@_0L@KOKJAGEJ@individual?$AA@ 0000000180070308     steam_api_settings.obj
 0002:0000e318       ??_C@_0BF@LFFNKMBB@gameServerPersistent?$AA@ 0000000180070318     steam_api_settings.obj
 0002:0000e330       ??_C@_05OOIJDJI@lobby?$AA@ 0000000180070330     steam_api_settings.obj
 0002:0000e338       ??_C@_05GECEPKB@flags?$AA@ 0000000180070338     steam_api_settings.obj
 0002:0000e340       ??_C@_04GPMDFGEJ@type?$AA@ 0000000180070340     steam_api_settings.obj
 0002:0000e348       ??_C@_09IDEOKEIL@accountId?$AA@ 0000000180070348     steam_api_settings.obj
 0002:0000e358       ??_C@_07OLNILFPL@steamId?$AA@ 0000000180070358     steam_api_settings.obj
 0002:0000e360       ??_C@_0BA@KOPOOCLB@staticAccountId?$AA@ 0000000180070360     steam_api_settings.obj
 0002:0000e370       ??_C@_07MBBLPCBA@isValid?$AA@ 0000000180070370     steam_api_settings.obj
 0002:0000e378       ??_C@_05KJNJLLGA@level?$AA@ 0000000180070378     steam_api_settings.obj
 0002:0000e380       ??_C@_0L@FIJKDMKJ@screenName?$AA@ 0000000180070380     steam_api_settings.obj
 0002:0000e390       ??_C@_0BA@GFGKFEKC@NOT?5IMPLEMENTED?$AA@ 0000000180070390     steam_api_settings.obj
 0002:0000e3a0       ??_C@_0CL@LHGDKEIG@You?5must?5pass?5an?5app?5ID?5to?5IsSub@ 00000001800703a0     steam_api_settings.obj
 0002:0000e3d0       ??_C@_0BH@BJJACLBH@Fail?5to?5get?5image?5size?$AA@ 00000001800703d0     steam_api_settings.obj
 0002:0000e3e8       ??_C@_05IGKADHGO@width?$AA@ 00000001800703e8     steam_api_settings.obj
 0002:0000e3f0       ??_C@_06LNLHEAAG@height?$AA@ 00000001800703f0     steam_api_settings.obj
 0002:0000e3f8       ??_C@_0BC@KGNFPHL@Fail?5to?5get?5image?$AA@ 00000001800703f8     steam_api_settings.obj
 0002:0000e40c       ??_C@_06MOBFLCHO@0?411?40?$AA@ 000000018007040c     steam_api_settings.obj
 0002:0000e418       ??_C@_08BOPNKML@_version?$AA@ 0000000180070418     steam_api_settings.obj
 0002:0000e428       ??_C@_0BG@KKHEFA@restartAppIfNecessary?$AA@ 0000000180070428     steam_api_settings.obj
 0002:0000e440       ??_C@_0P@DIJMOFAL@isSteamRunning?$AA@ 0000000180070440     steam_api_settings.obj
 0002:0000e450       ??_C@_0L@PPGFGHHO@getSteamId?$AA@ 0000000180070450     steam_api_settings.obj
 0002:0000e460       ??_C@_08IJOLNMKN@getAppId?$AA@ 0000000180070460     steam_api_settings.obj
 0002:0000e470       ??_C@_0BH@KCLAHJBM@getCurrentGameLanguage?$AA@ 0000000180070470     steam_api_settings.obj
 0002:0000e488       ??_C@_0BF@KKFEBPLG@getCurrentUILanguage?$AA@ 0000000180070488     steam_api_settings.obj
 0002:0000e4a0       ??_C@_0BJ@PKBHOLMG@getCurrentGameInstallDir?$AA@ 00000001800704a0     steam_api_settings.obj
 0002:0000e4c0       ??_C@_0BD@FJNFNNPI@getNumberOfPlayers?$AA@ 00000001800704c0     steam_api_settings.obj
 0002:0000e4d8       ??_C@_0BF@OBDGLHCC@isGameOverlayEnabled?$AA@ 00000001800704d8     steam_api_settings.obj
 0002:0000e4f0       ??_C@_0BE@LAFHFNGN@activateGameOverlay?$AA@ 00000001800704f0     steam_api_settings.obj
 0002:0000e508       ??_C@_0BN@IBFIAGMJ@activateGameOverlayToWebPage?$AA@ 0000000180070508     steam_api_settings.obj
 0002:0000e528       ??_C@_0BA@OEKCLDHE@isSubscribedApp?$AA@ 0000000180070528     steam_api_settings.obj
 0002:0000e538       ??_C@_0N@MAJKCGNK@getImageSize?$AA@ 0000000180070538     steam_api_settings.obj
 0002:0000e548       ??_C@_0N@GGIHICOJ@getImageRGBA?$AA@ 0000000180070548     steam_api_settings.obj
 0002:0000e558       ??_C@_02BBAHNLBA@?$CFp?$AA@ 0000000180070558     steam_api_settings.obj
 0002:0000e55c       ??_C@_02MDKMJEGG@eE?$AA@   000000018007055c     steam_api_settings.obj
 0002:0000e560       ??_C@_02OOPEBDOJ@pP?$AA@   0000000180070560     steam_api_settings.obj
 0002:0000e564       ??_C@_01LFCBOECM@?4?$AA@   0000000180070564     steam_api_settings.obj
 0002:0000e568       ??_C@_0BE@JONHPENG@map?1set?$DMT?$DO?5too?5long?$AA@ 0000000180070568     steam_api_settings.obj
 0002:0000e580       ??_7?$basic_streambuf@DU?$char_traits@D@std@@@std@@6B@ 0000000180070580     steam_api_settings.obj
 0002:0000e5f8       ??_7error_category@std@@6B@ 00000001800705f8     steam_api_settings.obj
 0002:0000e628       ??_7?$basic_ostringstream@DU?$char_traits@D@std@@V?$allocator@D@2@@std@@6B@ 0000000180070628     steam_api_settings.obj
 0002:0000e630       ??_7_Iostream_error_category@std@@6B@ 0000000180070630     steam_api_settings.obj
 0002:0000e660       ??_7ios_base@std@@6B@      0000000180070660     steam_api_settings.obj
 0002:0000e668       ??_7?$basic_ios@DU?$char_traits@D@std@@@std@@6B@ 0000000180070668     steam_api_settings.obj
 0002:0000e670       ??_7exception@stdext@@6B@  0000000180070670     steam_api_settings.obj
 0002:0000e688       ??_7?$basic_stringbuf@DU?$char_traits@D@std@@V?$allocator@D@2@@std@@6B@ 0000000180070688     steam_api_settings.obj
 0002:0000e700       ??_7_System_error@std@@6B@ 0000000180070700     steam_api_settings.obj
 0002:0000e700       ??_7failure@ios_base@std@@6B@ 0000000180070700     steam_api_settings.obj
 0002:0000e730       unz_copyright              0000000180070730     minizip:unzip.obj
 0002:000110e0       MOZ_Z_z_errmsg             00000001800730e0     zlib:zutil.obj
 0002:00011230       MOZ_Z__dist_code           0000000180073230     zlib:trees.obj
 0002:00011430       MOZ_Z__length_code         0000000180073430     zlib:trees.obj
 0002:00011c98       ??_8?$basic_ostringstream@DU?$char_traits@D@std@@V?$allocator@D@2@@std@@7B@ 0000000180073c98     steam_api_settings.obj
 0002:00011c98       ??_8?$basic_stringstream@DU?$char_traits@D@std@@V?$allocator@D@2@@std@@7B?$basic_ostream@DU?$char_traits@D@std@@@1@@ 0000000180073c98     greenworks_utils.obj
 0002:00011ca0       ??_7?$basic_ostream@DU?$char_traits@D@std@@@std@@6B@ 0000000180073ca0     steam_api_settings.obj
 0002:00011ca8       ??_7StoreUserStatsWorker@?A0x0f10cf66@api@greenworks@@6B@ 0000000180073ca8     steam_api_stats.obj
 0002:00011cd8       ??_7?$CCallbackImpl@$0BA@@@6B@ 0000000180073cd8     steam_api_stats.obj
 0002:00011cf0       ??_C@_0BN@CGMEBCKN@Error?5on?5storing?5user?5stats?4?$AA@ 0000000180073cf0     steam_api_stats.obj
 0002:00011d10       ??_C@_0L@JEGEEHMH@getStatInt?$AA@ 0000000180073d10     steam_api_stats.obj
 0002:00011d20       ??_C@_0N@GCMLCNBA@getStatFloat?$AA@ 0000000180073d20     steam_api_stats.obj
 0002:00011d30       ??_C@_07GIJHAFEF@setStat?$AA@ 0000000180073d30     steam_api_stats.obj
 0002:00011d38       ??_C@_0L@OKADKCFA@storeStats?$AA@ 0000000180073d38     steam_api_stats.obj
 0002:00011d48       ??_C@_0O@OLOPBGKJ@resetAllStats?$AA@ 0000000180073d48     steam_api_stats.obj
 0002:00011d58       ??_C@_05CCNNDGIA@Items?$AA@ 0000000180073d58     steam_api_workshop.obj
 0002:00011d60       ??_C@_08ENCLJHCM@ItemsMtx?$AA@ 0000000180073d60     steam_api_workshop.obj
 0002:00011d70       ??_C@_0BA@DBNCOCKI@ItemsReadyToUse?$AA@ 0000000180073d70     steam_api_workshop.obj
 0002:00011d80       ??_C@_0M@HCKNCBCG@Collections?$AA@ 0000000180073d80     steam_api_workshop.obj
 0002:00011d90       ??_C@_07GNGFLJOI@Artwork?$AA@ 0000000180073d90     steam_api_workshop.obj
 0002:00011d98       ??_C@_06CKLONCAK@Videos?$AA@ 0000000180073d98     steam_api_workshop.obj
 0002:00011da0       ??_C@_0M@LBGIAHHD@Screenshots?$AA@ 0000000180073da0     steam_api_workshop.obj
 0002:00011db0       ??_C@_09OADFLNEA@AllGuides?$AA@ 0000000180073db0     steam_api_workshop.obj
 0002:00011dc0       ??_C@_09HDKMOIIG@WebGuides?$AA@ 0000000180073dc0     steam_api_workshop.obj
 0002:00011dd0       ??_C@_0BB@LAAKIOAC@IntegratedGuides?$AA@ 0000000180073dd0     steam_api_workshop.obj
 0002:00011de8       ??_C@_0N@DEPKCOP@UsableInGame?$AA@ 0000000180073de8     steam_api_workshop.obj
 0002:00011df8       ??_C@_0BD@IMELJFEH@ControllerBindings?$AA@ 0000000180073df8     steam_api_workshop.obj
 0002:00011e10       ??_C@_0BA@IBKDKJPM@UGCMatchingType?$AA@ 0000000180073e10     steam_api_workshop.obj
 0002:00011e20       ??_C@_0N@CDIHIJDK@RankedByVote?$AA@ 0000000180073e20     steam_api_workshop.obj
 0002:00011e30       ??_C@_0BI@MGJJEMOP@RankedByPublicationDate?$AA@ 0000000180073e30     steam_api_workshop.obj
 0002:00011e48       ??_C@_0CG@EBKOAAME@AcceptedForGameRankedByAcceptanc@ 0000000180073e48     steam_api_workshop.obj
 0002:00011e70       ??_C@_0O@PGPGNNLL@RankedByTrend?$AA@ 0000000180073e70     steam_api_workshop.obj
 0002:00011e80       ??_C@_0CK@GDAIJHHI@FavoritedByFriendsRankedByPublic@ 0000000180073e80     steam_api_workshop.obj
 0002:00011eb0       ??_C@_0CI@PMAFJMOJ@CreatedByFriendsRankedByPublicat@ 0000000180073eb0     steam_api_workshop.obj
 0002:00011ed8       ??_C@_0BJ@FAMKDGOE@RankedByNumTimesReported?$AA@ 0000000180073ed8     steam_api_workshop.obj
 0002:00011ef8       ??_C@_0CO@GDIGOAJB@CreatedByFollowedUsersRankedByPu@ 0000000180073ef8     steam_api_workshop.obj
 0002:00011f28       ??_C@_0M@HBOPNAAK@NotYetRated?$AA@ 0000000180073f28     steam_api_workshop.obj
 0002:00011f38       ??_C@_0BG@GMKOIPJI@RankedByTotalVotesAsc?$AA@ 0000000180073f38     steam_api_workshop.obj
 0002:00011f50       ??_C@_0BA@IMKDMPDL@RankedByVotesUp?$AA@ 0000000180073f50     steam_api_workshop.obj
 0002:00011f60       ??_C@_0BD@ICCMKEEF@RankedByTextSearch?$AA@ 0000000180073f60     steam_api_workshop.obj
 0002:00011f78       ??_C@_0N@FLJDDFBJ@UGCQueryType?$AA@ 0000000180073f78     steam_api_workshop.obj
 0002:00011f88       ??_C@_09OBBLKKAF@Published?$AA@ 0000000180073f88     steam_api_workshop.obj
 0002:00011f98       ??_C@_07IBPHLNLB@VotedOn?$AA@ 0000000180073f98     steam_api_workshop.obj
 0002:00011fa0       ??_C@_07EEAHKEMI@VotedUp?$AA@ 0000000180073fa0     steam_api_workshop.obj
 0002:00011fa8       ??_C@_09CNKCLPLH@VotedDown?$AA@ 0000000180073fa8     steam_api_workshop.obj
 0002:00011fb8       ??_C@_0O@DPLGOHGJ@WillVoteLater?$AA@ 0000000180073fb8     steam_api_workshop.obj
 0002:00011fc8       ??_C@_09KKBAPIMH@Favorited?$AA@ 0000000180073fc8     steam_api_workshop.obj
 0002:00011fd8       ??_C@_0L@IDDKPDNF@Subscribed?$AA@ 0000000180073fd8     steam_api_workshop.obj
 0002:00011fe8       ??_C@_0N@BMLICPJC@UsedOrPlayer?$AA@ 0000000180073fe8     steam_api_workshop.obj
 0002:00011ff8       ??_C@_08CMJCBFKK@Followed?$AA@ 0000000180073ff8     steam_api_workshop.obj
 0002:00012008       ??_C@_0M@HNMGKNLE@UserUGCList?$AA@ 0000000180074008     steam_api_workshop.obj
 0002:00012018       ??_C@_0BC@CBLGGOFD@CreationOrderDesc?$AA@ 0000000180074018     steam_api_workshop.obj
 0002:00012030       ??_C@_0BB@LDJGOLHH@CreationOrderAsc?$AA@ 0000000180074030     steam_api_workshop.obj
 0002:00012048       ??_C@_08PEOAFCKK@TitleAsc?$AA@ 0000000180074048     steam_api_workshop.obj
 0002:00012058       ??_C@_0BA@JPGNGHKM@LastUpdatedDesc?$AA@ 0000000180074058     steam_api_workshop.obj
 0002:00012068       ??_C@_0BF@KBJNFLOP@SubscriptionDateDesc?$AA@ 0000000180074068     steam_api_workshop.obj
 0002:00012080       ??_C@_0O@HKOFPDIK@VoteScoreDesc?$AA@ 0000000180074080     steam_api_workshop.obj
 0002:00012090       ??_C@_0O@JIKPHGFC@ForModeration?$AA@ 0000000180074090     steam_api_workshop.obj
 0002:000120a0       ??_C@_0BF@IBFHLPHE@UserUGCListSortOrder?$AA@ 00000001800740a0     steam_api_workshop.obj
 0002:000120b8       ??_C@_0L@HAMLJPOP@?1workshop?1?$AA@ 00000001800740b8     steam_api_workshop.obj
 0002:000120c8       ??_C@_0BP@OBMCGNCH@http?3?1?1steamcommunity?4com?1app?1?$AA@ 00000001800740c8     steam_api_workshop.obj
 0002:000120e8       ??_C@_0DH@EJOECJNB@http?3?1?1steamcommunity?4com?1shared@ 00000001800740e8     steam_api_workshop.obj
 0002:00012120       ??_C@_09IBLLPHJI@fileShare?$AA@ 0000000180074120     steam_api_workshop.obj
 0002:00012130       ??_C@_0BE@OEIBDGCJ@publishWorkshopFile?$AA@ 0000000180074130     steam_api_workshop.obj
 0002:00012148       ??_C@_0BM@BOMMHCAE@updatePublishedWorkshopFile?$AA@ 0000000180074148     steam_api_workshop.obj
 0002:00012168       ??_C@_0M@CNMDKPEJ@ugcGetItems?$AA@ 0000000180074168     steam_api_workshop.obj
 0002:00012178       ??_C@_0BA@LIADCCCJ@ugcGetUserItems?$AA@ 0000000180074178     steam_api_workshop.obj
 0002:00012188       ??_C@_0BA@ICPEJKDB@ugcDownloadItem?$AA@ 0000000180074188     steam_api_workshop.obj
 0002:00012198       ??_C@_0BE@JEEBPHOC@ugcSynchronizeItems?$AA@ 0000000180074198     steam_api_workshop.obj
 0002:000121b0       ??_C@_0P@DADEDGCD@ugcShowOverlay?$AA@ 00000001800741b0     steam_api_workshop.obj
 0002:000121c0       ??_C@_0P@BBCFLIGL@ugcUnsubscribe?$AA@ 00000001800741c0     steam_api_workshop.obj
 0002:000121d0       ??_C@_0O@JIBBJOBF@_steam_events?$AA@ 00000001800741d0     greenworks_api.obj
 0002:000121e0       ??_C@_07MDPGFBIH@initAPI?$AA@ 00000001800741e0     greenworks_api.obj
 0002:000121e8       ??_C@_0BJ@DLMLFOMJ@?4?4?2src?2greenworks_api?4cc?$AA@ 00000001800741e8     greenworks_api.obj
 0002:00012208       ??_C@_0BB@DKHFPCGL@greenworks_win64?$AA@ 0000000180074208     greenworks_api.obj
 0002:00012220       ??_7Observer@SteamClient@greenworks@@6B@ 0000000180074220     greenworks_api.obj
 0002:00012278       ??_7SteamEvent@greenworks@@6B@ 0000000180074278     greenworks_api.obj
 0002:000122d0       ??_7GetAchievementWorker@greenworks@@6B@ 00000001800742d0     greenworks_async_workers.obj
 0002:00012300       ??_7CreateArchiveWorker@greenworks@@6B@ 0000000180074300     greenworks_async_workers.obj
 0002:00012330       ??_7FileReadWorker@greenworks@@6B@ 0000000180074330     greenworks_async_workers.obj
 0002:00012360       ??_7FilesSaveWorker@greenworks@@6B@ 0000000180074360     greenworks_async_workers.obj
 0002:00012390       ??_7FileDeleteWorker@greenworks@@6B@ 0000000180074390     greenworks_async_workers.obj
 0002:000123c0       ??_7GetAuthSessionTicketWorker@greenworks@@6B@ 00000001800743c0     greenworks_async_workers.obj
 0002:000123f0       ??_7ClearAchievementWorker@greenworks@@6B@ 00000001800743f0     greenworks_async_workers.obj
 0002:00012420       ??_7GetNumberOfPlayersWorker@greenworks@@6B@ 0000000180074420     greenworks_async_workers.obj
 0002:00012450       ??_7?$CCallResult@VRequestEncryptedAppTicketWorker@greenworks@@UEncryptedAppTicketResponse_t@@@@6B@ 0000000180074450     greenworks_async_workers.obj
 0002:00012468       ??_7RequestEncryptedAppTicketWorker@greenworks@@6B@ 0000000180074468     greenworks_async_workers.obj
 0002:00012498       ??_7CloudQuotaGetWorker@greenworks@@6B@ 0000000180074498     greenworks_async_workers.obj
 0002:000124c8       ??_7?$CCallback@VSteamClient@greenworks@@USteamServerConnectFailure_t@@$0A@@@6B@ 00000001800744c8     steam_client.obj
 0002:000124c8       ??_7?$CCallback@VGetAuthSessionTicketWorker@greenworks@@UGetAuthSessionTicketResponse_t@@$0A@@@6B@ 00000001800744c8     greenworks_async_workers.obj
 0002:000124e0       ??_7?$CCallResult@VGetNumberOfPlayersWorker@greenworks@@UNumberOfCurrentPlayers_t@@@@6B@ 00000001800744e0     greenworks_async_workers.obj
 0002:000124f8       ??_7ExtractArchiveWorker@greenworks@@6B@ 00000001800744f8     greenworks_async_workers.obj
 0002:00012528       ??_7FileContentSaveWorker@greenworks@@6B@ 0000000180074528     greenworks_async_workers.obj
 0002:00012558       ??_7ActivateAchievementWorker@greenworks@@6B@ 0000000180074558     greenworks_async_workers.obj
 0002:00012588       ??_7?$CCallbackImpl@$07@@6B@ 0000000180074588     greenworks_async_workers.obj
 0002:000125a0       ??_C@_0BK@IGFABFPJ@Error?5on?5writing?5to?5file?4?$AA@ 00000001800745a0     greenworks_async_workers.obj
 0002:000125c0       ??_C@_0BI@DFMDOLCF@Error?5on?5reading?5files?4?$AA@ 00000001800745c0     greenworks_async_workers.obj
 0002:000125d8       ??_C@_0CG@BHLCIAMP@Error?5on?5writing?5file?5on?5Steam?5C@ 00000001800745d8     greenworks_async_workers.obj
 0002:00012600       ??_C@_0BE@LNMJGEPL@File?5doesn?8t?5exist?4?$AA@ 0000000180074600     greenworks_async_workers.obj
 0002:00012618       ??_C@_0BI@PMFJIODN@Error?5on?5deleting?5file?4?$AA@ 0000000180074618     greenworks_async_workers.obj
 0002:00012630       ??_C@_0BH@KFIAPBPO@Error?5on?5reading?5file?4?$AA@ 0000000180074630     greenworks_async_workers.obj
 0002:00012648       ??_C@_0BO@MBKHFNFI@Error?5on?5getting?5cloud?5quota?4?$AA@ 0000000180074648     greenworks_async_workers.obj
 0002:00012668       ??_C@_0BP@DKGACDGB@Achievement?5name?5is?5not?5valid?4?$AA@ 0000000180074668     greenworks_async_workers.obj
 0002:00012688       ??_C@_0CC@HHDMLKMM@Error?5on?5storing?5user?5achievemen@ 0000000180074688     greenworks_async_workers.obj
 0002:000126b0       ??_C@_0BO@GCCJDBHP@Achivement?5name?5is?5not?5valid?4?$AA@ 00000001800746b0     greenworks_async_workers.obj
 0002:000126d0       ??_C@_0CJ@DBHKLMDL@Fails?5on?5uploading?5user?5stats?5to@ 00000001800746d0     greenworks_async_workers.obj
 0002:00012700       ??_C@_0DJ@JHHNKLPO@Error?5on?5getting?5number?5of?5playe@ 0000000180074700     greenworks_async_workers.obj
 0002:00012740       ??_C@_0CE@NEECDODO@Error?5on?5getting?5number?5of?5playe@ 0000000180074740     greenworks_async_workers.obj
 0002:00012768       ??_C@_0BM@EFNLJBAM@Error?5on?5creating?5zip?5file?4?$AA@ 0000000180074768     greenworks_async_workers.obj
 0002:00012788       ??_C@_0BO@BDEKGLBH@Error?5on?5extracting?5zip?5file?4?$AA@ 0000000180074788     greenworks_async_workers.obj
 0002:000127a8       ??_C@_0CG@IFCLEFCE@Error?5on?5getting?5auth?5session?5ti@ 00000001800747a8     greenworks_async_workers.obj
 0002:000127d0       ??_C@_06GCLFECIN@ticket?$AA@ 00000001800747d0     greenworks_async_workers.obj
 0002:000127d8       ??_C@_06NCGDPKCC@handle?$AA@ 00000001800747d8     greenworks_async_workers.obj
 0002:000127e0       ??_C@_0CH@CDMCBBIA@Error?5on?5getting?5encrypted?5app?5t@ 00000001800747e0     greenworks_async_workers.obj
 0002:00012808       ??_C@_02GMLFBBN@wb?$AA@    0000000180074808     greenworks_unzip.obj
 0002:0001280c       ??_C@_04CLJHFACG@?4zip?$AA@ 000000018007480c     greenworks_unzip.obj
 0002:00012814       ??_C@_02CFKBDFGI@?1?2?$AA@ 0000000180074814     greenworks_utils.obj
 0002:00012818       ?_Src@?1??_Getffld@?$num_get@DV?$istreambuf_iterator@DU?$char_traits@D@std@@@std@@@std@@AEBAHPEADAEAV?$istreambuf_iterator@DU?$char_traits@D@std@@@3@1AEAVios_base@3@PEAH@Z@4QBDB 0000000180074818     greenworks_utils.obj
 0002:00012828       ??_7?$basic_filebuf@DU?$char_traits@D@std@@@std@@6B@ 0000000180074828     greenworks_utils.obj
 0002:000128a0       ??_7?$basic_ofstream@DU?$char_traits@D@std@@@std@@6B@ 00000001800748a0     greenworks_utils.obj
 0002:000128a8       ??_8?$basic_ofstream@DU?$char_traits@D@std@@@std@@7B@ 00000001800748a8     greenworks_utils.obj
 0002:000128b0       ??_7?$basic_iostream@DU?$char_traits@D@std@@@std@@6B@ 00000001800748b0     greenworks_utils.obj
 0002:000128c0       ?_Src@?1??_Getffldx@?$num_get@DV?$istreambuf_iterator@DU?$char_traits@D@std@@@std@@@std@@AEBAHPEADAEAV?$istreambuf_iterator@DU?$char_traits@D@std@@@3@1AEAVios_base@3@PEAH@Z@4QBDB 00000001800748c0     greenworks_utils.obj
 0002:000128e0       ??_7?$basic_stringstream@DU?$char_traits@D@std@@V?$allocator@D@2@@std@@6B@ 00000001800748e0     greenworks_utils.obj
 0002:000128e8       ??_8?$basic_ifstream@DU?$char_traits@D@std@@@std@@7B@ 00000001800748e8     greenworks_utils.obj
 0002:000128f0       ??_7?$basic_istream@DU?$char_traits@D@std@@@std@@6B@ 00000001800748f0     greenworks_utils.obj
 0002:00012900       ?_Src@?1??_Getifld@?$num_get@DV?$istreambuf_iterator@DU?$char_traits@D@std@@@std@@@std@@AEBAHPEADAEAV?$istreambuf_iterator@DU?$char_traits@D@std@@@3@1HAEBVlocale@3@@Z@4QBDB 0000000180074900     greenworks_utils.obj
 0002:00012920       ??_8?$basic_stringstream@DU?$char_traits@D@std@@V?$allocator@D@2@@std@@7B?$basic_istream@DU?$char_traits@D@std@@@1@@ 0000000180074920     greenworks_utils.obj
 0002:00012928       ??_7?$basic_ifstream@DU?$char_traits@D@std@@@std@@6B@ 0000000180074928     greenworks_utils.obj
 0002:00012930       ??_C@_0P@IMMNIAMK@acceptedForUse?$AA@ 0000000180074930     greenworks_workshop_workers.obj
 0002:00012940       ??_C@_06PGEEPMG@banned?$AA@ 0000000180074940     greenworks_workshop_workers.obj
 0002:00012948       ??_C@_0O@OFJJNOEP@tagsTruncated?$AA@ 0000000180074948     greenworks_workshop_workers.obj
 0002:00012958       ??_C@_08HKNLGBDI@fileType?$AA@ 0000000180074958     greenworks_workshop_workers.obj
 0002:00012964       ??_C@_06KJFADLGN@result?$AA@ 0000000180074964     greenworks_workshop_workers.obj
 0002:00012970       ??_C@_0L@CNKMJODB@visibility?$AA@ 0000000180074970     greenworks_workshop_workers.obj
 0002:0001297c       ??_C@_05DBKDOICH@score?$AA@ 000000018007497c     greenworks_workshop_workers.obj
 0002:00012984       ??_C@_04DAMGJPCA@file?$AA@ 0000000180074984     greenworks_workshop_workers.obj
 0002:00012990       ??_C@_08NBNIKBEI@fileName?$AA@ 0000000180074990     greenworks_workshop_workers.obj
 0002:000129a0       ??_C@_08JFHFGPGB@fileSize?$AA@ 00000001800749a0     greenworks_workshop_workers.obj
 0002:000129b0       ??_C@_0M@HKIOHLFA@previewFile?$AA@ 00000001800749b0     greenworks_workshop_workers.obj
 0002:000129c0       ??_C@_0BA@POAINKAC@previewFileSize?$AA@ 00000001800749c0     greenworks_workshop_workers.obj
 0002:000129d0       ??_C@_0N@NJPFLODO@steamIDOwner?$AA@ 00000001800749d0     greenworks_workshop_workers.obj
 0002:000129e0       ??_C@_0O@LCNPEKGD@consumerAppID?$AA@ 00000001800749e0     greenworks_workshop_workers.obj
 0002:000129f0       ??_C@_0N@PGKBABKK@creatorAppID?$AA@ 00000001800749f0     greenworks_workshop_workers.obj
 0002:00012a00       ??_C@_0BA@HEJNJMLA@publishedFileId?$AA@ 0000000180074a00     greenworks_workshop_workers.obj
 0002:00012a10       ??_C@_05PHLGJONK@title?$AA@ 0000000180074a10     greenworks_workshop_workers.obj
 0002:00012a18       ??_C@_0M@PPJNHBMP@description?$AA@ 0000000180074a18     greenworks_workshop_workers.obj
 0002:00012a24       ??_C@_03BBJMCFKE@URL?$AA@  0000000180074a24     greenworks_workshop_workers.obj
 0002:00012a28       ??_C@_04PPJPCJBL@tags?$AA@ 0000000180074a28     greenworks_workshop_workers.obj
 0002:00012a30       ??_C@_0BE@BJHANNIL@timeAddedToUserList?$AA@ 0000000180074a30     greenworks_workshop_workers.obj
 0002:00012a48       ??_C@_0M@DBEMDEDG@timeCreated?$AA@ 0000000180074a48     greenworks_workshop_workers.obj
 0002:00012a58       ??_C@_0M@NHFLMOBG@timeUpdated?$AA@ 0000000180074a58     greenworks_workshop_workers.obj
 0002:00012a68       ??_C@_09HMCMIOEE@votesDown?$AA@ 0000000180074a68     greenworks_workshop_workers.obj
 0002:00012a78       ??_C@_07HALPKJLI@votesUp?$AA@ 0000000180074a78     greenworks_workshop_workers.obj
 0002:00012a80       ??_C@_01KMDKNFGN@?1?$AA@   0000000180074a80     greenworks_workshop_workers.obj
 0002:00012a88       ??_C@_0CM@CEEOAPJG@Error?5on?5sharing?5file?3?5Steam?5API@ 0000000180074a88     greenworks_workshop_workers.obj
 0002:00012ab8       ??_C@_0CG@GHKGBDLL@Error?5on?5sharing?5file?5on?5Steam?5c@ 0000000180074ab8     greenworks_workshop_workers.obj
 0002:00012ae0       ??_C@_0DI@DPMICJLL@Error?5on?5publishing?5workshop?5fil@ 0000000180074ae0     greenworks_workshop_workers.obj
 0002:00012b18       ??_C@_0CD@ODGMDNHA@Error?5on?5publishing?5workshop?5fil@ 0000000180074b18     greenworks_workshop_workers.obj
 0002:00012b40       ??_C@_0EA@FLFDEPKF@Error?5on?5committing?5published?5fi@ 0000000180074b40     greenworks_workshop_workers.obj
 0002:00012b80       ??_C@_0CJ@MOMLPIDK@Error?5on?5getting?5published?5file?5@ 0000000180074b80     greenworks_workshop_workers.obj
 0002:00012bb0       ??_C@_0DA@MEOCLOCE@Error?5on?5querying?5all?5ugc?3?5Steam@ 0000000180074bb0     greenworks_workshop_workers.obj
 0002:00012be0       ??_C@_0BH@FKBCJDLE@Error?5on?5querying?5ugc?4?$AA@ 0000000180074be0     greenworks_workshop_workers.obj
 0002:00012bf8       ??_C@_0DA@IJHKBBMB@Error?5on?5downloading?5file?3?5Steam@ 0000000180074bf8     greenworks_workshop_workers.obj
 0002:00012c28       ??_C@_0CH@EPMMHPHM@Error?5on?5saving?5file?5on?5local?5ma@ 0000000180074c28     greenworks_workshop_workers.obj
 0002:00012c50       ??_C@_0BL@MCKCHPDP@Error?5on?5downloading?5file?4?$AA@ 0000000180074c50     greenworks_workshop_workers.obj
 0002:00012c70       ??_C@_0CM@CLHKNMDO@Error?5on?5update?5file?5time?5on?5loc@ 0000000180074c70     greenworks_workshop_workers.obj
 0002:00012ca0       ??_C@_09JFOAOJLI@isUpdated?$AA@ 0000000180074ca0     greenworks_workshop_workers.obj
 0002:00012cb0       ??_7?$CCallResult@VUnsubscribePublishedFileWorker@greenworks@@URemoteStoragePublishedFileUnsubscribed_t@@@@6B@ 0000000180074cb0     greenworks_workshop_workers.obj
 0002:00012cc8       ??_7UnsubscribePublishedFileWorker@greenworks@@6B@ 0000000180074cc8     greenworks_workshop_workers.obj
 0002:00012cf8       ??_7QueryAllUGCWorker@greenworks@@6B@ 0000000180074cf8     greenworks_workshop_workers.obj
 0002:00012d28       ??_7QueryUserUGCWorker@greenworks@@6B@ 0000000180074d28     greenworks_workshop_workers.obj
 0002:00012d58       ??_7PublishWorkshopFileWorker@greenworks@@6B@ 0000000180074d58     greenworks_workshop_workers.obj
 0002:00012d88       ??_7?$CCallResult@VSynchronizeItemsWorker@greenworks@@URemoteStorageDownloadUGCResult_t@@@@6B@ 0000000180074d88     greenworks_workshop_workers.obj
 0002:00012d88       ??_7?$CCallResult@VDownloadItemWorker@greenworks@@URemoteStorageDownloadUGCResult_t@@@@6B@ 0000000180074d88     greenworks_workshop_workers.obj
 0002:00012da0       ??_7FileShareWorker@greenworks@@6B@ 0000000180074da0     greenworks_workshop_workers.obj
 0002:00012dd0       ??_7QueryUGCWorker@greenworks@@6B@ 0000000180074dd0     greenworks_workshop_workers.obj
 0002:00012e00       ??_7?$CCallResult@VSynchronizeItemsWorker@greenworks@@USteamUGCQueryCompleted_t@@@@6B@ 0000000180074e00     greenworks_workshop_workers.obj
 0002:00012e00       ??_7?$CCallResult@VPublishWorkshopFileWorker@greenworks@@URemoteStoragePublishFileResult_t@@@@6B@ 0000000180074e00     greenworks_workshop_workers.obj
 0002:00012e00       ??_7?$CCallResult@VQueryUGCWorker@greenworks@@USteamUGCQueryCompleted_t@@@@6B@ 0000000180074e00     greenworks_workshop_workers.obj
 0002:00012e00       ??_7?$CCallResult@VUpdatePublishedWorkshopFileWorker@greenworks@@URemoteStorageUpdatePublishedFileResult_t@@@@6B@ 0000000180074e00     greenworks_workshop_workers.obj
 0002:00012e18       ??_7?$CCallResult@VFileShareWorker@greenworks@@URemoteStorageFileShareResult_t@@@@6B@ 0000000180074e18     greenworks_workshop_workers.obj
 0002:00012e30       ??_7SynchronizeItemsWorker@greenworks@@6B@ 0000000180074e30     greenworks_workshop_workers.obj
 0002:00012e60       ??_7UpdatePublishedWorkshopFileWorker@greenworks@@6B@ 0000000180074e60     greenworks_workshop_workers.obj
 0002:00012e90       ??_7DownloadItemWorker@greenworks@@6B@ 0000000180074e90     greenworks_workshop_workers.obj
 0002:00012ec0       ??_C@_02JDPG@rb?$AA@       0000000180074ec0     greenworks_zip.obj
 0002:00012ec4       ??_C@_02HDBGODGB@?2?2?$AA@ 0000000180074ec4     greenworks_zip.obj
 0002:00012ec8       ??_C@_02DJGKEECL@?4?4?$AA@ 0000000180074ec8     greenworks_zip.obj
 0002:00012ed0       ??_C@_0BP@KKHMCGCN@Path?5length?5has?5got?5too?5long?4?6?$AA@ 0000000180074ed0     greenworks_zip.obj
 0002:00012ef0       ??_7AsyncWorker@Nan@@6B@   0000000180074ef0     steam_async_worker.obj
 0002:00012f20       ??_7SteamAsyncWorker@greenworks@@6B@ 0000000180074f20     steam_async_worker.obj
 0002:00012f50       ??_7?$CCallback@VSteamClient@greenworks@@UAvatarImageLoaded_t@@$0A@@@6B@ 0000000180074f50     steam_client.obj
 0002:00012f68       ??_7?$CCallback@VSteamClient@greenworks@@UDlcInstalled_t@@$0A@@@6B@ 0000000180074f68     steam_client.obj
 0002:00012f68       ??_7?$CCallback@VSteamClient@greenworks@@USteamServersDisconnected_t@@$0A@@@6B@ 0000000180074f68     steam_client.obj
 0002:00012f80       ??_7?$CCallback@VSteamClient@greenworks@@UPersonaStateChange_t@@$0A@@@6B@ 0000000180074f80     steam_client.obj
 0002:00012f80       ??_7?$CCallback@VStoreUserStatsWorker@?A0x0f10cf66@api@greenworks@@UUserStatsStored_t@@$0A@@@6B@ 0000000180074f80     steam_api_stats.obj
 0002:00012f98       ??_7?$CCallback@VSteamClient@greenworks@@UGameConnectedFriendChatMsg_t@@$0A@@@6B@ 0000000180074f98     steam_client.obj
 0002:00012fb0       ??_7?$CCallback@VSteamClient@greenworks@@USteamServersConnected_t@@$0A@@@6B@ 0000000180074fb0     steam_client.obj
 0002:00012fb0       ??_7?$CCallback@VSteamClient@greenworks@@USteamShutdown_t@@$0A@@@6B@ 0000000180074fb0     steam_client.obj
 0002:00012fb0       ??_7?$CCallback@VSteamClient@greenworks@@UGameOverlayActivated_t@@$0A@@@6B@ 0000000180074fb0     steam_client.obj
 0002:00012fc8       ??_7?$CCallback@VSteamClient@greenworks@@UMicroTxnAuthorizationResponse_t@@$0A@@@6B@ 0000000180074fc8     steam_client.obj
 0002:00012fe0       ??_C@_0BH@HGLPINFO@game?9overlay?9activated?$AA@ 0000000180074fe0     steam_event.obj
 0002:00012ff8       ??_C@_02LIELOMNJ@on?$AA@   0000000180074ff8     steam_event.obj
 0002:00013000       ??_C@_0BI@EGEHMMKJ@steam?9servers?9connected?$AA@ 0000000180075000     steam_event.obj
 0002:00013018       ??_C@_0BL@IPPJJLGA@steam?9servers?9disconnected?$AA@ 0000000180075018     steam_event.obj
 0002:00013038       ??_C@_0BN@HBFLAPFK@steam?9server?9connect?9failure?$AA@ 0000000180075038     steam_event.obj
 0002:00013058       ??_C@_0P@MPCJAIH@steam?9shutdown?$AA@ 0000000180075058     steam_event.obj
 0002:00013068       ??_C@_0BF@NOJODFFD@persona?9state?9change?$AA@ 0000000180075068     steam_event.obj
 0002:00013080       ??_C@_0BE@EBLHLL@avatar?9image?9loaded?$AA@ 0000000180075080     steam_event.obj
 0002:00013098       ??_C@_0CD@BPBHFGJL@game?9connected?9friend?9chat?9messa@ 0000000180075098     steam_event.obj
 0002:000130c0       ??_C@_0O@BPAECHCA@dlc?9installed?$AA@ 00000001800750c0     steam_event.obj
 0002:000130d0       ??_C@_0CB@MDJDBEKA@micro?9txn?9authorization?9response@ 00000001800750d0     steam_event.obj
 0002:000130f8       ??_C@_1DG@OKCGPKIB@?$AAp?$AAe?$AAr?$AAs?$AAi?$AAs?$AAt?$AAe?$AAn?$AAt?$AA?$CI?$AA?$CJ?$AA?4?$AAI?$AAs?$AAN?$AAe?$AAa?$AAr?$AAD?$AAe?$AAa?$AAt?$AAh?$AA?$CI?$AA?$CJ?$AA?$AA@ 00000001800750f8     steam_id.obj
 0002:00013130       ??_C@_1DA@FBGAEOIO@?$AA?$CB?$AAp?$AAe?$AAr?$AAs?$AAi?$AAs?$AAt?$AAe?$AAn?$AAt?$AA?$CI?$AA?$CJ?$AA?4?$AAI?$AAs?$AAE?$AAm?$AAp?$AAt?$AAy?$AA?$CI?$AA?$CJ?$AA?$AA@ 0000000180075130     steam_id.obj
 0002:00013160       ??_C@_1CO@JCKLEFMA@?$AA?$CB?$AAp?$AAe?$AAr?$AAs?$AAi?$AAs?$AAt?$AAe?$AAn?$AAt?$AA?$CI?$AA?$CJ?$AA?4?$AAI?$AAs?$AAW?$AAe?$AAa?$AAk?$AA?$CI?$AA?$CJ?$AA?$AA@ 0000000180075160     steam_id.obj
 0002:00013190       ??_C@_1BE@GMLLOIPJ@?$AAr?$AAe?$AAf?$AAs?$AA_?$AA?5?$AA?$DO?$AA?5?$AA0?$AA?$AA@ 0000000180075190     steam_id.obj
 0002:000131a8       ??_C@_1CC@GBFLAAPF@?$AAw?$AAr?$AAa?$AAp?$AA?9?$AA?$DO?$AAr?$AAe?$AAf?$AAs?$AA_?$AA?5?$AA?$DN?$AA?$DN?$AA?5?$AA0?$AA?$AA@ 00000001800751a8     steam_id.obj
 0002:000131d0       ??_C@_1MC@PJLMKCPI@?$AAc?$AA?3?$AA?2?$AAu?$AAs?$AAe?$AAr?$AAs?$AA?2?$AAn?$AAa?$AAt?$AAh?$AAa?$AAn?$AAi?$AAe?$AAl?$AA?2?$AAd?$AAo?$AAc?$AAu?$AAm?$AAe?$AAn?$AAt?$AAs?$AA?2?$AAs?$AAk?$AAe@ 00000001800751d0     steam_id.obj
 0002:000132a0       ??_C@_1EC@MGGLMBLC@?$AAo?$AAb?$AAj?$AAe?$AAc?$AAt?$AA?9?$AA?$DO?$AAI?$AAn?$AAt?$AAe?$AAr?$AAn?$AAa?$AAl?$AAF?$AAi?$AAe?$AAl?$AAd?$AAC?$AAo?$AAu?$AAn?$AAt?$AA?$CI?$AA?$CJ?$AA?5?$AA?$DO?$AA?5?$AA0@ 00000001800752a0     steam_id.obj
 0002:000132e8       ??_C@_1DI@ELDBKNAK@?$AAw?$AAr?$AAa?$AAp?$AA?9?$AA?$DO?$AAh?$AAa?$AAn?$AAd?$AAl?$AAe?$AA_?$AA?4?$AAI?$AAs?$AAN?$AAe?$AAa?$AAr?$AAD?$AAe?$AAa?$AAt?$AAh?$AA?$CI?$AA?$CJ?$AA?$AA@ 00000001800752e8     steam_id.obj
 0002:00013320       ??_C@_0M@BJGIGANC@isAnonymous?$AA@ 0000000180075320     steam_id.obj
 0002:00013330       ??_C@_0BG@NGOJCEFO@isAnonymousGameServer?$AA@ 0000000180075330     steam_id.obj
 0002:00013348       ??_C@_0BL@KAFDJDMC@isAnonymousGameServerLogin?$AA@ 0000000180075348     steam_id.obj
 0002:00013368       ??_C@_0BA@NHKJKOCL@isAnonymousUser?$AA@ 0000000180075368     steam_id.obj
 0002:00013378       ??_C@_0O@KKOBAKOE@isChatAccount?$AA@ 0000000180075378     steam_id.obj
 0002:00013388       ??_C@_0O@CDNGLBIJ@isClanAccount?$AA@ 0000000180075388     steam_id.obj
 0002:00013398       ??_C@_0BF@CKEFKPCG@isConsoleUserAccount?$AA@ 0000000180075398     steam_id.obj
 0002:000133b0       ??_C@_0BH@NAECOJON@isContentServerAccount?$AA@ 00000001800753b0     steam_id.obj
 0002:000133c8       ??_C@_0BE@PCADKLFJ@isGameServerAccount?$AA@ 00000001800753c8     steam_id.obj
 0002:000133e0       ??_C@_0BE@HBHBJFPF@isIndividualAccount?$AA@ 00000001800753e0     steam_id.obj
 0002:000133f8       ??_C@_0BO@HPGIHMHI@isPersistentGameServerAccount?$AA@ 00000001800753f8     steam_id.obj
 0002:00013418       ??_C@_07MPIAJJEC@isLobby?$AA@ 0000000180075418     steam_id.obj
 0002:00013420       ??_C@_0N@DIODELGC@getAccountID?$AA@ 0000000180075420     steam_id.obj
 0002:00013430       ??_C@_0O@GEAGAGDJ@getRawSteamID?$AA@ 0000000180075430     steam_id.obj
 0002:00013440       ??_C@_0P@GAIPCNCD@getAccountType?$AA@ 0000000180075440     steam_id.obj
 0002:00013450       ??_C@_0BE@FIOBEHHH@getStaticAccountKey?$AA@ 0000000180075450     steam_id.obj
 0002:00013468       ??_C@_0P@IIHMGDPL@getPersonaName?$AA@ 0000000180075468     steam_id.obj
 0002:00013478       ??_C@_0M@PKEFPHLA@getNickname?$AA@ 0000000180075478     steam_id.obj
 0002:00013488       ??_C@_0BA@ONHIEDDI@getRelationship?$AA@ 0000000180075488     steam_id.obj
 0002:00013498       ??_C@_0O@ONKGEHDB@getSteamLevel?$AA@ 0000000180075498     steam_id.obj
 0002:000134a8       ??_C@_1CE@LNAGEONJ@?$AA?$CB?$AAo?$AAb?$AAj?$AAe?$AAc?$AAt?$AA?4?$AAI?$AAs?$AAE?$AAm?$AAp?$AAt?$AAy?$AA?$CI?$AA?$CJ?$AA?$AA@ 00000001800754a8     steam_id.obj
 0002:000134d0       ??_7SteamID@greenworks@@6B@ 00000001800754d0     steam_id.obj
 0002:000134e8       ??_7ObjectWrap@Nan@@6B@    00000001800754e8     steam_id.obj
 0002:00013500       ??_C@_01JOAMLHOP@?9?$AA@   0000000180075500     minizip:zip.obj
 0002:00013504       ??_C@_03HMFOOINA@r?$CLb?$AA@ 0000000180075504     minizip:ioapi.obj
 0002:00013508       ??_C@_0BH@LIBMMIGA@incorrect?5header?5check?$AA@ 0000000180075508     zlib:inflate.obj
 0002:00013520       ??_C@_0BL@IHKGDAEE@unknown?5compression?5method?$AA@ 0000000180075520     zlib:inflate.obj
 0002:00013540       ??_C@_0BE@EMOGCLGO@invalid?5window?5size?$AA@ 0000000180075540     zlib:inflate.obj
 0002:00013558       ??_C@_0BJ@BLBBCOMO@unknown?5header?5flags?5set?$AA@ 0000000180075558     zlib:inflate.obj
 0002:00013578       ??_C@_0BE@GONKLEPM@header?5crc?5mismatch?$AA@ 0000000180075578     zlib:inflate.obj
 0002:00013590       ??_C@_0BD@PJCBIDD@invalid?5block?5type?$AA@ 0000000180075590     zlib:inflate.obj
 0002:000135a8       ??_C@_0BN@LGAADGOK@invalid?5stored?5block?5lengths?$AA@ 00000001800755a8     zlib:inflate.obj
 0002:000135c8       ??_C@_0CE@GMIGFPBB@too?5many?5length?5or?5distance?5symb@ 00000001800755c8     zlib:inflate.obj
 0002:000135f0       ??_C@_0BJ@HDEPPGOH@invalid?5code?5lengths?5set?$AA@ 00000001800755f0     zlib:inflate.obj
 0002:00013610       ??_C@_0BK@BMMPFBBH@invalid?5bit?5length?5repeat?$AA@ 0000000180075610     zlib:inflate.obj
 0002:00013630       ??_C@_0CF@DGDMADCD@invalid?5code?5?9?9?5missing?5end?9of?9b@ 0000000180075630     zlib:inflate.obj
 0002:00013658       ??_C@_0BM@IIMGAINC@invalid?5literal?1lengths?5set?$AA@ 0000000180075658     zlib:inflate.obj
 0002:00013678       ??_C@_0BG@GMDFCBGP@invalid?5distances?5set?$AA@ 0000000180075678     zlib:inflate.obj
 0002:00013690       ??_C@_0BM@FFFLPBBC@invalid?5literal?1length?5code?$AA@ 0000000180075690     zlib:inflate.obj
 0002:000136b0       ??_C@_0BG@LBKINIKP@invalid?5distance?5code?$AA@ 00000001800756b0     zlib:inflate.obj
 0002:000136c8       ??_C@_0BO@ECPMAOGG@invalid?5distance?5too?5far?5back?$AA@ 00000001800756c8     zlib:inflate.obj
 0002:000136e8       ??_C@_0BF@MEIGEHBE@incorrect?5data?5check?$AA@ 00000001800756e8     zlib:inflate.obj
 0002:00013700       ??_C@_0BH@FGKKJGOC@incorrect?5length?5check?$AA@ 0000000180075700     zlib:inflate.obj
 0002:00013718       ??_C@_0BA@MOKMMFOD@need?5dictionary?$AA@ 0000000180075718     zlib:zutil.obj
 0002:00013728       ??_C@_0L@FNAOCBOG@stream?5end?$AA@ 0000000180075728     zlib:zutil.obj
 0002:00013738       ??_C@_0L@KIJFAKBJ@file?5error?$AA@ 0000000180075738     zlib:zutil.obj
 0002:00013748       ??_C@_0N@MKKNPMJD@stream?5error?$AA@ 0000000180075748     zlib:zutil.obj
 0002:00013758       ??_C@_0L@HAHMBNLP@data?5error?$AA@ 0000000180075758     zlib:zutil.obj
 0002:00013768       ??_C@_0BE@OGGJBMCE@insufficient?5memory?$AA@ 0000000180075768     zlib:zutil.obj
 0002:00013780       ??_C@_0N@DFPGLBGC@buffer?5error?$AA@ 0000000180075780     zlib:zutil.obj
 0002:00013790       ??_C@_0BF@CJFPCCEG@incompatible?5version?$AA@ 0000000180075790     zlib:zutil.obj
 0002:000137a8       __real@4202a05f20000000    00000001800757a8     steam_api_settings.obj
 0002:000137b0       __xmm@7fffffffffffffff7fffffffffffffff 00000001800757b0     steam_api_settings.obj
 0002:00013820       _load_config_used          0000000180075820     LIBCMT:loadcfg.obj
 0002:000138b8       _tls_used                  00000001800758b8     LIBCMT:tlssup.obj
 0002:000138e0       ??_R4exception@std@@6B@    00000001800758e0     libcpmt:xthrow.obj
 0002:00013908       ??_R3exception@std@@8      0000000180075908     libcpmt:xthrow.obj
 0002:00013920       ??_R2exception@std@@8      0000000180075920     libcpmt:xthrow.obj
 0002:00013930       ??_R1A@?0A@EA@exception@std@@8 0000000180075930     libcpmt:xthrow.obj
 0002:00013958       ??_R4bad_alloc@std@@6B@    0000000180075958     libcpmt:xthrow.obj
 0002:00013980       ??_R3bad_alloc@std@@8      0000000180075980     libcpmt:xthrow.obj
 0002:00013998       ??_R2bad_alloc@std@@8      0000000180075998     libcpmt:xthrow.obj
 0002:000139b0       ??_R1A@?0A@EA@bad_alloc@std@@8 00000001800759b0     libcpmt:xthrow.obj
 0002:000139d8       ??_R4logic_error@std@@6B@  00000001800759d8     libcpmt:xthrow.obj
 0002:00013a00       ??_R3logic_error@std@@8    0000000180075a00     libcpmt:xthrow.obj
 0002:00013a18       ??_R2logic_error@std@@8    0000000180075a18     libcpmt:xthrow.obj
 0002:00013a30       ??_R1A@?0A@EA@logic_error@std@@8 0000000180075a30     libcpmt:xthrow.obj
 0002:00013a58       ??_R4length_error@std@@6B@ 0000000180075a58     libcpmt:xthrow.obj
 0002:00013a80       ??_R3length_error@std@@8   0000000180075a80     libcpmt:xthrow.obj
 0002:00013a98       ??_R2length_error@std@@8   0000000180075a98     libcpmt:xthrow.obj
 0002:00013ab8       ??_R1A@?0A@EA@length_error@std@@8 0000000180075ab8     libcpmt:xthrow.obj
 0002:00013ae0       ??_R4out_of_range@std@@6B@ 0000000180075ae0     libcpmt:xthrow.obj
 0002:00013b08       ??_R3out_of_range@std@@8   0000000180075b08     libcpmt:xthrow.obj
 0002:00013b20       ??_R2out_of_range@std@@8   0000000180075b20     libcpmt:xthrow.obj
 0002:00013b40       ??_R1A@?0A@EA@out_of_range@std@@8 0000000180075b40     libcpmt:xthrow.obj
 0002:00013b68       ??_R4runtime_error@std@@6B@ 0000000180075b68     libcpmt:xthrow.obj
 0002:00013b90       ??_R3runtime_error@std@@8  0000000180075b90     libcpmt:xthrow.obj
 0002:00013ba8       ??_R2runtime_error@std@@8  0000000180075ba8     libcpmt:xthrow.obj
 0002:00013bc0       ??_R1A@?0A@EA@runtime_error@std@@8 0000000180075bc0     libcpmt:xthrow.obj
 0002:00013be8       ??_R4bad_function_call@std@@6B@ 0000000180075be8     libcpmt:xthrow.obj
 0002:00013c10       ??_R3bad_function_call@std@@8 0000000180075c10     libcpmt:xthrow.obj
 0002:00013c28       ??_R2bad_function_call@std@@8 0000000180075c28     libcpmt:xthrow.obj
 0002:00013c40       ??_R1A@?0A@EA@bad_function_call@std@@8 0000000180075c40     libcpmt:xthrow.obj
 0002:00013c68       ??_R4_Facet_base@std@@6B@  0000000180075c68     libcpmt:locale0.obj
 0002:00013c90       ??_R3_Facet_base@std@@8    0000000180075c90     libcpmt:locale0.obj
 0002:00013ca8       ??_R2_Facet_base@std@@8    0000000180075ca8     libcpmt:locale0.obj
 0002:00013cb8       ??_R1A@?0A@EA@_Facet_base@std@@8 0000000180075cb8     libcpmt:locale0.obj
 0002:00013ce0       ??_R4_Locimp@locale@std@@6B@ 0000000180075ce0     libcpmt:locale0.obj
 0002:00013d08       ??_R3_Locimp@locale@std@@8 0000000180075d08     libcpmt:locale0.obj
 0002:00013d20       ??_R2_Locimp@locale@std@@8 0000000180075d20     libcpmt:locale0.obj
 0002:00013d48       ??_R1A@?0A@EA@_Locimp@locale@std@@8 0000000180075d48     libcpmt:locale0.obj
 0002:00013d70       ??_R1A@?0A@EA@facet@locale@std@@8 0000000180075d70     libcpmt:locale0.obj
 0002:00013d98       ??_R3facet@locale@std@@8   0000000180075d98     libcpmt:locale0.obj
 0002:00013db0       ??_R2facet@locale@std@@8   0000000180075db0     libcpmt:locale0.obj
 0002:00013dd0       ??_R17?0A@EA@_Crt_new_delete@std@@8 0000000180075dd0     libcpmt:locale0.obj
 0002:00013df8       ??_R3_Crt_new_delete@std@@8 0000000180075df8     libcpmt:locale0.obj
 0002:00013e10       ??_R2_Crt_new_delete@std@@8 0000000180075e10     libcpmt:locale0.obj
 0002:00013e20       ??_R1A@?0A@EA@_Crt_new_delete@std@@8 0000000180075e20     libcpmt:locale0.obj
 0002:00013e48       ??_R3codecvt_base@std@@8   0000000180075e48     libcpmt:locale.obj
 0002:00013e60       ??_R2codecvt_base@std@@8   0000000180075e60     libcpmt:locale.obj
 0002:00013e88       ??_R1A@?0A@EA@codecvt_base@std@@8 0000000180075e88     libcpmt:locale.obj
 0002:00013eb0       ??_R3ctype_base@std@@8     0000000180075eb0     libcpmt:locale.obj
 0002:00013ec8       ??_R2ctype_base@std@@8     0000000180075ec8     libcpmt:locale.obj
 0002:00013ef0       ??_R1A@?0A@EA@ctype_base@std@@8 0000000180075ef0     libcpmt:locale.obj
 0002:00013f18       ??_R4?$ctype@D@std@@6B@    0000000180075f18     libcpmt:locale.obj
 0002:00013f40       ??_R3?$ctype@D@std@@8      0000000180075f40     libcpmt:locale.obj
 0002:00013f58       ??_R2?$ctype@D@std@@8      0000000180075f58     libcpmt:locale.obj
 0002:00013f88       ??_R1A@?0A@EA@?$ctype@D@std@@8 0000000180075f88     libcpmt:locale.obj
 0002:00013fb0       ??_R4?$num_get@DV?$istreambuf_iterator@DU?$char_traits@D@std@@@std@@@std@@6B@ 0000000180075fb0     libcpmt:locale.obj
 0002:00013fd8       ??_R3?$num_get@DV?$istreambuf_iterator@DU?$char_traits@D@std@@@std@@@std@@8 0000000180075fd8     libcpmt:locale.obj
 0002:00013ff0       ??_R2?$num_get@DV?$istreambuf_iterator@DU?$char_traits@D@std@@@std@@@std@@8 0000000180075ff0     libcpmt:locale.obj
 0002:00014018       ??_R1A@?0A@EA@?$num_get@DV?$istreambuf_iterator@DU?$char_traits@D@std@@@std@@@std@@8 0000000180076018     libcpmt:locale.obj
 0002:00014040       ??_R4?$num_put@DV?$ostreambuf_iterator@DU?$char_traits@D@std@@@std@@@std@@6B@ 0000000180076040     libcpmt:locale.obj
 0002:00014068       ??_R3?$num_put@DV?$ostreambuf_iterator@DU?$char_traits@D@std@@@std@@@std@@8 0000000180076068     libcpmt:locale.obj
 0002:00014080       ??_R2?$num_put@DV?$ostreambuf_iterator@DU?$char_traits@D@std@@@std@@@std@@8 0000000180076080     libcpmt:locale.obj
 0002:000140a8       ??_R1A@?0A@EA@?$num_put@DV?$ostreambuf_iterator@DU?$char_traits@D@std@@@std@@@std@@8 00000001800760a8     libcpmt:locale.obj
 0002:000140d0       ??_R4?$numpunct@D@std@@6B@ 00000001800760d0     libcpmt:locale.obj
 0002:000140f8       ??_R3?$numpunct@D@std@@8   00000001800760f8     libcpmt:locale.obj
 0002:00014110       ??_R2?$numpunct@D@std@@8   0000000180076110     libcpmt:locale.obj
 0002:00014138       ??_R1A@?0A@EA@?$numpunct@D@std@@8 0000000180076138     libcpmt:locale.obj
 0002:00014160       ??_R4?$codecvt@DDU_Mbstatet@@@std@@6B@ 0000000180076160     libcpmt:locale.obj
 0002:00014188       ??_R3?$codecvt@DDU_Mbstatet@@@std@@8 0000000180076188     libcpmt:locale.obj
 0002:000141a0       ??_R2?$codecvt@DDU_Mbstatet@@@std@@8 00000001800761a0     libcpmt:locale.obj
 0002:000141d0       ??_R1A@?0A@EA@?$codecvt@DDU_Mbstatet@@@std@@8 00000001800761d0     libcpmt:locale.obj
 0002:000141f8       ??_R4type_info@@6B@        00000001800761f8     LIBCMT:std_type_info_static.obj
 0002:00014220       ??_R3type_info@@8          0000000180076220     LIBCMT:std_type_info_static.obj
 0002:00014238       ??_R2type_info@@8          0000000180076238     LIBCMT:std_type_info_static.obj
 0002:00014248       ??_R1A@?0A@EA@type_info@@8 0000000180076248     LIBCMT:std_type_info_static.obj
 0002:00014270       ??_R4bad_array_new_length@std@@6B@ 0000000180076270     LIBCMT:throw_bad_alloc.obj
 0002:00014298       ??_R3bad_array_new_length@std@@8 0000000180076298     LIBCMT:throw_bad_alloc.obj
 0002:000142b0       ??_R2bad_array_new_length@std@@8 00000001800762b0     LIBCMT:throw_bad_alloc.obj
 0002:000142d0       ??_R1A@?0A@EA@bad_array_new_length@std@@8 00000001800762d0     LIBCMT:throw_bad_alloc.obj
 0002:000142f8       ??_R4bad_exception@std@@6B@ 00000001800762f8     libvcruntime:frame.obj
 0002:00014320       ??_R3bad_exception@std@@8  0000000180076320     libvcruntime:frame.obj
 0002:00014338       ??_R2bad_exception@std@@8  0000000180076338     libvcruntime:frame.obj
 0002:00014350       ??_R1A@?0A@EA@bad_exception@std@@8 0000000180076350     libvcruntime:frame.obj
 0002:00014378       ?_TraceLoggingMetadata@?1??_TlgWrite@__vcrt_trace_logging_provider@@YAJPEBU_TlgProvider_t@2@PEFBXPEBU_GUID@@2IPEAU_EVENT_DATA_DESCRIPTOR@@@Z@4U_TraceLoggingMetadata_t@2@B 0000000180076378     libvcruntime:telemetry.obj
 0002:0001442b       ?_TraceLoggingMetadataEnd@?1??_TlgWrite@__vcrt_trace_logging_provider@@YAJPEBU_TlgProvider_t@2@PEFBXPEBU_GUID@@2IPEAU_EVENT_DATA_DESCRIPTOR@@@Z@4EB 000000018007642b     libvcruntime:telemetry.obj
 0002:000148d0       __rtc_iaa                  00000001800768d0     LIBCMT:_initsect_.obj
 0002:000148d8       __rtc_izz                  00000001800768d8     LIBCMT:_initsect_.obj
 0002:000148e0       __rtc_taa                  00000001800768e0     LIBCMT:_initsect_.obj
 0002:000148e8       __rtc_tzz                  00000001800768e8     LIBCMT:_initsect_.obj
 0002:000193c8       _TI2?AVbad_alloc@std@@     000000018007b3c8     libcpmt:xthrow.obj
 0002:000193e8       _CTA2?AVbad_alloc@std@@    000000018007b3e8     libcpmt:xthrow.obj
 0002:00019400       _CT??_R0?AVbad_alloc@std@@@8??0bad_alloc@std@@QEAA@AEBV01@@Z24 000000018007b400     libcpmt:xthrow.obj
 0002:00019428       _CT??_R0?AVexception@std@@@8??0exception@std@@QEAA@AEBV01@@Z24 000000018007b428     libcpmt:xthrow.obj
 0002:00019450       _CT??_R0?AVlogic_error@std@@@8??0logic_error@std@@QEAA@AEBV01@@Z24 000000018007b450     libcpmt:xthrow.obj
 0002:00019478       _TI3?AVlength_error@std@@  000000018007b478     libcpmt:xthrow.obj
 0002:00019498       _CTA3?AVlength_error@std@@ 000000018007b498     libcpmt:xthrow.obj
 0002:000194b8       _CT??_R0?AVlength_error@std@@@8??0length_error@std@@QEAA@AEBV01@@Z24 000000018007b4b8     libcpmt:xthrow.obj
 0002:000194e0       _TI3?AVout_of_range@std@@  000000018007b4e0     libcpmt:xthrow.obj
 0002:00019500       _CTA3?AVout_of_range@std@@ 000000018007b500     libcpmt:xthrow.obj
 0002:00019520       _CT??_R0?AVout_of_range@std@@@8??0out_of_range@std@@QEAA@AEBV01@@Z24 000000018007b520     libcpmt:xthrow.obj
 0002:00019548       _TI2?AVbad_function_call@std@@ 000000018007b548     libcpmt:xthrow.obj
 0002:00019568       _CTA2?AVbad_function_call@std@@ 000000018007b568     libcpmt:xthrow.obj
 0002:00019580       _CT??_R0?AVbad_function_call@std@@@8??0bad_function_call@std@@QEAA@AEBV01@@Z24 000000018007b580     libcpmt:xthrow.obj
 0002:000195a8       _TI3?AVbad_array_new_length@std@@ 000000018007b5a8     LIBCMT:throw_bad_alloc.obj
 0002:000195c8       _CTA3?AVbad_array_new_length@std@@ 000000018007b5c8     LIBCMT:throw_bad_alloc.obj
 0002:000195e8       _CT??_R0?AVbad_array_new_length@std@@@8??0bad_array_new_length@std@@QEAA@AEBV01@@Z24 000000018007b5e8     LIBCMT:throw_bad_alloc.obj
 0002:00019610       _TI2?AVbad_exception@std@@ 000000018007b610     libvcruntime:frame.obj
 0002:00019630       _CTA2?AVbad_exception@std@@ 000000018007b630     libvcruntime:frame.obj
 0002:00019648       _CT??_R0?AVbad_exception@std@@@8??0bad_exception@std@@QEAA@AEBV01@@Z24 000000018007b648     libvcruntime:frame.obj
 0002:000196d4       __IMPORT_DESCRIPTOR_KERNEL32 000000018007b6d4     kernel32:KERNEL32.dll
 0002:000196e8       __IMPORT_DESCRIPTOR_node   000000018007b6e8     iojs:node.dll
 0002:000196fc       __IMPORT_DESCRIPTOR_steam_api64 000000018007b6fc     steam_api64:steam_api64.dll
 0002:00019710       __IMPORT_DESCRIPTOR_sdkencryptedappticket64 000000018007b710     sdkencryptedappticket64:sdkencryptedappticket64.dll
 0002:00019724       __IMPORT_DESCRIPTOR_ADVAPI32 000000018007b724     advapi32:ADVAPI32.dll
 0002:00019738       __NULL_IMPORT_DESCRIPTOR   000000018007b738     kernel32:KERNEL32.dll
 0003:00000004       ?_Sync@ios_base@std@@0_NA  000000018007e004     libcpmt:ios.obj
 0003:00000020       ?_PJP_CPP_Copyright@@3PADA 000000018007e020     libcpmt:iosptrs.obj
 0003:00000078       _FDenorm                   000000018007e078     libcpmt:xfvalues.obj
 0003:00000088       _FInf                      000000018007e088     libcpmt:xfvalues.obj
 0003:00000098       _FNan                      000000018007e098     libcpmt:xfvalues.obj
 0003:000000a8       _FSnan                     000000018007e0a8     libcpmt:xfvalues.obj
 0003:000000b8       _FEps                      000000018007e0b8     libcpmt:xfvalues.obj
 0003:000000c8       _FRteps                    000000018007e0c8     libcpmt:xfvalues.obj
 0003:000000d8       _FXbig                     000000018007e0d8     libcpmt:xfvalues.obj
 0003:000000e0       _Denorm                    000000018007e0e0     libcpmt:xvalues.obj
 0003:000000f0       _Hugeval                   000000018007e0f0     libcpmt:xvalues.obj
 0003:00000100       _Inf                       000000018007e100     libcpmt:xvalues.obj
 0003:00000110       _Nan                       000000018007e110     libcpmt:xvalues.obj
 0003:00000120       _Snan                      000000018007e120     libcpmt:xvalues.obj
 0003:00000130       _Eps                       000000018007e130     libcpmt:xvalues.obj
 0003:00000140       _Rteps                     000000018007e140     libcpmt:xvalues.obj
 0003:00000150       _Xbig                      000000018007e150     libcpmt:xvalues.obj
 0003:00000158       _LDenorm                   000000018007e158     libcpmt:xlvalues.obj
 0003:00000168       _LInf                      000000018007e168     libcpmt:xlvalues.obj
 0003:00000178       _LNan                      000000018007e178     libcpmt:xlvalues.obj
 0003:00000188       _LSnan                     000000018007e188     libcpmt:xlvalues.obj
 0003:00000198       _LEps                      000000018007e198     libcpmt:xlvalues.obj
 0003:000001a8       _LRteps                    000000018007e1a8     libcpmt:xlvalues.obj
 0003:000001b8       _LXbig                     000000018007e1b8     libcpmt:xlvalues.obj
 0003:000001c0       _Init_global_epoch         000000018007e1c0     LIBCMT:thread_safe_statics.obj
 0003:000001c4       __scrt_native_dllmain_reason 000000018007e1c4     LIBCMT:utility.obj
 0003:000001c8       __security_cookie          000000018007e1c8     LIBCMT:gs_cookie.obj
 0003:000001d0       __security_cookie_complement 000000018007e1d0     LIBCMT:gs_cookie.obj
 0003:000001d8       _fltused                   000000018007e1d8     LIBCMT:fltused.obj
 0003:000001e0       __isa_available            000000018007e1e0     LIBCMT:_cpu_disp_.obj
 0003:000001e4       __isa_enabled              000000018007e1e4     LIBCMT:_cpu_disp_.obj
 0003:000001e8       __memcpy_nt_iters          000000018007e1e8     LIBCMT:_cpu_disp_.obj
 0003:00000250       __abort_behavior           000000018007e250     libucrt:abort.obj
 0003:00000260       __acrt_lconv_c             000000018007e260     libucrt:localeconv.obj
 0003:000002f8       __acrt_lconv               000000018007e2f8     libucrt:localeconv.obj
 0003:00000300       __acrt_lconv_static_decimal 000000018007e300     libucrt:localeconv.obj
 0003:00000304       __acrt_lconv_static_W_decimal 000000018007e304     libucrt:localeconv.obj
 0003:00000320       _iob                       000000018007e320     libucrt:_file.obj
 0003:00000428       _pctype                    000000018007e428     libucrt:ctype.obj
 0003:00000430       _pwctype                   000000018007e430     libucrt:ctype.obj
 0003:00000450       __acrt_initial_locale_data 000000018007e450     libucrt:nlsdata.obj
 0003:000005a8       __acrt_initial_locale_pointers 000000018007e5a8     libucrt:nlsdata.obj
 0003:000005b8       __acrt_wide_c_locale_string 000000018007e5b8     libucrt:nlsdata.obj
 0003:000005bc       __mb_cur_max               000000018007e5bc     libucrt:nlsdata.obj
 0003:000005c0       __badioinfo                000000018007e5c0     libucrt:ioinit.obj
 0003:00000610       _lookuptrailbytes          000000018007e610     libucrt:read.obj
 0003:00000710       __globallocalestatus       000000018007e710     libucrt:glstatus.obj
 0003:000007d0       __acrt_initial_multibyte_data 000000018007e7d0     libucrt:mbctype.obj
 0003:000009f8       __acrt_current_multibyte_data 000000018007e9f8     libucrt:mbctype.obj
 0003:00000b00       _mbctype                   000000018007eb00     libucrt:mbctype.obj
 0003:00000c10       _mbcasemap                 000000018007ec10     libucrt:mbctype.obj
 0003:00000d10       __dcrt_lowio_console_output_handle 000000018007ed10     libucrt:initcon.obj
 0003:00000d20       ?s_CallbackCounterAndContext@?1??SteamInternal_ModuleContext@@YAAEAVCSteamAPIContext@@XZ@4PAPEAXA 000000018007ed20     steam_api_achievement.obj
 0003:00000e80       ??_R0?AVbad_alloc@std@@@8  000000018007ee80     libcpmt:xthrow.obj
 0003:00000ea8       ??_R0?AVexception@std@@@8  000000018007eea8     libcpmt:xthrow.obj
 0003:00000ed0       ??_R0?AVlogic_error@std@@@8 000000018007eed0     libcpmt:xthrow.obj
 0003:00000ef8       ??_R0?AVlength_error@std@@@8 000000018007eef8     libcpmt:xthrow.obj
 0003:00000f20       ??_R0?AVout_of_range@std@@@8 000000018007ef20     libcpmt:xthrow.obj
 0003:00000f48       ??_R0?AVruntime_error@std@@@8 000000018007ef48     libcpmt:xthrow.obj
 0003:00000f70       ??_R0?AVbad_function_call@std@@@8 000000018007ef70     libcpmt:xthrow.obj
 0003:00000fa0       ??_R0?AV_Facet_base@std@@@8 000000018007efa0     libcpmt:locale0.obj
 0003:00000fc8       ??_R0?AV_Locimp@locale@std@@@8 000000018007efc8     libcpmt:locale0.obj
 0003:00000ff8       ??_R0?AVfacet@locale@std@@@8 000000018007eff8     libcpmt:locale0.obj
 0003:00001020       ??_R0?AU_Crt_new_delete@std@@@8 000000018007f020     libcpmt:locale0.obj
 0003:00001050       ??_R0?AVcodecvt_base@std@@@8 000000018007f050     libcpmt:locale.obj
 0003:00001078       ??_R0?AUctype_base@std@@@8 000000018007f078     libcpmt:locale.obj
 0003:000010a0       ??_R0?AV?$ctype@D@std@@@8  000000018007f0a0     libcpmt:locale.obj
 0003:000010d0       ??_R0?AV?$num_get@DV?$istreambuf_iterator@DU?$char_traits@D@std@@@std@@@std@@@8 000000018007f0d0     libcpmt:locale.obj
 0003:00001130       ??_R0?AV?$num_put@DV?$ostreambuf_iterator@DU?$char_traits@D@std@@@std@@@std@@@8 000000018007f130     libcpmt:locale.obj
 0003:00001190       ??_R0?AV?$numpunct@D@std@@@8 000000018007f190     libcpmt:locale.obj
 0003:000011b8       ??_R0?AV?$codecvt@DDU_Mbstatet@@@std@@@8 000000018007f1b8     libcpmt:locale.obj
 0003:000011f0       ??_R0?AVtype_info@@@8      000000018007f1f0     LIBCMT:std_type_info_static.obj
 0003:00001210       ??_R0?AVbad_array_new_length@std@@@8 000000018007f210     LIBCMT:throw_bad_alloc.obj
 0003:00001240       ??_R0?AVbad_exception@std@@@8 000000018007f240     libvcruntime:frame.obj
 0003:00001268       ??_R0P6AXV?$Local@VObject@v8@@@v8@@@Z@8 000000018007f268     greenworks_api_utils.obj
 0003:000013f0       ?_Id_cnt@id@locale@std@@0HA 000000018007f3f0     libcpmt:locale0.obj
 0003:000013f8       ?_Clocptr@_Locimp@locale@std@@0PEAV123@EA 000000018007f3f8     libcpmt:locale0.obj
 0003:00001410       ?id@?$ctype@_W@std@@2V0locale@2@A 000000018007f410     libcpmt:locale0.obj
 0003:00001418       ?id@?$ctype@D@std@@2V0locale@2@A 000000018007f418     libcpmt:locale0.obj
 0003:00001420       ?id@?$codecvt@GDU_Mbstatet@@@std@@2V0locale@2@A 000000018007f420     libcpmt:locale0.obj
 0003:00001428       ?id@?$ctype@G@std@@2V0locale@2@A 000000018007f428     libcpmt:locale0.obj
 0003:00001440       ?id@?$codecvt@_WDU_Mbstatet@@@std@@2V0locale@2@A 000000018007f440     libcpmt:locale0.obj
 0003:000014ac       ?_Index@ios_base@std@@0HA  000000018007f4ac     libcpmt:ios.obj
 0003:000014b0       ?_Raise_handler@std@@3P6AXAEBVexception@stdext@@@ZEA 000000018007f4b0     libcpmt:raisehan.obj
 0003:000014c0       ?_Ptr_cin@std@@3PEAV?$basic_istream@DU?$char_traits@D@std@@@1@EA 000000018007f4c0     libcpmt:iosptrs.obj
 0003:000014c8       ?_Ptr_cout@std@@3PEAV?$basic_ostream@DU?$char_traits@D@std@@@1@EA 000000018007f4c8     libcpmt:iosptrs.obj
 0003:00001520       ?_Ptr_cerr@std@@3PEAV?$basic_ostream@DU?$char_traits@D@std@@@1@EA 000000018007f520     libcpmt:iosptrs.obj
 0003:00001528       ?_Ptr_clog@std@@3PEAV?$basic_ostream@DU?$char_traits@D@std@@@1@EA 000000018007f528     libcpmt:iosptrs.obj
 0003:00001530       ?_Ptr_wcin@std@@3PEAV?$basic_istream@_WU?$char_traits@_W@std@@@1@EA 000000018007f530     libcpmt:iosptrs.obj
 0003:00001538       ?_Ptr_wcout@std@@3PEAV?$basic_ostream@_WU?$char_traits@_W@std@@@1@EA 000000018007f538     libcpmt:iosptrs.obj
 0003:00001540       ?_Ptr_wcerr@std@@3PEAV?$basic_ostream@_WU?$char_traits@_W@std@@@1@EA 000000018007f540     libcpmt:iosptrs.obj
 0003:00001548       ?_Ptr_wclog@std@@3PEAV?$basic_ostream@_WU?$char_traits@_W@std@@@1@EA 000000018007f548     libcpmt:iosptrs.obj
 0003:00001554       _FZero                     000000018007f554     libcpmt:xfvalues.obj
 0003:00001558       _Zero                      000000018007f558     libcpmt:xvalues.obj
 0003:00001560       _LZero                     000000018007f560     libcpmt:xlvalues.obj
 0003:00001570       __encodedKERNEL32Functions 000000018007f570     libcpmt:winapisupp.obj
 0003:000016b0       ?id@?$time_put@_WV?$ostreambuf_iterator@_WU?$char_traits@_W@std@@@std@@@std@@2V0locale@2@A 000000018007f6b0     libcpmt:wlocale.obj
 0003:000016b8       ?id@?$num_get@_WV?$istreambuf_iterator@_WU?$char_traits@_W@std@@@std@@@std@@2V0locale@2@A 000000018007f6b8     libcpmt:wlocale.obj
 0003:000016c0       ?id@?$num_put@_WV?$ostreambuf_iterator@_WU?$char_traits@_W@std@@@std@@@std@@2V0locale@2@A 000000018007f6c0     libcpmt:wlocale.obj
 0003:000016c8       ?id@?$numpunct@_W@std@@2V0locale@2@A 000000018007f6c8     libcpmt:wlocale.obj
 0003:000016d0       ?id@?$collate@_W@std@@2V0locale@2@A 000000018007f6d0     libcpmt:wlocale.obj
 0003:000016d8       ?id@?$messages@_W@std@@2V0locale@2@A 000000018007f6d8     libcpmt:wlocale.obj
 0003:000016e0       ?id@?$money_get@_WV?$istreambuf_iterator@_WU?$char_traits@_W@std@@@std@@@std@@2V0locale@2@A 000000018007f6e0     libcpmt:wlocale.obj
 0003:000016e8       ?id@?$money_put@_WV?$ostreambuf_iterator@_WU?$char_traits@_W@std@@@std@@@std@@2V0locale@2@A 000000018007f6e8     libcpmt:wlocale.obj
 0003:000016f0       ?id@?$moneypunct@_W$0A@@std@@2V0locale@2@A 000000018007f6f0     libcpmt:wlocale.obj
 0003:000016f8       ?id@?$moneypunct@_W$00@std@@2V0locale@2@A 000000018007f6f8     libcpmt:wlocale.obj
 0003:00001700       ?id@?$time_get@_WV?$istreambuf_iterator@_WU?$char_traits@_W@std@@@std@@@std@@2V0locale@2@A 000000018007f700     libcpmt:wlocale.obj
 0003:00001708       ?id@?$num_get@GV?$istreambuf_iterator@GU?$char_traits@G@std@@@std@@@std@@2V0locale@2@A 000000018007f708     libcpmt:wlocale.obj
 0003:00001710       ?id@?$num_put@GV?$ostreambuf_iterator@GU?$char_traits@G@std@@@std@@@std@@2V0locale@2@A 000000018007f710     libcpmt:wlocale.obj
 0003:00001718       ?id@?$numpunct@G@std@@2V0locale@2@A 000000018007f718     libcpmt:wlocale.obj
 0003:00001720       ?id@?$collate@G@std@@2V0locale@2@A 000000018007f720     libcpmt:wlocale.obj
 0003:00001728       ?id@?$messages@G@std@@2V0locale@2@A 000000018007f728     libcpmt:wlocale.obj
 0003:00001730       ?id@?$money_get@GV?$istreambuf_iterator@GU?$char_traits@G@std@@@std@@@std@@2V0locale@2@A 000000018007f730     libcpmt:wlocale.obj
 0003:00001738       ?id@?$money_put@GV?$ostreambuf_iterator@GU?$char_traits@G@std@@@std@@@std@@2V0locale@2@A 000000018007f738     libcpmt:wlocale.obj
 0003:00001740       ?id@?$moneypunct@G$0A@@std@@2V0locale@2@A 000000018007f740     libcpmt:wlocale.obj
 0003:00001748       ?id@?$moneypunct@G$00@std@@2V0locale@2@A 000000018007f748     libcpmt:wlocale.obj
 0003:00001750       ?id@?$time_get@GV?$istreambuf_iterator@GU?$char_traits@G@std@@@std@@@std@@2V0locale@2@A 000000018007f750     libcpmt:wlocale.obj
 0003:00001758       ?id@?$time_put@GV?$ostreambuf_iterator@GU?$char_traits@G@std@@@std@@@std@@2V0locale@2@A 000000018007f758     libcpmt:wlocale.obj
 0003:00001760       ?id@?$collate@D@std@@2V0locale@2@A 000000018007f760     libcpmt:xlocale.obj
 0003:00001768       ?id@?$messages@D@std@@2V0locale@2@A 000000018007f768     libcpmt:xlocale.obj
 0003:00001770       ?id@?$money_get@DV?$istreambuf_iterator@DU?$char_traits@D@std@@@std@@@std@@2V0locale@2@A 000000018007f770     libcpmt:xlocale.obj
 0003:00001778       ?id@?$money_put@DV?$ostreambuf_iterator@DU?$char_traits@D@std@@@std@@@std@@2V0locale@2@A 000000018007f778     libcpmt:xlocale.obj
 0003:00001780       ?id@?$moneypunct@D$0A@@std@@2V0locale@2@A 000000018007f780     libcpmt:xlocale.obj
 0003:00001788       ?id@?$moneypunct@D$00@std@@2V0locale@2@A 000000018007f788     libcpmt:xlocale.obj
 0003:00001790       ?id@?$time_get@DV?$istreambuf_iterator@DU?$char_traits@D@std@@@std@@@std@@2V0locale@2@A 000000018007f790     libcpmt:xlocale.obj
 0003:00001798       ?id@?$time_put@DV?$ostreambuf_iterator@DU?$char_traits@D@std@@@std@@@std@@2V0locale@2@A 000000018007f798     libcpmt:xlocale.obj
 0003:000017e8       __scrt_current_native_startup_state 000000018007f7e8     LIBCMT:utility.obj
 0003:000017f0       __scrt_native_startup_lock 000000018007f7f0     LIBCMT:utility.obj
 0003:00001da4       __scrt_debugger_hook_flag  000000018007fda4     LIBCMT:utility_desktop.obj
 0003:00001da8       _tls_index                 000000018007fda8     LIBCMT:tlssup.obj
 0003:00001dac       __favor                    000000018007fdac     LIBCMT:_cpu_disp_.obj
 0003:00001db0       ?__type_info_root_node@@3U__type_info_node@@A 000000018007fdb0     LIBCMT:tncleanup.obj
 0003:00001dc0       ?_OptionsStorage@?1??__local_stdio_scanf_options@@9@4_KA 000000018007fdc0     LIBCMT:default_local_stdio_options.obj
 0003:00001dc8       ?g_OutOfMemoryExceptionCallback@@3P6APEAXXZEA 000000018007fdc8     libvcruntime:frame.obj
 0003:00001e38       __pPurecall                000000018007fe38     libvcruntime:purevirt_data.obj
 0003:00001ee8       ?pArgList@UnDecorator@@0PEAVReplicator@@EA 000000018007fee8     libvcruntime:undname.obj
 0003:00001ef0       ?pZNameList@UnDecorator@@0PEAVReplicator@@EA 000000018007fef0     libvcruntime:undname.obj
 0003:00001ef8       ?pTemplateArgList@UnDecorator@@0PEAVReplicator@@EA 000000018007fef8     libvcruntime:undname.obj
 0003:00001f00       ?gName@UnDecorator@@0PEBDEB 000000018007ff00     libvcruntime:undname.obj
 0003:00001f08       ?name@UnDecorator@@0PEBDEB 000000018007ff08     libvcruntime:undname.obj
 0003:00001f10       ?outputString@UnDecorator@@0PEADEA 000000018007ff10     libvcruntime:undname.obj
 0003:00001f18       ?maxStringLength@UnDecorator@@0HA 000000018007ff18     libvcruntime:undname.obj
 0003:00001f1c       ?disableFlags@UnDecorator@@0KA 000000018007ff1c     libvcruntime:undname.obj
 0003:00001f20       ?fExplicitTemplateParams@UnDecorator@@0_NA 000000018007ff20     libvcruntime:undname.obj
 0003:00001f21       ?fGetTemplateArgumentList@UnDecorator@@0_NA 000000018007ff21     libvcruntime:undname.obj
 0003:00001f28       ?m_pGetParameter@UnDecorator@@0P6APEADJ@ZEA 000000018007ff28     libvcruntime:undname.obj
 0003:00001f60       __acrt_lconv_static_null   000000018007ff60     libucrt:localeconv.obj
 0003:00001f64       __acrt_lconv_static_W_null 000000018007ff64     libucrt:localeconv.obj
 0003:00001f68       _nstream                   000000018007ff68     libucrt:_file.obj
 0003:00001f70       __piob                     000000018007ff70     libucrt:_file.obj
 0003:00001f78       _cflush                    000000018007ff78     libucrt:_file.obj
 0003:000021a8       _environ_table             00000001800801a8     libucrt:environment_initialization.obj
 0003:000021b0       _wenviron_table            00000001800801b0     libucrt:environment_initialization.obj
 0003:000021b8       __dcrt_initial_wide_environment 00000001800801b8     libucrt:environment_initialization.obj
 0003:000021c0       __dcrt_initial_narrow_environment 00000001800801c0     libucrt:environment_initialization.obj
 0003:000021c8       __acrt_atexit_table        00000001800801c8     libucrt:onexit.obj
 0003:000021e0       __acrt_at_quick_exit_table 00000001800801e0     libucrt:onexit.obj
 0003:00002228       __acrt_stdout_buffer       0000000180080228     libucrt:_sftbuf.obj
 0003:00002230       __acrt_stderr_buffer       0000000180080230     libucrt:_sftbuf.obj
 0003:00002238       __acrt_locale_changed_data 0000000180080238     libucrt:wsetlocale.obj
 0003:00002240       __acrt_current_locale_data 0000000180080240     libucrt:nlsdata.obj
 0003:00002250       __pioinfo                  0000000180080250     libucrt:ioinit.obj
 0003:00002650       _nhandle                   0000000180080650     libucrt:ioinit.obj
 0003:00002810       __acrt_heap                0000000180080810     libucrt:heap_handle.obj
 0003:00002818       ?_timezone@@3V?$dual_state_global@J@__crt_state_management@@A 0000000180080818     libucrt:timeset.obj
 0003:0000281c       ?_daylight@@3V?$dual_state_global@H@__crt_state_management@@A 000000018008081c     libucrt:timeset.obj
 0003:00002820       ?_dstbias@@3V?$dual_state_global@J@__crt_state_management@@A 0000000180080820     libucrt:timeset.obj
 0003:00002900       __mbcodepage               0000000180080900     libucrt:mbctype.obj
 0003:00002904       __ismbcodepage             0000000180080904     libucrt:mbctype.obj
 0003:00002908       __mbulinfo                 0000000180080908     libucrt:mbctype.obj
 0003:00002918       __mblocalename             0000000180080918     libucrt:mbctype.obj
 0003:00002928       __argv                     0000000180080928     libucrt:argv_data.obj
 0003:00002930       __wargv                    0000000180080930     libucrt:argv_data.obj
 0003:00002938       _acmdln                    0000000180080938     libucrt:argv_data.obj
 0003:00002940       _wcmdln                    0000000180080940     libucrt:argv_data.obj
 0003:00002950       _commode                   0000000180080950     libucrt:ncommode.obj
 0003:00002954       _umaskval                  0000000180080954     libucrt:umask.obj
 0003:00002958       _fmode                     0000000180080958     libucrt:txtmode.obj
 0003:0000295c       __fma3_is_available        000000018008095c     libucrt:fma3_available.obj
 0003:00002960       __use_fma3_lib             0000000180080960     libucrt:fma3_available.obj
 0003:00002964       ?$TSS0@?1??GetInstance@SteamAPIRegistry@api@greenworks@@SAPEAV234@XZ@4HA 0000000180080964     greenworks_api_utils.obj
 0003:00002968       ?steam_api_registry@?1??GetInstance@SteamAPIRegistry@api@greenworks@@SAPEAV234@XZ@4V234@A 0000000180080968     greenworks_api_utils.obj
 0003:00002980       ?_Static@?1???$_Immortalize@V_Iostream_error_category@std@@@std@@YAAEAV_Iostream_error_category@1@XZ@4U?$_Immortalizer@V_Iostream_error_category@std@@@1@A 0000000180080980     steam_api_settings.obj
 0003:00002990       ?$TSS0@?1???$_Immortalize@V_Iostream_error_category@std@@@std@@YAAEAV_Iostream_error_category@1@XZ@4HA 0000000180080990     steam_api_settings.obj
 0003:00002998       ?_OptionsStorage@?1??__local_stdio_printf_options@@9@4_KA 0000000180080998     steam_api_settings.obj
 0003:000029a0       ?_Psave@?$_Facetptr@V?$numpunct@D@std@@@std@@2PEBVfacet@locale@2@EB 00000001800809a0     steam_api_settings.obj
 0003:000029a8       ?_Psave@?$_Facetptr@V?$num_put@DV?$ostreambuf_iterator@DU?$char_traits@D@std@@@std@@@std@@@std@@2PEBVfacet@locale@2@EB 00000001800809a8     steam_api_settings.obj
 0003:000029b0       ?_Psave@?$_Facetptr@V?$ctype@D@std@@@std@@2PEBVfacet@locale@2@EB 00000001800809b0     steam_api_settings.obj
 0003:000029b8       ?_Psave@?$_Facetptr@V?$codecvt@DDU_Mbstatet@@@std@@@std@@2PEBVfacet@locale@2@EB 00000001800809b8     greenworks_utils.obj
 0003:000029c0       ?_Psave@?$_Facetptr@V?$num_get@DV?$istreambuf_iterator@DU?$char_traits@D@std@@@std@@@std@@@std@@2PEBVfacet@locale@2@EB 00000001800809c0     greenworks_utils.obj
 0003:000029c8       ?g_steam_client@?A0xca9b7f1f@greenworks@@3PEAVSteamClient@2@EA 00000001800809c8     steam_client.obj
 0003:000029d0       ?g_steam_timer@?A0xca9b7f1f@greenworks@@3PEAUuv_timer_s@@EA 00000001800809d0     steam_client.obj
 0003:000029dc       ?X@?A0x03570d69@api@greenworks@@3VAdd@SteamAPIRegistry@23@A 00000001800809dc     greenworks_api_utils.obj
 0003:000029dd       ?X@?A0x3d8aa09c@api@greenworks@@3VAdd@SteamAPIRegistry@23@A 00000001800809dd     steam_api_achievement.obj
 0003:000029de       ?X@?A0xeb4a7f0e@api@greenworks@@3VAdd@SteamAPIRegistry@23@A 00000001800809de     steam_api_auth.obj
 0003:000029df       ?X@?A0x452d44e3@api@greenworks@@3VAdd@SteamAPIRegistry@23@A 00000001800809df     steam_api_cloud.obj
 0003:000029e0       ?X@?A0xf2ee2f33@api@greenworks@@3VAdd@SteamAPIRegistry@23@A 00000001800809e0     steam_api_dlc.obj
 0003:000029e1       ?X@?A0x441f1908@api@greenworks@@3VAdd@SteamAPIRegistry@23@A 00000001800809e1     steam_api_friends.obj
 0003:000029e2       ?X@?A0xa5dd25c1@api@greenworks@@3VAdd@SteamAPIRegistry@23@A 00000001800809e2     steam_api_settings.obj
 0003:000029e3       ?X@?A0x0f10cf66@api@greenworks@@3VAdd@SteamAPIRegistry@23@A 00000001800809e3     steam_api_stats.obj
 0003:000029e4       ?X@?A0x1f4b5bb9@api@greenworks@@3VAdd@SteamAPIRegistry@23@A 00000001800809e4     steam_api_workshop.obj
 0003:000029e8       ?g_persistent_steam_events@?A0xdf905945@@3V?$Persistent@VObject@v8@@V?$NonCopyablePersistentTraits@VObject@v8@@@2@@Nan@@A 00000001800809e8     greenworks_api.obj
 0003:000029f0       ?id@?$num_put@DV?$ostreambuf_iterator@DU?$char_traits@D@std@@@std@@@std@@2V0locale@2@A 00000001800809f0     steam_api_settings.obj
 0003:000029f8       ?id@?$numpunct@D@std@@2V0locale@2@A 00000001800809f8     steam_api_settings.obj
 0003:00002a00       ?id@?$num_get@DV?$istreambuf_iterator@DU?$char_traits@D@std@@@std@@@std@@2V0locale@2@A 0000000180080a00     greenworks_utils.obj
 0003:00002a08       ?_Stinit@?1??_Init@?$basic_filebuf@DU?$char_traits@D@std@@@std@@IEAAXPEAU_iobuf@@W4_Initfl@23@@Z@4U_Mbstatet@@A 0000000180080a08     greenworks_utils.obj
 0003:00002a10       ?id@?$codecvt@DDU_Mbstatet@@@std@@2V0locale@2@A 0000000180080a10     greenworks_utils.obj
 0003:00002a18       __dyn_tls_init_callback    0000000180080a18     <common>
 0003:00002a20       __scrt_ucrt_dll_is_in_use  0000000180080a20     <common>
 0005:00000000       _tls_start                 0000000180086000     LIBCMT:tlssup.obj
 0005:00000004       _Init_thread_epoch         0000000180086004     LIBCMT:thread_safe_statics.obj
 0005:00000008       _tls_end                   0000000180086008     LIBCMT:tlssup.obj

 entry point at        0001:0003f078

 Static symbols

 0000:fff76000       .debug$S                   0000000180000000     kernel32:KERNEL32.dll
 0000:fff76000       .debug$S                   0000000180000000     greenworks-win64.exp
 0000:fff76000       .debug$S                   0000000180000000     kernel32:KERNEL32.dll
 0000:fff76000       .debug$S                   0000000180000000     kernel32:KERNEL32.dll
 0000:fff76000       .debug$S                   0000000180000000     kernel32:KERNEL32.dll
 0000:fff76000       .debug$S                   0000000180000000     kernel32:KERNEL32.dll
 0000:fff76000       .debug$S                   0000000180000000     kernel32:KERNEL32.dll
 0000:fff76000       .debug$S                   0000000180000000     kernel32:KERNEL32.dll
 0000:fff76000       .debug$S                   0000000180000000     kernel32:KERNEL32.dll
 0000:fff76000       .debug$S                   0000000180000000     kernel32:KERNEL32.dll
 0000:fff76000       .debug$S                   0000000180000000     kernel32:KERNEL32.dll
 0000:fff76000       .debug$S                   0000000180000000     kernel32:KERNEL32.dll
 0000:fff76000       .debug$S                   0000000180000000     kernel32:KERNEL32.dll
 0000:fff76000       .debug$S                   0000000180000000     kernel32:KERNEL32.dll
 0000:fff76000       .debug$S                   0000000180000000     kernel32:KERNEL32.dll
 0000:fff76000       .debug$S                   0000000180000000     kernel32:KERNEL32.dll
 0000:fff76000       .debug$S                   0000000180000000     kernel32:KERNEL32.dll
 0000:fff76000       .debug$S                   0000000180000000     kernel32:KERNEL32.dll
 0000:fff76000       .debug$S                   0000000180000000     kernel32:KERNEL32.dll
 0000:fff76000       .debug$S                   0000000180000000     kernel32:KERNEL32.dll
 0000:fff76000       .debug$S                   0000000180000000     kernel32:KERNEL32.dll
 0000:fff76000       .debug$S                   0000000180000000     kernel32:KERNEL32.dll
 0000:fff76000       .debug$S                   0000000180000000     kernel32:KERNEL32.dll
 0000:fff76000       .debug$S                   0000000180000000     kernel32:KERNEL32.dll
 0000:fff76000       .debug$S                   0000000180000000     kernel32:KERNEL32.dll
 0000:fff76000       .debug$S                   0000000180000000     sdkencryptedappticket64:sdkencryptedappticket64.dll
 0000:fff76000       .debug$S                   0000000180000000     kernel32:KERNEL32.dll
 0000:fff76000       .debug$S                   0000000180000000     kernel32:KERNEL32.dll
 0000:fff76000       .debug$S                   0000000180000000     kernel32:KERNEL32.dll
 0000:fff76000       .debug$S                   0000000180000000     kernel32:KERNEL32.dll
 0000:fff76000       .debug$S                   0000000180000000     kernel32:KERNEL32.dll
 0000:fff76000       .debug$S                   0000000180000000     kernel32:KERNEL32.dll
 0000:fff76000       .debug$S                   0000000180000000     kernel32:KERNEL32.dll
 0000:fff76000       .debug$S                   0000000180000000     kernel32:KERNEL32.dll
 0000:fff76000       .debug$S                   0000000180000000     kernel32:KERNEL32.dll
 0000:fff76000       .debug$S                   0000000180000000     kernel32:KERNEL32.dll
 0000:fff76000       .debug$S                   0000000180000000     kernel32:KERNEL32.dll
 0000:fff76000       .debug$S                   0000000180000000     kernel32:KERNEL32.dll
 0000:fff76000       .debug$S                   0000000180000000     kernel32:KERNEL32.dll
 0000:fff76000       .debug$S                   0000000180000000     kernel32:KERNEL32.dll
 0000:fff76000       .debug$S                   0000000180000000     kernel32:KERNEL32.dll
 0000:fff76000       .debug$S                   0000000180000000     kernel32:KERNEL32.dll
 0000:fff76000       .debug$S                   0000000180000000     kernel32:KERNEL32.dll
 0000:fff76000       .debug$S                   0000000180000000     kernel32:KERNEL32.dll
 0000:fff76000       .debug$S                   0000000180000000     kernel32:KERNEL32.dll
 0000:fff76000       .debug$S                   0000000180000000     kernel32:KERNEL32.dll
 0000:fff76000       .debug$S                   0000000180000000     kernel32:KERNEL32.dll
 0000:fff76000       .debug$S                   0000000180000000     kernel32:KERNEL32.dll
 0000:fff76000       .debug$S                   0000000180000000     kernel32:KERNEL32.dll
 0000:fff76000       .debug$S                   0000000180000000     kernel32:KERNEL32.dll
 0000:fff76000       .debug$S                   0000000180000000     kernel32:KERNEL32.dll
 0000:fff76000       .debug$S                   0000000180000000     kernel32:KERNEL32.dll
 0000:fff76000       .debug$S                   0000000180000000     kernel32:KERNEL32.dll
 0000:fff76000       .debug$S                   0000000180000000     kernel32:KERNEL32.dll
 0000:fff76000       .debug$S                   0000000180000000     kernel32:KERNEL32.dll
 0000:fff76000       .debug$S                   0000000180000000     kernel32:KERNEL32.dll
 0000:fff76000       .debug$S                   0000000180000000     kernel32:KERNEL32.dll
 0000:fff76000       .debug$S                   0000000180000000     kernel32:KERNEL32.dll
 0000:fff76000       .debug$S                   0000000180000000     kernel32:KERNEL32.dll
 0000:fff76000       .debug$S                   0000000180000000     kernel32:KERNEL32.dll
 0000:fff76000       .debug$S                   0000000180000000     kernel32:KERNEL32.dll
 0000:fff76000       .debug$S                   0000000180000000     kernel32:KERNEL32.dll
 0000:fff76000       .debug$S                   0000000180000000     kernel32:KERNEL32.dll
 0000:fff76000       .debug$S                   0000000180000000     kernel32:KERNEL32.dll
 0000:fff76000       .debug$S                   0000000180000000     kernel32:KERNEL32.dll
 0000:fff76000       .debug$S                   0000000180000000     kernel32:KERNEL32.dll
 0000:fff76000       .debug$S                   0000000180000000     kernel32:KERNEL32.dll
 0000:fff76000       .debug$S                   0000000180000000     kernel32:KERNEL32.dll
 0000:fff76000       .debug$S                   0000000180000000     kernel32:KERNEL32.dll
 0000:fff76000       .debug$S                   0000000180000000     kernel32:KERNEL32.dll
 0000:fff76000       .debug$S                   0000000180000000     kernel32:KERNEL32.dll
 0000:fff76000       .debug$S                   0000000180000000     kernel32:KERNEL32.dll
 0000:fff76000       .debug$S                   0000000180000000     kernel32:KERNEL32.dll
 0000:fff76000       .debug$S                   0000000180000000     kernel32:KERNEL32.dll
 0000:fff76000       .debug$S                   0000000180000000     kernel32:KERNEL32.dll
 0000:fff76000       .debug$S                   0000000180000000     kernel32:KERNEL32.dll
 0000:fff76000       .debug$S                   0000000180000000     kernel32:KERNEL32.dll
 0000:fff76000       .debug$S                   0000000180000000     kernel32:KERNEL32.dll
 0000:fff76000       .debug$S                   0000000180000000     kernel32:KERNEL32.dll
 0000:fff76000       .debug$S                   0000000180000000     kernel32:KERNEL32.dll
 0000:fff76000       .debug$S                   0000000180000000     kernel32:KERNEL32.dll
 0000:fff76000       .debug$S                   0000000180000000     kernel32:KERNEL32.dll
 0000:fff76000       .debug$S                   0000000180000000     kernel32:KERNEL32.dll
 0000:fff76000       .debug$S                   0000000180000000     kernel32:KERNEL32.dll
 0000:fff76000       .debug$S                   0000000180000000     kernel32:KERNEL32.dll
 0000:fff76000       .debug$S                   0000000180000000     kernel32:KERNEL32.dll
 0000:fff76000       .debug$S                   0000000180000000     kernel32:KERNEL32.dll
 0000:fff76000       .debug$S                   0000000180000000     kernel32:KERNEL32.dll
 0000:fff76000       .debug$S                   0000000180000000     kernel32:KERNEL32.dll
 0000:fff76000       .debug$S                   0000000180000000     kernel32:KERNEL32.dll
 0000:fff76000       .debug$S                   0000000180000000     kernel32:KERNEL32.dll
 0000:fff76000       .debug$S                   0000000180000000     kernel32:KERNEL32.dll
 0000:fff76000       .debug$S                   0000000180000000     kernel32:KERNEL32.dll
 0000:fff76000       .debug$S                   0000000180000000     kernel32:KERNEL32.dll
 0000:fff76000       .debug$S                   0000000180000000     kernel32:KERNEL32.dll
 0000:fff76000       .debug$S                   0000000180000000     kernel32:KERNEL32.dll
 0000:fff76000       .debug$S                   0000000180000000     kernel32:KERNEL32.dll
 0000:fff76000       .debug$S                   0000000180000000     kernel32:KERNEL32.dll
 0000:fff76000       .debug$S                   0000000180000000     kernel32:KERNEL32.dll
 0000:fff76000       .debug$S                   0000000180000000     kernel32:KERNEL32.dll
 0000:fff76000       .debug$S                   0000000180000000     kernel32:KERNEL32.dll
 0000:fff76000       .debug$S                   0000000180000000     kernel32:KERNEL32.dll
 0000:fff76000       .debug$S                   0000000180000000     kernel32:KERNEL32.dll
 0000:fff76000       .debug$S                   0000000180000000     kernel32:KERNEL32.dll
 0000:fff76000       .debug$S                   0000000180000000     kernel32:KERNEL32.dll
 0000:fff76000       .debug$S                   0000000180000000     kernel32:KERNEL32.dll
 0000:fff76000       .debug$S                   0000000180000000     kernel32:KERNEL32.dll
 0000:fff76000       .debug$S                   0000000180000000     kernel32:KERNEL32.dll
 0000:fff76000       .debug$S                   0000000180000000     kernel32:KERNEL32.dll
 0000:fff76000       .debug$S                   0000000180000000     kernel32:KERNEL32.dll
 0000:fff76000       .debug$S                   0000000180000000     kernel32:KERNEL32.dll
 0000:fff76000       .debug$S                   0000000180000000     sdkencryptedappticket64:sdkencryptedappticket64.dll
 0000:fff76000       .debug$S                   0000000180000000     kernel32:KERNEL32.dll
 0000:fff76000       .debug$S                   0000000180000000     kernel32:KERNEL32.dll
 0000:fff76000       .debug$S                   0000000180000000     kernel32:KERNEL32.dll
 0000:fff76000       .debug$S                   0000000180000000     kernel32:KERNEL32.dll
 0000:fff76000       .debug$S                   0000000180000000     kernel32:KERNEL32.dll
 0000:fff76000       .debug$S                   0000000180000000     kernel32:KERNEL32.dll
 0000:fff76000       .debug$S                   0000000180000000     kernel32:KERNEL32.dll
 0000:fff76000       .debug$S                   0000000180000000     kernel32:KERNEL32.dll
 0000:fff76000       .debug$S                   0000000180000000     kernel32:KERNEL32.dll
 0000:fff76000       .debug$S                   0000000180000000     kernel32:KERNEL32.dll
 0000:fff76000       .debug$S                   0000000180000000     advapi32:ADVAPI32.dll
 0000:fff76000       .debug$S                   0000000180000000     iojs:node.dll
 0000:fff76000       .debug$S                   0000000180000000     iojs:node.dll
 0000:fff76000       .debug$S                   0000000180000000     iojs:node.dll
 0000:fff76000       .debug$S                   0000000180000000     iojs:node.dll
 0000:fff76000       .debug$S                   0000000180000000     iojs:node.dll
 0000:fff76000       .debug$S                   0000000180000000     iojs:node.dll
 0000:fff76000       .debug$S                   0000000180000000     iojs:node.dll
 0000:fff76000       .debug$S                   0000000180000000     iojs:node.dll
 0000:fff76000       .debug$S                   0000000180000000     iojs:node.dll
 0000:fff76000       .debug$S                   0000000180000000     iojs:node.dll
 0000:fff76000       .debug$S                   0000000180000000     iojs:node.dll
 0000:fff76000       .debug$S                   0000000180000000     iojs:node.dll
 0000:fff76000       .debug$S                   0000000180000000     iojs:node.dll
 0000:fff76000       .debug$S                   0000000180000000     iojs:node.dll
 0000:fff76000       .debug$S                   0000000180000000     iojs:node.dll
 0000:fff76000       .debug$S                   0000000180000000     iojs:node.dll
 0000:fff76000       .debug$S                   0000000180000000     iojs:node.dll
 0000:fff76000       .debug$S                   0000000180000000     iojs:node.dll
 0000:fff76000       .debug$S                   0000000180000000     iojs:node.dll
 0000:fff76000       .debug$S                   0000000180000000     iojs:node.dll
 0000:fff76000       .debug$S                   0000000180000000     iojs:node.dll
 0000:fff76000       .debug$S                   0000000180000000     iojs:node.dll
 0000:fff76000       .debug$S                   0000000180000000     iojs:node.dll
 0000:fff76000       .debug$S                   0000000180000000     iojs:node.dll
 0000:fff76000       .debug$S                   0000000180000000     iojs:node.dll
 0000:fff76000       .debug$S                   0000000180000000     iojs:node.dll
 0000:fff76000       .debug$S                   0000000180000000     iojs:node.dll
 0000:fff76000       .debug$S                   0000000180000000     iojs:node.dll
 0000:fff76000       .debug$S                   0000000180000000     iojs:node.dll
 0000:fff76000       .debug$S                   0000000180000000     iojs:node.dll
 0000:fff76000       .debug$S                   0000000180000000     iojs:node.dll
 0000:fff76000       .debug$S                   0000000180000000     iojs:node.dll
 0000:fff76000       .debug$S                   0000000180000000     iojs:node.dll
 0000:fff76000       .debug$S                   0000000180000000     sdkencryptedappticket64:sdkencryptedappticket64.dll
 0000:fff76000       .debug$S                   0000000180000000     iojs:node.dll
 0000:fff76000       .debug$S                   0000000180000000     iojs:node.dll
 0000:fff76000       .debug$S                   0000000180000000     iojs:node.dll
 0000:fff76000       .debug$S                   0000000180000000     iojs:node.dll
 0000:fff76000       .debug$S                   0000000180000000     iojs:node.dll
 0000:fff76000       .debug$S                   0000000180000000     iojs:node.dll
 0000:fff76000       .debug$S                   0000000180000000     iojs:node.dll
 0000:fff76000       .debug$S                   0000000180000000     iojs:node.dll
 0000:fff76000       .debug$S                   0000000180000000     iojs:node.dll
 0000:fff76000       .debug$S                   0000000180000000     iojs:node.dll
 0000:fff76000       .debug$S                   0000000180000000     iojs:node.dll
 0000:fff76000       .debug$S                   0000000180000000     iojs:node.dll
 0000:fff76000       .debug$S                   0000000180000000     iojs:node.dll
 0000:fff76000       .debug$S                   0000000180000000     iojs:node.dll
 0000:fff76000       .debug$S                   0000000180000000     iojs:node.dll
 0000:fff76000       .debug$S                   0000000180000000     iojs:node.dll
 0000:fff76000       .debug$S                   0000000180000000     iojs:node.dll
 0000:fff76000       .debug$S                   0000000180000000     iojs:node.dll
 0000:fff76000       .debug$S                   0000000180000000     iojs:node.dll
 0000:fff76000       .debug$S                   0000000180000000     iojs:node.dll
 0000:fff76000       .debug$S                   0000000180000000     iojs:node.dll
 0000:fff76000       .debug$S                   0000000180000000     iojs:node.dll
 0000:fff76000       .debug$S                   0000000180000000     iojs:node.dll
 0000:fff76000       .debug$S                   0000000180000000     iojs:node.dll
 0000:fff76000       .debug$S                   0000000180000000     iojs:node.dll
 0000:fff76000       .debug$S                   0000000180000000     iojs:node.dll
 0000:fff76000       .debug$S                   0000000180000000     iojs:node.dll
 0000:fff76000       .debug$S                   0000000180000000     iojs:node.dll
 0000:fff76000       .debug$S                   0000000180000000     iojs:node.dll
 0000:fff76000       .debug$S                   0000000180000000     iojs:node.dll
 0000:fff76000       .debug$S                   0000000180000000     iojs:node.dll
 0000:fff76000       .debug$S                   0000000180000000     iojs:node.dll
 0000:fff76000       .debug$S                   0000000180000000     iojs:node.dll
 0000:fff76000       .debug$S                   0000000180000000     iojs:node.dll
 0000:fff76000       .debug$S                   0000000180000000     iojs:node.dll
 0000:fff76000       .debug$S                   0000000180000000     iojs:node.dll
 0000:fff76000       .debug$S                   0000000180000000     iojs:node.dll
 0000:fff76000       .debug$S                   0000000180000000     iojs:node.dll
 0000:fff76000       .debug$S                   0000000180000000     iojs:node.dll
 0000:fff76000       .debug$S                   0000000180000000     iojs:node.dll
 0000:fff76000       .debug$S                   0000000180000000     iojs:node.dll
 0000:fff76000       .debug$S                   0000000180000000     iojs:node.dll
 0000:fff76000       .debug$S                   0000000180000000     iojs:node.dll
 0000:fff76000       .debug$S                   0000000180000000     iojs:node.dll
 0000:fff76000       .debug$S                   0000000180000000     iojs:node.dll
 0000:fff76000       .debug$S                   0000000180000000     iojs:node.dll
 0000:fff76000       .debug$S                   0000000180000000     iojs:node.dll
 0000:fff76000       .debug$S                   0000000180000000     iojs:node.dll
 0000:fff76000       .debug$S                   0000000180000000     iojs:node.dll
 0000:fff76000       .debug$S                   0000000180000000     iojs:node.dll
 0000:fff76000       .debug$S                   0000000180000000     iojs:node.dll
 0000:fff76000       .debug$S                   0000000180000000     iojs:node.dll
 0000:fff76000       .debug$S                   0000000180000000     iojs:node.dll
 0000:fff76000       .debug$S                   0000000180000000     iojs:node.dll
 0000:fff76000       .debug$S                   0000000180000000     iojs:node.dll
 0000:fff76000       .debug$S                   0000000180000000     iojs:node.dll
 0000:fff76000       .debug$S                   0000000180000000     iojs:node.dll
 0000:fff76000       .debug$S                   0000000180000000     steam_api64:steam_api64.dll
 0000:fff76000       .debug$S                   0000000180000000     steam_api64:steam_api64.dll
 0000:fff76000       .debug$S                   0000000180000000     steam_api64:steam_api64.dll
 0000:fff76000       .debug$S                   0000000180000000     steam_api64:steam_api64.dll
 0000:fff76000       .debug$S                   0000000180000000     steam_api64:steam_api64.dll
 0000:fff76000       .debug$S                   0000000180000000     steam_api64:steam_api64.dll
 0000:fff76000       .debug$S                   0000000180000000     steam_api64:steam_api64.dll
 0000:fff76000       .debug$S                   0000000180000000     steam_api64:steam_api64.dll
 0000:fff76000       .debug$S                   0000000180000000     steam_api64:steam_api64.dll
 0000:fff76000       .debug$S                   0000000180000000     steam_api64:steam_api64.dll
 0000:fff76000       .debug$S                   0000000180000000     sdkencryptedappticket64:sdkencryptedappticket64.dll
 0000:fff76000       .debug$S                   0000000180000000     steam_api64:steam_api64.dll
 0000:fff76000       .debug$S                   0000000180000000     steam_api64:steam_api64.dll
 0000:fff76000       .debug$S                   0000000180000000     sdkencryptedappticket64:sdkencryptedappticket64.dll
 0001:000001e0       ??__EX@?A0x03570d69@api@greenworks@@YAXXZ 00000001800011e0 f   greenworks_api_utils.obj
 0001:00000290       ??__EX@?A0x3d8aa09c@api@greenworks@@YAXXZ 0000000180001290 f   steam_api_achievement.obj
 0001:00000340       ??__EX@?A0xeb4a7f0e@api@greenworks@@YAXXZ 0000000180001340 f   steam_api_auth.obj
 0001:000003f0       ??__EX@?A0x452d44e3@api@greenworks@@YAXXZ 00000001800013f0 f   steam_api_cloud.obj
 0001:000004a0       ??__EX@?A0xf2ee2f33@api@greenworks@@YAXXZ 00000001800014a0 f   steam_api_dlc.obj
 0001:00000550       ??__EX@?A0x441f1908@api@greenworks@@YAXXZ 0000000180001550 f   steam_api_friends.obj
 0001:00000600       ??__EX@?A0xa5dd25c1@api@greenworks@@YAXXZ 0000000180001600 f   steam_api_settings.obj
 0001:000006b0       ??__EX@?A0x0f10cf66@api@greenworks@@YAXXZ 00000001800016b0 f   steam_api_stats.obj
 0001:00000760       ??__EX@?A0x1f4b5bb9@api@greenworks@@YAXXZ 0000000180001760 f   steam_api_workshop.obj
 0001:00000810       ??__Eg_persistent_steam_events@?A0xdf905945@@YAXXZ 0000000180001810 f   greenworks_api.obj
 0001:0000081c       ??__Einitlocks@std@@YAXXZ  000000018000181c f   libcpmt:xlock.obj
 0001:0000083c       ??__E_Fac_tidy_reg@std@@YAXXZ 000000018000183c f   libcpmt:locale0.obj
 0001:00000848       ??__Eclassic_locale@std@@YAXXZ 0000000180001848 f   libcpmt:locale0.obj
 0001:00000854       ??__Einit_atexit@@YAXXZ    0000000180001854 f   libcpmt:iosptrs.obj
 0001:00000860       ??__Einitlocks@std@@YAXXZ  0000000180001860 f   libcpmt:iosptrs.obj
 0001:00000880       ?FunctionCallbackWrapper@imp@Nan@@YAXAEBV?$FunctionCallbackInfo@VValue@v8@@@v8@@@Z 0000000180001880 f   greenworks_api_utils.obj
 0001:00000d60       ?CreateArchive@?A0x03570d69@api@greenworks@@YAXAEBV?$FunctionCallbackInfo@VValue@v8@@@Nan@@@Z 0000000180001d60 f   greenworks_api_utils.obj
 0001:000012b0       ?ExtractArchive@?A0x03570d69@api@greenworks@@YAXAEBV?$FunctionCallbackInfo@VValue@v8@@@Nan@@@Z 00000001800022b0 f   greenworks_api_utils.obj
 0001:000017a0       ?RegisterAPIs@?A0x03570d69@api@greenworks@@YAXV?$Local@VObject@v8@@@v8@@@Z 00000001800027a0 f   greenworks_api_utils.obj
 0001:00002790       ?ActivateAchievement@?A0x3d8aa09c@api@greenworks@@YAXAEBV?$FunctionCallbackInfo@VValue@v8@@@Nan@@@Z 0000000180003790 f   steam_api_achievement.obj
 0001:00002a90       ?GetAchievement@?A0x3d8aa09c@api@greenworks@@YAXAEBV?$FunctionCallbackInfo@VValue@v8@@@Nan@@@Z 0000000180003a90 f   steam_api_achievement.obj
 0001:00002d90       ?ClearAchievement@?A0x3d8aa09c@api@greenworks@@YAXAEBV?$FunctionCallbackInfo@VValue@v8@@@Nan@@@Z 0000000180003d90 f   steam_api_achievement.obj
 0001:00003090       ?GetAchievementNames@?A0x3d8aa09c@api@greenworks@@YAXAEBV?$FunctionCallbackInfo@VValue@v8@@@Nan@@@Z 0000000180004090 f   steam_api_achievement.obj
 0001:000031c0       ?GetNumberOfAchievements@?A0x3d8aa09c@api@greenworks@@YAXAEBV?$FunctionCallbackInfo@VValue@v8@@@Nan@@@Z 00000001800041c0 f   steam_api_achievement.obj
 0001:00003290       ?RegisterAPIs@?A0x3d8aa09c@api@greenworks@@YAXV?$Local@VObject@v8@@@v8@@@Z 0000000180004290 f   steam_api_achievement.obj
 0001:00003690       ?GetAuthSessionTicket@?A0xeb4a7f0e@api@greenworks@@YAXAEBV?$FunctionCallbackInfo@VValue@v8@@@Nan@@@Z 0000000180004690 f   steam_api_auth.obj
 0001:00003860       ?CancelAuthTicket@?A0xeb4a7f0e@api@greenworks@@YAXAEBV?$FunctionCallbackInfo@VValue@v8@@@Nan@@@Z 0000000180004860 f   steam_api_auth.obj
 0001:00003960       ?GetEncryptedAppTicket@?A0xeb4a7f0e@api@greenworks@@YAXAEBV?$FunctionCallbackInfo@VValue@v8@@@Nan@@@Z 0000000180004960 f   steam_api_auth.obj
 0001:00003bd0       ?DecryptAppTicket@?A0xeb4a7f0e@api@greenworks@@YAXAEBV?$FunctionCallbackInfo@VValue@v8@@@Nan@@@Z 0000000180004bd0 f   steam_api_auth.obj
 0001:00003e40       ?IsTicketForApp@?A0xeb4a7f0e@api@greenworks@@YAXAEBV?$FunctionCallbackInfo@VValue@v8@@@Nan@@@Z 0000000180004e40 f   steam_api_auth.obj
 0001:00003fa0       ?getTicketIssueTime@?A0xeb4a7f0e@api@greenworks@@YAXAEBV?$FunctionCallbackInfo@VValue@v8@@@Nan@@@Z 0000000180004fa0 f   steam_api_auth.obj
 0001:00004100       ?getTicketSteamId@?A0xeb4a7f0e@api@greenworks@@YAXAEBV?$FunctionCallbackInfo@VValue@v8@@@Nan@@@Z 0000000180005100 f   steam_api_auth.obj
 0001:00004240       ?getTicketAppId@?A0xeb4a7f0e@api@greenworks@@YAXAEBV?$FunctionCallbackInfo@VValue@v8@@@Nan@@@Z 0000000180005240 f   steam_api_auth.obj
 0001:000043a0       ?RegisterAPIs@?A0xeb4a7f0e@api@greenworks@@YAXV?$Local@VObject@v8@@@v8@@@Z 00000001800053a0 f   steam_api_auth.obj
 0001:00004a00       ?SaveTextToFile@?A0x452d44e3@api@greenworks@@YAXAEBV?$FunctionCallbackInfo@VValue@v8@@@Nan@@@Z 0000000180005a00 f   steam_api_cloud.obj
 0001:00004de0       ?DeleteFileA@?A0x452d44e3@api@greenworks@@YAXAEBV?$FunctionCallbackInfo@VValue@v8@@@Nan@@@Z 0000000180005de0 f   steam_api_cloud.obj
 0001:000050e0       ?SaveFilesToCloud@?A0x452d44e3@api@greenworks@@YAXAEBV?$FunctionCallbackInfo@VValue@v8@@@Nan@@@Z 00000001800060e0 f   steam_api_cloud.obj
 0001:00005740       ?ReadTextFromFile@?A0x452d44e3@api@greenworks@@YAXAEBV?$FunctionCallbackInfo@VValue@v8@@@Nan@@@Z 0000000180006740 f   steam_api_cloud.obj
 0001:00005a40       ?IsCloudEnabled@?A0x452d44e3@api@greenworks@@YAXAEBV?$FunctionCallbackInfo@VValue@v8@@@Nan@@@Z 0000000180006a40 f   steam_api_cloud.obj
 0001:00005ae0       ?IsCloudEnabledForUser@?A0x452d44e3@api@greenworks@@YAXAEBV?$FunctionCallbackInfo@VValue@v8@@@Nan@@@Z 0000000180006ae0 f   steam_api_cloud.obj
 0001:00005b80       ?EnableCloud@?A0x452d44e3@api@greenworks@@YAXAEBV?$FunctionCallbackInfo@VValue@v8@@@Nan@@@Z 0000000180006b80 f   steam_api_cloud.obj
 0001:00005c60       ?GetCloudQuota@?A0x452d44e3@api@greenworks@@YAXAEBV?$FunctionCallbackInfo@VValue@v8@@@Nan@@@Z 0000000180006c60 f   steam_api_cloud.obj
 0001:00005e60       ?RegisterAPIs@?A0x452d44e3@api@greenworks@@YAXV?$Local@VObject@v8@@@v8@@@Z 0000000180006e60 f   steam_api_cloud.obj
 0001:000068b0       ?GetDLCCount@?A0xf2ee2f33@api@greenworks@@YAXAEBV?$FunctionCallbackInfo@VValue@v8@@@Nan@@@Z 00000001800078b0 f   steam_api_dlc.obj
 0001:00006960       ?IsDLCInstalled@?A0xf2ee2f33@api@greenworks@@YAXAEBV?$FunctionCallbackInfo@VValue@v8@@@Nan@@@Z 0000000180007960 f   steam_api_dlc.obj
 0001:00006a40       ?installDLC@?A0xf2ee2f33@api@greenworks@@YAXAEBV?$FunctionCallbackInfo@VValue@v8@@@Nan@@@Z 0000000180007a40 f   steam_api_dlc.obj
 0001:00006b40       ?uninstallDLC@?A0xf2ee2f33@api@greenworks@@YAXAEBV?$FunctionCallbackInfo@VValue@v8@@@Nan@@@Z 0000000180007b40 f   steam_api_dlc.obj
 0001:00006c40       ?RegisterAPIs@?A0xf2ee2f33@api@greenworks@@YAXV?$Local@VObject@v8@@@v8@@@Z 0000000180007c40 f   steam_api_dlc.obj
 0001:00006f00       ?InitFriendFlags@?A0x441f1908@api@greenworks@@YAXV?$Local@VObject@v8@@@v8@@@Z 0000000180007f00 f   steam_api_friends.obj
 0001:000078a0       ?InitFriendRelationship@?A0x441f1908@api@greenworks@@YAXV?$Local@VObject@v8@@@v8@@@Z 00000001800088a0 f   steam_api_friends.obj
 0001:00007f50       ?InitFriendPersonaChange@?A0x441f1908@api@greenworks@@YAXV?$Local@VObject@v8@@@v8@@@Z 0000000180008f50 f   steam_api_friends.obj
 0001:00008a30       ?InitAccountType@?A0x441f1908@api@greenworks@@YAXV?$Local@VObject@v8@@@v8@@@Z 0000000180009a30 f   steam_api_friends.obj
 0001:00009320       ?InitChatEntryType@?A0x441f1908@api@greenworks@@YAXV?$Local@VObject@v8@@@v8@@@Z 000000018000a320 f   steam_api_friends.obj
 0001:00009cc0       ?GetFriendCount@?A0x441f1908@api@greenworks@@YAXAEBV?$FunctionCallbackInfo@VValue@v8@@@Nan@@@Z 000000018000acc0 f   steam_api_friends.obj
 0001:00009e60       ?GetFriends@?A0x441f1908@api@greenworks@@YAXAEBV?$FunctionCallbackInfo@VValue@v8@@@Nan@@@Z 000000018000ae60 f   steam_api_friends.obj
 0001:00009fe0       ?GetSmallFriendAvatar@?A0x441f1908@api@greenworks@@YAXAEBV?$FunctionCallbackInfo@VValue@v8@@@Nan@@@Z 000000018000afe0 f   steam_api_friends.obj
 0001:0000a250       ?GetMediumFriendAvatar@?A0x441f1908@api@greenworks@@YAXAEBV?$FunctionCallbackInfo@VValue@v8@@@Nan@@@Z 000000018000b250 f   steam_api_friends.obj
 0001:0000a4c0       ?GetLargeFriendAvatar@?A0x441f1908@api@greenworks@@YAXAEBV?$FunctionCallbackInfo@VValue@v8@@@Nan@@@Z 000000018000b4c0 f   steam_api_friends.obj
 0001:0000a730       ?RequestUserInformation@?A0x441f1908@api@greenworks@@YAXAEBV?$FunctionCallbackInfo@VValue@v8@@@Nan@@@Z 000000018000b730 f   steam_api_friends.obj
 0001:0000a9a0       ?SetListenForFriendsMessages@?A0x441f1908@api@greenworks@@YAXAEBV?$FunctionCallbackInfo@VValue@v8@@@Nan@@@Z 000000018000b9a0 f   steam_api_friends.obj
 0001:0000aa90       ?ReplyToFriendMessage@?A0x441f1908@api@greenworks@@YAXAEBV?$FunctionCallbackInfo@VValue@v8@@@Nan@@@Z 000000018000ba90 f   steam_api_friends.obj
 0001:0000ade0       ?GetFriendMessage@?A0x441f1908@api@greenworks@@YAXAEBV?$FunctionCallbackInfo@VValue@v8@@@Nan@@@Z 000000018000bde0 f   steam_api_friends.obj
 0001:0000b2a0       ?RegisterAPIs@?A0x441f1908@api@greenworks@@YAXV?$Local@VObject@v8@@@v8@@@Z 000000018000c2a0 f   steam_api_friends.obj
 0001:0000c3f0       ?FreeCallback@?A0xa5dd25c1@api@greenworks@@YAXPEADPEAX@Z 000000018000d3f0 f   steam_api_settings.obj
 0001:0000c400       ?GetSteamUserCountType@?A0xa5dd25c1@api@greenworks@@YA?AV?$Local@VObject@v8@@@v8@@H@Z 000000018000d400 f   steam_api_settings.obj
 0001:0000c9b0       ?RestartAppIfNecessary@?A0xa5dd25c1@api@greenworks@@YAXAEBV?$FunctionCallbackInfo@VValue@v8@@@Nan@@@Z 000000018000d9b0 f   steam_api_settings.obj
 0001:0000cad0       ?IsSteamRunning@?A0xa5dd25c1@api@greenworks@@YAXAEBV?$FunctionCallbackInfo@VValue@v8@@@Nan@@@Z 000000018000dad0 f   steam_api_settings.obj
 0001:0000cb50       ?GetSteamId@?A0xa5dd25c1@api@greenworks@@YAXAEBV?$FunctionCallbackInfo@VValue@v8@@@Nan@@@Z 000000018000db50 f   steam_api_settings.obj
 0001:0000da30       ?GetAppId@?A0xa5dd25c1@api@greenworks@@YAXAEBV?$FunctionCallbackInfo@VValue@v8@@@Nan@@@Z 000000018000ea30 f   steam_api_settings.obj
 0001:0000db20       ?GetCurrentGameLanguage@?A0xa5dd25c1@api@greenworks@@YAXAEBV?$FunctionCallbackInfo@VValue@v8@@@Nan@@@Z 000000018000eb20 f   steam_api_settings.obj
 0001:0000dbd0       ?GetCurrentUILanguage@?A0xa5dd25c1@api@greenworks@@YAXAEBV?$FunctionCallbackInfo@VValue@v8@@@Nan@@@Z 000000018000ebd0 f   steam_api_settings.obj
 0001:0000dc80       ?GetCurrentGameInstallDir@?A0xa5dd25c1@api@greenworks@@YAXAEBV?$FunctionCallbackInfo@VValue@v8@@@Nan@@@Z 000000018000ec80 f   steam_api_settings.obj
 0001:0000dd10       ?GetNumberOfPlayers@?A0xa5dd25c1@api@greenworks@@YAXAEBV?$FunctionCallbackInfo@VValue@v8@@@Nan@@@Z 000000018000ed10 f   steam_api_settings.obj
 0001:0000dee0       ?IsGameOverlayEnabled@?A0xa5dd25c1@api@greenworks@@YAXAEBV?$FunctionCallbackInfo@VValue@v8@@@Nan@@@Z 000000018000eee0 f   steam_api_settings.obj
 0001:0000df80       ?ActivateGameOverlay@?A0xa5dd25c1@api@greenworks@@YAXAEBV?$FunctionCallbackInfo@VValue@v8@@@Nan@@@Z 000000018000ef80 f   steam_api_settings.obj
 0001:0000e130       ?ActivateGameOverlayToWebPage@?A0xa5dd25c1@api@greenworks@@YAXAEBV?$FunctionCallbackInfo@VValue@v8@@@Nan@@@Z 000000018000f130 f   steam_api_settings.obj
 0001:0000e2e0       ?IsSubscribedApp@?A0xa5dd25c1@api@greenworks@@YAXAEBV?$FunctionCallbackInfo@VValue@v8@@@Nan@@@Z 000000018000f2e0 f   steam_api_settings.obj
 0001:0000e410       ?GetImageSize@?A0xa5dd25c1@api@greenworks@@YAXAEBV?$FunctionCallbackInfo@VValue@v8@@@Nan@@@Z 000000018000f410 f   steam_api_settings.obj
 0001:0000e6e0       ?GetImageRGBA@?A0xa5dd25c1@api@greenworks@@YAXAEBV?$FunctionCallbackInfo@VValue@v8@@@Nan@@@Z 000000018000f6e0 f   steam_api_settings.obj
 0001:0000e8e0       ?RegisterAPIs@?A0xa5dd25c1@api@greenworks@@YAXV?$Local@VObject@v8@@@v8@@@Z 000000018000f8e0 f   steam_api_settings.obj
 0001:0000fcd0       no_op_initialize           0000000180010cd0 f i libucrt:wsetlocale.obj
 0001:00014310       ??0StoreUserStatsWorker@?A0x0f10cf66@api@greenworks@@QEAA@PEAVCallback@Nan@@0@Z 0000000180015310 f   steam_api_stats.obj
 0001:000143f0       ??1StoreUserStatsWorker@?A0x0f10cf66@api@greenworks@@UEAA@XZ 00000001800153f0 f   steam_api_stats.obj
 0001:00014470       ?Execute@StoreUserStatsWorker@?A0x0f10cf66@api@greenworks@@UEAAXXZ 0000000180015470 f   steam_api_stats.obj
 0001:000144c0       ?OnStoreUserStatsCompleted@StoreUserStatsWorker@?A0x0f10cf66@api@greenworks@@QEAAXPEAUUserStatsStored_t@@@Z 00000001800154c0 f   steam_api_stats.obj
 0001:00014540       ?HandleOKCallback@StoreUserStatsWorker@?A0x0f10cf66@api@greenworks@@UEAAXXZ 0000000180015540 f   steam_api_stats.obj
 0001:000147d0       ?GetStatInt@?A0x0f10cf66@api@greenworks@@YAXAEBV?$FunctionCallbackInfo@VValue@v8@@@Nan@@@Z 00000001800157d0 f   steam_api_stats.obj
 0001:000149d0       ?GetStatFloat@?A0x0f10cf66@api@greenworks@@YAXAEBV?$FunctionCallbackInfo@VValue@v8@@@Nan@@@Z 00000001800159d0 f   steam_api_stats.obj
 0001:00014bc0       ?SetStat@?A0x0f10cf66@api@greenworks@@YAXAEBV?$FunctionCallbackInfo@VValue@v8@@@Nan@@@Z 0000000180015bc0 f   steam_api_stats.obj
 0001:00014e50       ?StoreStats@?A0x0f10cf66@api@greenworks@@YAXAEBV?$FunctionCallbackInfo@VValue@v8@@@Nan@@@Z 0000000180015e50 f   steam_api_stats.obj
 0001:00015020       ?ResetAllStats@?A0x0f10cf66@api@greenworks@@YAXAEBV?$FunctionCallbackInfo@VValue@v8@@@Nan@@@Z 0000000180016020 f   steam_api_stats.obj
 0001:00015110       ?RegisterAPIs@?A0x0f10cf66@api@greenworks@@YAXV?$Local@VObject@v8@@@v8@@@Z 0000000180016110 f   steam_api_stats.obj
 0001:000154c0       ?InitUgcMatchingTypes@?A0x1f4b5bb9@api@greenworks@@YAXV?$Local@VObject@v8@@@v8@@@Z 00000001800164c0 f   steam_api_workshop.obj
 0001:00015e60       ?InitUgcQueryTypes@?A0x1f4b5bb9@api@greenworks@@YAXV?$Local@VObject@v8@@@v8@@@Z 0000000180016e60 f   steam_api_workshop.obj
 0001:00016800       ?InitUserUgcList@?A0x1f4b5bb9@api@greenworks@@YAXV?$Local@VObject@v8@@@v8@@@Z 0000000180017800 f   steam_api_workshop.obj
 0001:00016f70       ?InitUserUgcListSortOrder@?A0x1f4b5bb9@api@greenworks@@YAXV?$Local@VObject@v8@@@v8@@@Z 0000000180017f70 f   steam_api_workshop.obj
 0001:00017570       ?FileShare@?A0x1f4b5bb9@api@greenworks@@YAXAEBV?$FunctionCallbackInfo@VValue@v8@@@Nan@@@Z 0000000180018570 f   steam_api_workshop.obj
 0001:000178b0       ?PublishWorkshopFile@?A0x1f4b5bb9@api@greenworks@@YAXAEBV?$FunctionCallbackInfo@VValue@v8@@@Nan@@@Z 00000001800188b0 f   steam_api_workshop.obj
 0001:00017ec0       ?UpdatePublishedWorkshopFile@?A0x1f4b5bb9@api@greenworks@@YAXAEBV?$FunctionCallbackInfo@VValue@v8@@@Nan@@@Z 0000000180018ec0 f   steam_api_workshop.obj
 0001:00018590       ?UGCGetItems@?A0x1f4b5bb9@api@greenworks@@YAXAEBV?$FunctionCallbackInfo@VValue@v8@@@Nan@@@Z 0000000180019590 f   steam_api_workshop.obj
 0001:00018810       ?UGCGetUserItems@?A0x1f4b5bb9@api@greenworks@@YAXAEBV?$FunctionCallbackInfo@VValue@v8@@@Nan@@@Z 0000000180019810 f   steam_api_workshop.obj
 0001:00018b00       ?UGCDownloadItem@?A0x1f4b5bb9@api@greenworks@@YAXAEBV?$FunctionCallbackInfo@VValue@v8@@@Nan@@@Z 0000000180019b00 f   steam_api_workshop.obj
 0001:00018ef0       ?UGCSynchronizeItems@?A0x1f4b5bb9@api@greenworks@@YAXAEBV?$FunctionCallbackInfo@VValue@v8@@@Nan@@@Z 0000000180019ef0 f   steam_api_workshop.obj
 0001:000191b0       ?UGCShowOverlay@?A0x1f4b5bb9@api@greenworks@@YAXAEBV?$FunctionCallbackInfo@VValue@v8@@@Nan@@@Z 000000018001a1b0 f   steam_api_workshop.obj
 0001:000196b0       ?UGCUnsubscribe@?A0x1f4b5bb9@api@greenworks@@YAXAEBV?$FunctionCallbackInfo@VValue@v8@@@Nan@@@Z 000000018001a6b0 f   steam_api_workshop.obj
 0001:00019970       ?RegisterAPIs@?A0x1f4b5bb9@api@greenworks@@YAXV?$Local@VObject@v8@@@v8@@@Z 000000018001a970 f   steam_api_workshop.obj
 0001:0001a320       ?InitAPI@?A0xdf905945@@YAXAEBV?$FunctionCallbackInfo@VValue@v8@@@Nan@@@Z 000000018001b320 f   greenworks_api.obj
 0001:0001a420       ?init@?A0xdf905945@@YAXV?$Local@VObject@v8@@@v8@@@Z 000000018001b420 f   greenworks_api.obj
 0001:0001a600       _register_greenworks_win64 000000018001b600 f   greenworks_api.obj
 0001:0001a660       ??1FilesContentContainer@?A0x28c2d4e9@@QEAA@XZ 000000018001b660 f   greenworks_async_workers.obj
 0001:0001d490       ?makedir@?A0x09b021cc@@YAHPEBD@Z 000000018001e490 f   greenworks_unzip.obj
 0001:0001d5a0       ?do_extract_currentfile@?A0x09b021cc@@YAHPEAXPEBHPEAHPEBD@Z 000000018001e5a0 f   greenworks_unzip.obj
 0001:0001d840       ?do_extract@?A0x09b021cc@@YAHPEAXHHPEBD@Z 000000018001e840 f   greenworks_unzip.obj
 0001:0001f810       initialize_environment     0000000180020810 f i libucrt:initialization.obj
 0001:0001f810       initialize_global_state_isolation 0000000180020810 f i libucrt:initialization.obj
 0001:0001f810       uninitialize_global_state_isolation 0000000180020810 f i libucrt:initialization.obj
 0001:0001f810       uninitialize_c             0000000180020810 f i libucrt:initialization.obj
 0001:0001f810       report_memory_leaks        0000000180020810 f i libucrt:initialization.obj
 0001:00023b90       ?ConvertToJsObject@?A0xefc3cf7d@@YA?AV?$Local@VObject@v8@@@v8@@AEBUSteamUGCDetails_t@@@Z 0000000180024b90 f   greenworks_workshop_workers.obj
 0001:00024c00       ?GetAbsoluteFilePath@?A0xefc3cf7d@@YA?AV?$basic_string@DU?$char_traits@D@std@@V?$allocator@D@2@@std@@AEBV23@0@Z 0000000180025c00 f   greenworks_workshop_workers.obj
 0001:00028420       _wopendir                  0000000180029420 f   greenworks_zip.obj
 0001:00028540       _wreaddir                  0000000180029540 f   greenworks_zip.obj
 0001:00028640       _wclosedir                 0000000180029640 f   greenworks_zip.obj
 0001:000286b0       opendir                    00000001800296b0 f   greenworks_zip.obj
 0001:000287a0       readdir                    00000001800297a0 f   greenworks_zip.obj
 0001:00028880       ?getFileCrc@?A0xf36037d1@@YAHPEBDPEAXKPEAK@Z 0000000180029880 f   greenworks_zip.obj
 0001:00028950       ?PathCombine@?A0xf36037d1@@YA?AV?$basic_string@DU?$char_traits@D@std@@V?$allocator@D@2@@std@@V23@0@Z 0000000180029950 f   greenworks_zip.obj
 0001:00028ac0       ?GetDirectoryList@?A0xf36037d1@@YA?AV?$vector@V?$basic_string@DU?$char_traits@D@std@@V?$allocator@D@2@@std@@V?$allocator@V?$basic_string@DU?$char_traits@D@std@@V?$allocator@D@2@@std@@@2@@std@@AEBV?$basic_string@DU?$char_traits@D@std@@V?$allocator@D@2@@3@@Z 0000000180029ac0 f   greenworks_zip.obj
 0001:00029e20       ?RunSteamAPICallback@?A0xca9b7f1f@greenworks@@YAXPEAUuv_timer_s@@@Z 000000018002ae20 f   steam_client.obj
 0001:0002d530       unz64local_getShort        000000018002e530 f   minizip:unzip.obj
 0001:0002d5e0       unz64local_getLong         000000018002e5e0 f   minizip:unzip.obj
 0001:0002d710       unz64local_getLong64       000000018002e710 f   minizip:unzip.obj
 0001:0002d940       unz64local_SearchCentralDir 000000018002e940 f   minizip:unzip.obj
 0001:0002d940       zip64local_SearchCentralDir 000000018002e940 f   minizip:zip.obj
 0001:0002daf0       unz64local_SearchCentralDir64 000000018002eaf0 f   minizip:unzip.obj
 0001:0002ddb0       unzOpenInternal            000000018002edb0 f   minizip:unzip.obj
 0001:0002e590       unz64local_GetCurrentFileInfoInternal 000000018002f590 f   minizip:unzip.obj
 0001:0002ec40       unz64local_CheckCurrentFileCoherencyHeader 000000018002fc40 f   minizip:unzip.obj
 0001:0002f7b0       init_keys                  00000001800307b0 f   minizip:zip.obj
 0001:0002f840       crypthead                  0000000180030840 f   minizip:zip.obj
 0001:0002fb30       add_data_in_datablock      0000000180030b30 f   minizip:zip.obj
 0001:0002fc60       zip64local_putValue        0000000180030c60 f   minizip:zip.obj
 0001:0002fcf0       zip64local_getShort        0000000180030cf0 f   minizip:zip.obj
 0001:0002fda0       zip64local_getLong         0000000180030da0 f   minizip:zip.obj
 0001:0002fed0       zip64local_getLong64       0000000180030ed0 f   minizip:zip.obj
 0001:00030100       zip64local_SearchCentralDir64 0000000180031100 f   minizip:zip.obj
 0001:00031220       zip64FlushWriteBuffer      0000000180032220 f   minizip:zip.obj
 0001:00031f50       fopen64_file_func          0000000180032f50 f   minizip:ioapi.obj
 0001:00031fa0       fread_file_func            0000000180032fa0 f   minizip:ioapi.obj
 0001:00031fc0       fwrite_file_func           0000000180032fc0 f   minizip:ioapi.obj
 0001:00031fe0       ftell64_file_func          0000000180032fe0 f   minizip:ioapi.obj
 0001:00031ff0       fseek64_file_func          0000000180032ff0 f   minizip:ioapi.obj
 0001:00032050       fclose_file_func           0000000180033050 f   minizip:ioapi.obj
 0001:00032060       ferror_file_func           0000000180033060 f   minizip:ioapi.obj
 0001:00032080       crc32_little               0000000180033080 f   zlib:crc32.obj
 0001:000324f0       updatewindow               00000001800334f0 f   zlib:inflate.obj
 0001:00033c88       $LN909                     0000000180034c88     zlib:inflate.obj
 0001:000340b0       flush_pending              00000001800350b0 f   zlib:deflate.obj
 0001:00034b50       read_buf                   0000000180035b50 f   zlib:deflate.obj
 0001:00034c00       class_set                  0000000180035c00 f   zlib:deflate.obj
 0001:00034d10       longest_match              0000000180035d10 f   zlib:deflate.obj
 0001:00034f70       cookie_match               0000000180035f70 f   zlib:deflate.obj
 0001:000350d0       fill_window                00000001800360d0 f   zlib:deflate.obj
 0001:00035330       deflate_stored             0000000180036330 f   zlib:deflate.obj
 0001:000355f0       deflate_fast               00000001800365f0 f   zlib:deflate.obj
 0001:00035a30       deflate_slow               0000000180036a30 f   zlib:deflate.obj
 0001:00036030       deflate_rle                0000000180037030 f   zlib:deflate.obj
 0001:000363e0       deflate_huff               00000001800373e0 f   zlib:deflate.obj
 0001:000373c0       init_block                 00000001800383c0 f   zlib:trees.obj
 0001:00037440       pqdownheap                 0000000180038440 f   zlib:trees.obj
 0001:00037530       gen_bitlen                 0000000180038530 f   zlib:trees.obj
 0001:00037740       gen_codes                  0000000180038740 f   zlib:trees.obj
 0001:00037800       build_tree                 0000000180038800 f   zlib:trees.obj
 0001:00037a50       scan_tree                  0000000180038a50 f   zlib:trees.obj
 0001:00037b40       send_tree                  0000000180038b40 f   zlib:trees.obj
 0001:000380d0       build_bl_tree              00000001800390d0 f   zlib:trees.obj
 0001:000381a0       send_all_trees             00000001800391a0 f   zlib:trees.obj
 0001:00038740       compress_block             0000000180039740 f   zlib:trees.obj
 0001:00038b90       detect_data_type           0000000180039b90 f   zlib:trees.obj
 0001:00038c10       copy_block                 0000000180039c10 f   zlib:trees.obj
 0001:000395b4       tidy_global                000000018003a5b4 f   libcpmt:locale0.obj
 0001:0003d620       ?initialize_pointers@@YAHXZ 000000018003e620 f   libcpmt:winapisupp.obj
 0001:0003e300       $$000000                   000000018003f300     LIBCMT:_amdsecgs_.obj
 0001:0003e334       ?__scrt_initialize_thread_safe_statics@@YAHXZ 000000018003f334 f   LIBCMT:thread_safe_statics.obj
 0001:0003e454       ?__scrt_uninitialize_thread_safe_statics@@YAXXZ 000000018003f454 f   LIBCMT:thread_safe_statics.obj
 0001:0003ec38       capture_current_context    000000018003fc38 f   LIBCMT:gs_report.obj
 0001:0003eca8       capture_previous_context   000000018003fca8 f   LIBCMT:gs_report.obj
 0001:0003ed1c       ?dllmain_crt_dispatch@@YAHQEAUHINSTANCE__@@KQEAX@Z 000000018003fd1c f   LIBCMT:dll_dllmain.obj
 0001:0003ed6c       ?dllmain_crt_process_attach@@YAHQEAUHINSTANCE__@@QEAX@Z 000000018003fd6c f   LIBCMT:dll_dllmain.obj
 0001:0003ee98       ?dllmain_crt_process_detach@@YAH_N@Z 000000018003fe98 f   LIBCMT:dll_dllmain.obj
 0001:0003ef1c       ?dllmain_dispatch@@YAHQEAUHINSTANCE__@@KQEAX@Z 000000018003ff1c f   LIBCMT:dll_dllmain.obj
 0001:0003f024       ?dllmain_raw@@YAHQEAUHINSTANCE__@@KQEAX@Z 0000000180040024 f   LIBCMT:dll_dllmain.obj
 0001:0003f140       $$000000                   0000000180040140     LIBCMT:_chkstk_.obj
 0001:0003f6f0       $$000000                   00000001800406f0     libvcruntime:memcpy.obj
 0001:0003f797       MoveSmall                  0000000180040797     libvcruntime:memcpy.obj
 0001:0003fe1c       ?CatchIt@@YAXPEAUEHExceptionRecord@@PEA_KPEAU_CONTEXT@@PEAU_xDISPATCHER_CONTEXT@@PEBU_s_FuncInfo@@PEBU_s_HandlerType@@PEBU_s_CatchableType@@PEBU_s_TryBlockMapEntry@@H1EE@Z 0000000180040e1c f   libvcruntime:frame.obj
 0001:0003fee0       ?ExFilterRethrow@@YAHPEAU_EXCEPTION_POINTERS@@PEAUEHExceptionRecord@@PEAH@Z 0000000180040ee0 f   libvcruntime:frame.obj
 0001:0003ff68       ?FindHandler@@YAXPEAUEHExceptionRecord@@PEA_KPEAU_CONTEXT@@PEAU_xDISPATCHER_CONTEXT@@PEBU_s_FuncInfo@@EH1@Z 0000000180040f68 f   libvcruntime:frame.obj
 0001:00040418       ?FindHandlerForForeignException@@YAXPEAUEHExceptionRecord@@PEA_KPEAU_CONTEXT@@PEAU_xDISPATCHER_CONTEXT@@PEBU_s_FuncInfo@@HH1@Z 0000000180041418 f   libvcruntime:frame.obj
 0001:00040670       ?IsInExceptionSpec@@YAEPEAUEHExceptionRecord@@PEBU_s_ESTypeList@@@Z 0000000180041670 f   libvcruntime:frame.obj
 0001:000417e0       $$000000                   00000001800427e0     libvcruntime:memset.obj
 0001:000418cc       MsetTab                    00000001800428cc     libvcruntime:memset.obj
 0001:00041990       $$000000                   0000000180042990     libvcruntime:memcmp.obj
 0001:00041a68       ?try_get_function@@YAPEAXW4function_id@?A0xece66f1d@@QEBDQEBW4module_id@2@2@Z 0000000180042a68 f   libvcruntime:winapi_downlevel.obj
 0001:00042304       _TlgDefineProvider_annotation__Tlg_Microsoft_CRTProviderProv 0000000180043304 f   libvcruntime:telemetry.obj
 0001:00042890       $$000000                   0000000180043890     libvcruntime:handlers.obj
 0001:000428e0       $$000000                   00000001800438e0     libvcruntime:_jmpuwind_.obj
 0001:00042c78       ??$common_assert_to_message_box@_W@@YAXQEB_W0IQEAX@Z 0000000180043c78 f   libucrt:assert.obj
 0001:00042d3c       ??$common_assert_to_message_box_build_string@_W@@YAXQEA_W_KQEB_W2IQEAX@Z 0000000180043d3c f   libucrt:assert.obj
 0001:00043510       ??$common_assert_to_stderr@_W@@YAXQEB_W0I@Z 0000000180044510 f   libucrt:assert.obj
 0001:00043680       ?get_assert_format@@YAPEB_W_W@Z 0000000180044680 f   libucrt:assert.obj
 0001:00043924       ??$common_vsprintf@Vformat_validation_base@__crt_stdio_output@@D@@YAH_KQEAD0QEBDQEAU__crt_locale_pointers@@1@Z 0000000180044924 f   libucrt:output.obj
 0001:00044090       ??R<lambda_0a64b6a4deda75c01876f29c44fc5eb3>@@QEBAHXZ 0000000180045090 f   libucrt:output.obj
 0001:00044180       ??R<lambda_dd75445284c072d0bd3768540cc698fa>@@QEBAHXZ 0000000180045180 f   libucrt:output.obj
 0001:000476ec       ??$common_fsopen@D@@YAPEAU_iobuf@@QEBD0H@Z 00000001800486ec f   libucrt:fopen.obj
 0001:000478c0       $$000000                   00000001800488c0     libucrt:strncpy.obj
 0001:00047bd0       ??R<lambda_532e024f4337e6fc7ad266c2bef9f4ed>@@QEBA_KXZ 0000000180048bd0 f   libucrt:fwrite.obj
 0001:000481c4       common_flush_all           00000001800491c4 f   libucrt:fflush.obj
 0001:00048434       ??$common_stat@U_stat64i32@@@@YAHQEB_WQEAU_stat64i32@@@Z 0000000180049434 f   libucrt:stat.obj
 0001:000485f4       ??$common_stat_handle_file_opened@U_stat64i32@@@@YA_NQEB_WHQEAXAEAU_stat64i32@@@Z 00000001800495f4 f   libucrt:stat.obj
 0001:000487dc       ??$convert_large_integer_time_to_time_t@_J@@YA_JT_LARGE_INTEGER@@_J@Z 00000001800497dc f   libucrt:stat.obj
 0001:00048894       ?convert_to_stat_mode@@YAGHQEB_W@Z 0000000180049894 f   libucrt:stat.obj
 0001:000489c0       ?get_drive_number_from_path@@YA_NQEB_WAEAH@Z 00000001800499c0 f   libucrt:stat.obj
 0001:00048a2c       ?is_root_unc_name@@YA_NQEB_W@Z 0000000180049a2c f   libucrt:stat.obj
 0001:00048ad0       ?is_usable_drive_or_unc_root@@YA_NQEB_W@Z 0000000180049ad0 f   libucrt:stat.obj
 0001:00048eb0       ??R<lambda_b721fa326cdb32351d23dfa67958c160>@@QEBAHXZ 0000000180049eb0 f   libucrt:setvbuf.obj
 0001:0004935c       ?common_fseek@@YAHV__crt_stdio_stream@@_JH@Z 000000018004a35c f   libucrt:fseek.obj
 0001:000493c8       ?common_fseek_binary_mode_read_only_fast_track_nolock@@YA_NV__crt_stdio_stream@@_JH@Z 000000018004a3c8 f   libucrt:fseek.obj
 0001:000494d8       ?common_fseek_nolock@@YAHV__crt_stdio_stream@@_JH@Z 000000018004a4d8 f   libucrt:fseek.obj
 0001:000495e0       ??$common_futime@_JU__utimbuf64@@@@YAHHPEAU__utimbuf64@@@Z 000000018004a5e0 f   libucrt:utime.obj
 0001:00049bbc       ?atexit_exception_filter@@YAHK@Z 000000018004abbc f   libucrt:exit.obj
 0001:00049bc8       ?common_exit@@YAXHW4_crt_exit_cleanup_mode@@W4_crt_exit_return_mode@@@Z 000000018004abc8 f   libucrt:exit.obj
 0001:00049d34       ?exit_or_terminate_process@@YAXI@Z 000000018004ad34 f   libucrt:exit.obj
 0001:00049d80       ?try_cor_exit_process@@YAXI@Z 000000018004ad80 f   libucrt:exit.obj
 0001:00049e7c       ??$common_ftell@_J@@YA_JV__crt_stdio_stream@@@Z 000000018004ae7c f   libucrt:ftell.obj
 0001:00049ed0       ??$common_ftell_nolock@_J@@YA_JV__crt_stdio_stream@@@Z 000000018004aed0 f   libucrt:ftell.obj
 0001:0004a048       ?common_ftell_read_mode_nolock@@YA_JV__crt_stdio_stream@@_J1@Z 000000018004b048 f   libucrt:ftell.obj
 0001:0004a1c0       ?common_ftell_translated_utf8_nolock@@YA_JV__crt_stdio_stream@@_J@Z 000000018004b1c0 f   libucrt:ftell.obj
 0001:0004a7b8       ??$common_timespec_get@U_timespec64@@@@YAHQEAU_timespec64@@H@Z 000000018004b7b8 f   libucrt:time.obj
 0001:0004a968       call_wsetlocale            000000018004b968 f   libucrt:setlocale.obj
 0001:0004b678       ?x_ismbbtype_l@@YAHPEAU__crt_locale_pointers@@IHH@Z 000000018004c678 f   libucrt:ismbbyte.obj
 0001:0004b704       ?internal_islower_l@@YA_NHQEAU__crt_locale_pointers@@@Z 000000018004c704 f   libucrt:tolower_toupper.obj
 0001:0004b754       ?internal_isupper_l@@YA_NHQEAU__crt_locale_pointers@@@Z 000000018004c754 f   libucrt:tolower_toupper.obj
 0001:0004be9c       ??$common_get_or_create_environment_nolock@D@@YAPEAPEADXZ 000000018004ce9c f   libucrt:environment_initialization.obj
 0001:0004bee4       ??$common_initialize_environment_nolock@D@@YAHXZ 000000018004cee4 f   libucrt:environment_initialization.obj
 0001:0004bf50       ??$create_environment@D@@YAQEAPEADQEAD@Z 000000018004cf50 f   libucrt:environment_initialization.obj
 0001:0004c04c       ??$free_environment@D@@YAXQEAPEAD@Z 000000018004d04c f   libucrt:environment_initialization.obj
 0001:0004c04c       ??$free_environment@_W@@YAXQEAPEA_W@Z 000000018004d04c f   libucrt:environment_initialization.obj
 0001:0004c090       ??$initialize_environment_by_cloning_nolock@D@@YAHXZ 000000018004d090 f   libucrt:environment_initialization.obj
 0001:0004c164       ??$uninitialize_environment_internal@D@@YAXAEAPEAPEAD@Z 000000018004d164 f   libucrt:environment_initialization.obj
 0001:0004c180       ??$uninitialize_environment_internal@_W@@YAXAEAPEAPEA_W@Z 000000018004d180 f   libucrt:environment_initialization.obj
 0001:0004c3c0       ??R<lambda_4e60a939b0d047cfe11ddc22648dfba9>@@QEBAHXZ 000000018004d3c0 f   libucrt:onexit.obj
 0001:0004c670       initialize_global_variables 000000018004d670 f   libucrt:initialization.obj
 0001:0004c684       initialize_c               000000018004d684 f   libucrt:initialization.obj
 0001:0004c6a8       uninitialize_environment   000000018004d6a8 f   libucrt:initialization.obj
 0001:0004c6b8       initialize_pointers        000000018004d6b8 f   libucrt:initialization.obj
 0001:0004c70c       uninitialize_vcruntime     000000018004d70c f   libucrt:initialization.obj
 0001:0004c714       uninitialize_allocated_memory 000000018004d714 f   libucrt:initialization.obj
 0001:0004d4e0       ?construct_ptd_array@@YAXQEAU__acrt_ptd@@@Z 000000018004e4e0 f   libucrt:per_thread_data.obj
 0001:0004d5b0       ?destroy_fls@@YAXPEAX@Z    000000018004e5b0 f   libucrt:per_thread_data.obj
 0001:0004d5d0       ?destroy_ptd_array@@YAXQEAU__acrt_ptd@@@Z 000000018004e5d0 f   libucrt:per_thread_data.obj
 0001:0004d6c8       ?replace_current_thread_locale_nolock@@YAXQEAU__acrt_ptd@@QEAU__crt_locale_data@@@Z 000000018004e6c8 f   libucrt:per_thread_data.obj
 0001:0004d910       ??$common_xtox@K_W@@YAHKQEA_W_KI_N@Z 000000018004e910 f   libucrt:xtoa.obj
 0001:0004d9bc       ??$common_xtox_s@K_W@@YAHKQEA_W_KI_N@Z 000000018004e9bc f   libucrt:xtoa.obj
 0001:0004dc18       ??$message_box_wait_thread@_W@@YAKQEAX@Z 000000018004ec18 f   libucrt:crtmbox.obj
 0001:0004e4bc       ?fp_format_a@@YAHQEBNPEAD_KQEAD2H_NIQEAU__crt_locale_pointers@@@Z 000000018004f4bc f   libucrt:cvt.obj
 0001:0004e81c       ?fp_format_e@@YAHQEBNQEAD_K12H_NIQEAU__crt_locale_pointers@@@Z 000000018004f81c f   libucrt:cvt.obj
 0001:0004e8ec       ?fp_format_e_internal@@YAHQEAD_KH_NIQEAU_strflt@@2QEAU__crt_locale_pointers@@@Z 000000018004f8ec f   libucrt:cvt.obj
 0001:0004eac8       ?fp_format_f_internal@@YAHQEAD_KHQEAU_strflt@@_NQEAU__crt_locale_pointers@@@Z 000000018004fac8 f   libucrt:cvt.obj
 0001:0004ec10       ?fp_format_g@@YAHQEBNQEAD_K12H_NIQEAU__crt_locale_pointers@@@Z 000000018004fc10 f   libucrt:cvt.obj
 0001:0004ed48       ?fp_format_nan_or_infinity@@YAHW4__acrt_fp_class@@_NPEAD_K1@Z 000000018004fd48 f   libucrt:cvt.obj
 0001:0004f500       ??R<lambda_2af78c5f5901b1372d98f9ab3177dfa6>@@QEBAXXZ 0000000180050500 f   libucrt:wsetlocale.obj
 0001:0004f8c4       _copytlocinfo_nolock       00000001800508c4 f   libucrt:wsetlocale.obj
 0001:0004fe84       _wsetlocale_get_all        0000000180050e84 f   libucrt:wsetlocale.obj
 0001:0005006c       _wsetlocale_nolock         000000018005106c f   libucrt:wsetlocale.obj
 0001:000502f4       _wsetlocale_set_cat        00000001800512f4 f   libucrt:wsetlocale.obj
 0001:00050634       ?initialize_inherited_file_handles_nolock@@YAXXZ 0000000180051634 f   libucrt:ioinit.obj
 0001:00050720       ?initialize_stdio_handles_nolock@@YAXXZ 0000000180051720 f   libucrt:ioinit.obj
 0001:000514e4       ?find_or_allocate_unused_stream_nolock@@YA?AV__crt_stdio_stream@@XZ 00000001800524e4 f   libucrt:stream.obj
 0001:00051b1c       ?write_double_translated_ansi_nolock@@YA?AUwrite_result@?A0x4392dfaa@@HQEBDI@Z 0000000180052b1c f   libucrt:write.obj
 0001:00051d24       ?write_text_ansi_nolock@@YA?AUwrite_result@?A0x4392dfaa@@HQEBDI@Z 0000000180052d24 f   libucrt:write.obj
 0001:00051e2c       ?write_text_utf16le_nolock@@YA?AUwrite_result@?A0x4392dfaa@@HQEBDI@Z 0000000180052e2c f   libucrt:write.obj
 0001:00051f48       ?write_text_utf8_nolock@@YA?AUwrite_result@?A0x4392dfaa@@HQEBDI@Z 0000000180052f48 f   libucrt:write.obj
 0001:0005248c       ??$write_buffer_nolock@D@@YA_NDV__crt_stdio_stream@@@Z 000000018005348c f   libucrt:_flsbuf.obj
 0001:00052590       ??$write_buffer_nolock@_W@@YA_N_WV__crt_stdio_stream@@@Z 0000000180053590 f   libucrt:_flsbuf.obj
 0001:00052ab4       ??$common_refill_and_read_nolock@D@@YAHV__crt_stdio_stream@@@Z 0000000180053ab4 f   libucrt:_filbuf.obj
 0001:00052d64       ??$common_fullpath_user_buffer@_W@@YAPEA_WQEA_WQEB_W_K@Z 0000000180053d64 f   libucrt:fullpath.obj
 0001:00053074       ?<helper_func_cdecl>@<lambda_e2bb8337c48846e80c921ea5ddadc92d>@@CAHPEA_W@Z 0000000180054074 f   libucrt:winapi_thunks.obj
 0001:00053150       ?try_get_function@@YAPEAXW4function_id@?A0x1dd686d3@@QEBDQEBW4module_id@2@2@Z 0000000180054150 f   libucrt:winapi_thunks.obj
 0001:00054380       ??$common_loctotime_t@_J@@YA_JHHHHHHH@Z 0000000180055380 f   libucrt:loctotime.obj
 0001:00054744       ??$common_lseek@_J@@YA_JH_JH@Z 0000000180055744 f   libucrt:lseek.obj
 0001:00054834       ??$common_lseek_nolock@_J@@YA_JH_JH@Z 0000000180055834 f   libucrt:lseek.obj
 0001:000548e0       ??$common_sopen_dispatch@D@@YAHQEBDHHHQEAHH@Z 00000001800558e0 f   libucrt:open.obj
 0001:000549c0       ?configure_text_mode@@YAHHUfile_options@?A0xc3dee958@@HAEAW4__crt_lowio_text_mode@@@Z 00000001800559c0 f   libucrt:open.obj
 0001:00054c54       ?decode_options@@YA?AUfile_options@?A0xc3dee958@@HHH@Z 0000000180055c54 f   libucrt:open.obj
 0001:00054e60       ?truncate_ctrl_z_if_present@@YAHH@Z 0000000180055e60 f   libucrt:open.obj
 0001:000553d8       ??$common_localtime_s@_J@@YAHQEAUtm@@QEB_J@Z 00000001800563d8 f   libucrt:localtime.obj
 0001:000556fc       ??$translate_text_mode_nolock@_W@@YAHHQEA_W_K@Z 00000001800566fc f   libucrt:read.obj
 0001:0005592c       ?translate_ansi_or_utf8_nolock@@YAHHQEAD_KQEA_W1@Z 000000018005692c f   libucrt:read.obj
 0001:000561ac       ?_mbstowcs_l_helper@@YA_KPEA_WPEBD_KPEAU__crt_locale_pointers@@@Z 00000001800571ac f   libucrt:mbstowcs.obj
 0001:000564d8       ?_wcstombs_l_helper@@YA_KPEADPEB_W_KPEAU__crt_locale_pointers@@@Z 00000001800574d8 f   libucrt:wcstombs.obj
 0001:00056a38       ?InternalGetLocaleInfoA@@YAHQEAU__crt_locale_pointers@@QEB_WKQEADH@Z 0000000180057a38 f   libucrt:getlocaleinfoa.obj
 0001:00056f54       ?__acrt_LCMapStringA_stat@@YAHPEAU__crt_locale_pointers@@PEB_WKPEBDHPEADHHH@Z 0000000180057f54 f   libucrt:lcmapstringa.obj
 0001:00057388       _call_matherr              0000000180058388 f   libucrt:libm_error.obj
 0001:000573f0       _exception_enabled         00000001800583f0 f   libucrt:libm_error.obj
 0001:000576d0       ?_isindst_nolock@@YAHQEAUtm@@@Z 00000001800586d0 f   libucrt:tzset.obj
 0001:000579ec       ?cvtdate@@YAXW4transition_type@?A0x1c323342@@W4date_type@2@HHHHHHHHH@Z 00000001800589ec f   libucrt:tzset.obj
 0001:00057be0       ?tzset_from_environment_nolock@@YAXPEAD@Z 0000000180058be0 f   libucrt:tzset.obj
 0001:00057e30       ?tzset_from_system_nolock@@YAXXZ 0000000180058e30 f   libucrt:tzset.obj
 0001:00058004       ?tzset_nolock@@YAXXZ       0000000180059004 f   libucrt:tzset.obj
 0001:000581b0       ??R<lambda_ad1ced32f4ac17aa236e5ef05d6b3b7c>@@QEBAXXZ 00000001800591b0 f   libucrt:mbctype.obj
 0001:000583c8       ?getSystemCP@@YAHH@Z       00000001800593c8 f   libucrt:mbctype.obj
 0001:00058448       ?setSBCS@@YAXPEAU__crt_multibyte_data@@@Z 0000000180059448 f   libucrt:mbctype.obj
 0001:000584d8       ?setSBUpLow@@YAXPEAU__crt_multibyte_data@@@Z 00000001800594d8 f   libucrt:mbctype.obj
 0001:000586bc       ?setmbcp_internal@@YAHH_N@Z 00000001800596bc f   libucrt:mbctype.obj
 0001:00058d08       ??$common_set_variable_in_environment_nolock@D@@YAHQEADH@Z 0000000180059d08 f   libucrt:setenv.obj
 0001:00058ff8       ??$copy_environment@D@@YAPEAPEADQEAPEAD@Z 0000000180059ff8 f   libucrt:setenv.obj
 0001:0005b08c       memcpy_s                   000000018005c08c f   libucrt:cfout.obj
 0001:0005bb04       ?free_crt_array_internal@@YAXQEAPEBX_K@Z 000000018005cb04 f   libucrt:inittime.obj
 0001:0005bb5c       ?initialize_lc_time@@YA_NQEAU__crt_lc_time_data@@QEAU__crt_locale_data@@@Z 000000018005cb5c f   libucrt:inittime.obj
 0001:0005c0b0       GetLocaleNameFromDefault   000000018005d0b0 f   libucrt:get_qualified_locale.obj
 0001:0005c158       GetLocaleNameFromLangCountry 000000018005d158 f   libucrt:get_qualified_locale.obj
 0001:0005c228       GetLocaleNameFromLanguage  000000018005d228 f   libucrt:get_qualified_locale.obj
 0001:0005c2c4       LangCountryEnumProcEx      000000018005d2c4 f   libucrt:get_qualified_locale.obj
 0001:0005c678       LanguageEnumProcEx         000000018005d678 f   libucrt:get_qualified_locale.obj
 0001:0005c764       ProcessCodePage            000000018005d764 f   libucrt:get_qualified_locale.obj
 0001:0005c818       TestDefaultCountry         000000018005d818 f   libucrt:get_qualified_locale.obj
 0001:0005c880       TranslateName              000000018005d880 f   libucrt:get_qualified_locale.obj
 0001:0005cb3c       CountryEnumProc            000000018005db3c f   libucrt:getqloc_downlevel.obj
 0001:0005cc28       GetLcidFromLangCountry     000000018005dc28 f   libucrt:getqloc_downlevel.obj
 0001:0005ccf8       GetLcidFromLanguage        000000018005dcf8 f   libucrt:getqloc_downlevel.obj
 0001:0005cd90       LangCountryEnumProc        000000018005dd90 f   libucrt:getqloc_downlevel.obj
 0001:0005cfd4       LanguageEnumProc           000000018005dfd4 f   libucrt:getqloc_downlevel.obj
 0001:0005d0d0       LcidFromHexString          000000018005e0d0 f   libucrt:getqloc_downlevel.obj
 0001:0005d120       ProcessCodePage            000000018005e120 f   libucrt:getqloc_downlevel.obj
 0001:0005d1d0       TestDefaultLanguage        000000018005e1d0 f   libucrt:getqloc_downlevel.obj
 0001:0005d27c       TranslateName              000000018005e27c f   libucrt:getqloc_downlevel.obj
 0001:0005d5a0       $$000000                   000000018005e5a0     libucrt:fpsr.obj
 0001:0005d7c0       $$000000                   000000018005e7c0     libucrt:strncmp.obj
 0001:0005da20       ??$common_getdcwd@_W@@YAPEA_WHQEA_WHHQEBDH@Z 000000018005ea20 f   libucrt:getcwd.obj
 0001:0005db74       ??$common_getdcwd_user_buffer@_W@@YAPEA_WQEA_W0I@Z 000000018005eb74 f   libucrt:getcwd.obj
 0001:0005dbe0       ?is_valid_drive@@YAHI@Z    000000018005ebe0 f   libucrt:getcwd.obj
 0001:0005dd4c       ?GetTableIndexFromLocaleName@@YAHPEB_W@Z 000000018005ed4c f   libucrt:lcidtoname_downlevel.obj
 0001:0005e1b8       ??$common_gmtime_s@_J@@YAHQEAUtm@@QEB_J@Z 000000018005f1b8 f   libucrt:gmtime.obj
 0001:0005e34c       ?compute_year@@YAHAEA_JAEA_N@Z 000000018005f34c f   libucrt:gmtime.obj
 0001:0005e50c       ??$common_getenv_nolock@D@@YAPEADQEBD@Z 000000018005f50c f   libucrt:getenv.obj
 0001:0005e594       ??$common_getenv_s@D@@YAHQEA_KQEAD_KQEBD@Z 000000018005f594 f   libucrt:getenv.obj
 0001:0005e69c       ?initialize_multibyte@@YAHXZ 000000018005f69c f   libucrt:multibyte_initializer.obj
 0001:0005e990       $$000000                   000000018005f990     libucrt:log10.obj
 0001:0005f0e0       ?InternalCompareStringA@@YAHPEAU__crt_locale_pointers@@PEB_WKPEBDH2HH@Z 00000001800600e0 f   libucrt:comparestringa.obj
 0001:0005f5a8       common_control87           00000001800605a8 f   libucrt:ieee.obj
 0001:0005f8d0       _log_special_common        00000001800608d0 f   libucrt:log_special.obj
 0001:0005fd60       $$000000                   0000000180060d60     LIBCMT:_guard_dispatch_.obj
 0001:0005fd80       ?dtor$0@?0???__Fclassic_locale@std@@YAXXZ@4HA 0000000180060d80 f   libcpmt:locale0.obj
 0001:0005fd80       ?dtor$0@?0???_G_Locimp@locale@std@@MEAAPEAXI@Z@4HA 0000000180060d80 f   libcpmt:locale0.obj
 0001:0005fd80       ?dtor$0@?0???_G_Fac_node@std@@QEAAPEAXI@Z@4HA 0000000180060d80 f   libcpmt:locale0.obj
 0001:0005fd80       ?dtor$0@?0???__Finit_atexit@@YAXXZ@4HA 0000000180060d80 f   libcpmt:iosptrs.obj
 0001:0005fd85       ?dtor$0@?0??_Locimp_dtor@_Locimp@locale@std@@CAXPEAV123@@Z@4HA 0000000180060d85 f   libcpmt:locale0.obj
 0001:0005fd85       ?dtor$0@?0??_Init@locale@std@@CAPEAV_Locimp@12@_N@Z@4HA 0000000180060d85 f   libcpmt:locale0.obj
 0001:0005fd91       __scrt_is_nonwritable_in_current_image$filt$0 0000000180060d91 f   LIBCMT:utility.obj
 0001:0005fda9       ?fin$0@?0??dllmain_crt_process_attach@@YAHQEAUHINSTANCE__@@QEAX@Z@4HA 0000000180060da9 f   LIBCMT:dll_dllmain.obj
 0001:0005fdc0       ?fin$0@?0??dllmain_crt_process_detach@@YAH_N@Z@4HA 0000000180060dc0 f   LIBCMT:dll_dllmain.obj
 0001:0005fddc       ?filt$0@?0??dllmain_dispatch@@YAHQEAUHINSTANCE__@@KQEAX@Z@4HA 0000000180060ddc f   LIBCMT:dll_dllmain.obj
 0001:0005fe12       __CxxCallCatchBlock$filt$0 0000000180060e12 f   libvcruntime:frame.obj
 0001:0005fe37       __CxxCallCatchBlock$fin$1  0000000180060e37 f   libvcruntime:frame.obj
 0001:0005feaf       __DestructExceptionObject$filt$0 0000000180060eaf f   libvcruntime:frame.obj
 0001:0005fec7       __FrameUnwindToState$filt$0 0000000180060ec7 f   libvcruntime:frame.obj
 0001:0005fedd       __FrameUnwindToState$fin$1 0000000180060edd f   libvcruntime:frame.obj
 0001:0005ff00       _CallSETranslator$filt$0   0000000180060f00 f   libvcruntime:trnsctrl.obj
 0001:0005ff4c       ?fin$0@?0???$common_fsopen@D@@YAPEAU_iobuf@@QEBD0H@Z@4HA 0000000180060f4c f   libucrt:fopen.obj
 0001:0005ff77       ?fin$0@?0???$?RV<lambda_aa279a7bcb127014629d5b1d62c7325d>@@AEAV<lambda_0a64b6a4deda75c01876f29c44fc5eb3>@@V<lambda_3323e69fbefe9d1a11713e670d47cdfa>@@@?$__crt_seh_guarded_call@H@@QEAAH$$QEAV<lambda_aa279a7bcb127014629d5b1d62c7325d>@@AEAV<lambda_0a64b6a4deda75c01876f29c44fc5eb3>@@$$QEAV<lambda_3323e69fbefe9d1a11713e670d47cdfa>@@@Z@4HA 0000000180060f77 f   libucrt:output.obj
 0001:0005ff77       ?fin$0@?0???$?RV<lambda_7a5ef57ff966f610505f1d28a3d40618>@@AEAV<lambda_b721fa326cdb32351d23dfa67958c160>@@V<lambda_5e0fb27672408a07956fe59e48ccb2aa>@@@?$__crt_seh_guarded_call@H@@QEAAH$$QEAV<lambda_7a5ef57ff966f610505f1d28a3d40618>@@AEAV<lambda_b721fa326cdb32351d23dfa67958c160>@@$$QEAV<lambda_5e0fb27672408a07956fe59e48ccb2aa>@@@Z@4HA 0000000180060f77 f   libucrt:setvbuf.obj
 0001:0005ff77       ?fin$0@?0???$?RV<lambda_5d4c3fee44080f75d5d9762853974fe0>@@AEAV<lambda_532e024f4337e6fc7ad266c2bef9f4ed>@@V<lambda_c87bdc10097eb2402edb8ba9bdf0697b>@@@?$__crt_seh_guarded_call@_K@@QEAA_K$$QEAV<lambda_5d4c3fee44080f75d5d9762853974fe0>@@AEAV<lambda_532e024f4337e6fc7ad266c2bef9f4ed>@@$$QEAV<lambda_c87bdc10097eb2402edb8ba9bdf0697b>@@@Z@4HA 0000000180060f77 f   libucrt:fwrite.obj
 0001:0005ff77       ?fin$0@?0???$?RV<lambda_7b91131dde12e1c3dfc74ff76b3f2eac>@@AEAV<lambda_dd75445284c072d0bd3768540cc698fa>@@V<lambda_16bc4ecb55b4718497c16bceaea2ceaf>@@@?$__crt_seh_guarded_call@H@@QEAAH$$QEAV<lambda_7b91131dde12e1c3dfc74ff76b3f2eac>@@AEAV<lambda_dd75445284c072d0bd3768540cc698fa>@@$$QEAV<lambda_16bc4ecb55b4718497c16bceaea2ceaf>@@@Z@4HA 0000000180060f77 f   libucrt:output.obj
 0001:0005ff92       fputc$fin$0                0000000180060f92 f   libucrt:fputc.obj
 0001:0005ffac       common_flush_all$fin$0     0000000180060fac f   libucrt:fflush.obj
 0001:0005ffc6       common_flush_all$fin$1     0000000180060fc6 f   libucrt:fflush.obj
 0001:0005ffdf       fflush$fin$0               0000000180060fdf f   libucrt:fflush.obj
 0001:0005ffdf       fclose$fin$0               0000000180060fdf f   libucrt:fclose.obj
 0001:0005fff7       fgetc$fin$0                0000000180060ff7 f   libucrt:fgetc.obj
 0001:00060011       ungetc$fin$0               0000000180061011 f   libucrt:ungetc.obj
 0001:00060029       ?fin$0@?0??common_fseek@@YAHV__crt_stdio_stream@@_JH@Z@4HA 0000000180061029 f   libucrt:fseek.obj
 0001:00060029       ?fin$0@?0???$common_ftell@_J@@YA_JV__crt_stdio_stream@@@Z@4HA 0000000180061029 f   libucrt:ftell.obj
 0001:00060043       ?filt$0@?0??common_exit@@YAXHW4_crt_exit_cleanup_mode@@W4_crt_exit_return_mode@@@Z@4HA 0000000180061043 f   libucrt:exit.obj
 0001:0006005e       ?fin$1@?0??common_exit@@YAXHW4_crt_exit_cleanup_mode@@W4_crt_exit_return_mode@@@Z@4HA 000000018006105e f   libucrt:exit.obj
 0001:00060077       fread_s$fin$0              0000000180061077 f   libucrt:fread.obj
 0001:0006008f       setlocale$fin$0            000000018006108f f   libucrt:setlocale.obj
 0001:000600aa       _query_new_handler$fin$0   00000001800610aa f   libucrt:new_handler.obj
 0001:000600c0       ?fin$0@?0???$?RV<lambda_e24bbb7b643b32fcea6fa61b31d4c984>@@AEAV<lambda_275893d493268fdec8709772e3fcec0e>@@V<lambda_9d71df4d7cf3f480f8d633942495c3b0>@@@?$__crt_seh_guarded_call@H@@QEAAH$$QEAV<lambda_e24bbb7b643b32fcea6fa61b31d4c984>@@AEAV<lambda_275893d493268fdec8709772e3fcec0e>@@$$QEAV<lambda_9d71df4d7cf3f480f8d633942495c3b0>@@@Z@4HA 00000001800610c0 f   libucrt:onexit.obj
 0001:000600dd       ?fin$0@?0???$?RV<lambda_46352004c1216016012b18bd6f87e700>@@AEAV<lambda_3bd07e1a1191394380780325891bf33f>@@V<lambda_334532d3f185bcaa59b5be82d7d22bff>@@@?$__crt_seh_guarded_call@X@@QEAAX$$QEAV<lambda_46352004c1216016012b18bd6f87e700>@@AEAV<lambda_3bd07e1a1191394380780325891bf33f>@@$$QEAV<lambda_334532d3f185bcaa59b5be82d7d22bff>@@@Z@4HA 00000001800610dd f   libucrt:per_thread_data.obj
 0001:000600dd       ?fin$0@?0???$?RV<lambda_c36588078e9f5dfd39652860aa6b3aaf>@@AEAV<lambda_ec61778202f4f5fc7e7711acc23c3bca>@@V<lambda_dc9d2797ccde5d239b4a0efae8ebd7db>@@@?$__crt_seh_guarded_call@P6AXH@Z@@QEAAP6AXH@Z$$QEAV<lambda_c36588078e9f5dfd39652860aa6b3aaf>@@AEAV<lambda_ec61778202f4f5fc7e7711acc23c3bca>@@$$QEAV<lambda_dc9d2797ccde5d239b4a0efae8ebd7db>@@@Z@4HA 00000001800610dd f   libucrt:signal.obj
 0001:000600dd       ?fin$0@?0???$?RV<lambda_b8c45f8f788dd370798f47cfe8ac3a86>@@AEAV<lambda_4e60a939b0d047cfe11ddc22648dfba9>@@V<lambda_332c3edc96d0294ec56c57d38c1cdfd5>@@@?$__crt_seh_guarded_call@H@@QEAAH$$QEAV<lambda_b8c45f8f788dd370798f47cfe8ac3a86>@@AEAV<lambda_4e60a939b0d047cfe11ddc22648dfba9>@@$$QEAV<lambda_332c3edc96d0294ec56c57d38c1cdfd5>@@@Z@4HA 00000001800610dd f   libucrt:onexit.obj
 0001:000600dd       ?fin$0@?0???$?RV<lambda_630b2aca97f6d20d5b5ea6529ea6b6af>@@AEAV<lambda_af91936f1d075d609f72d9d8cba980af>@@V<lambda_e82fa975f615b5c7c7b0e4d178fdae67>@@@?$__crt_seh_guarded_call@H@@QEAAH$$QEAV<lambda_630b2aca97f6d20d5b5ea6529ea6b6af>@@AEAV<lambda_af91936f1d075d609f72d9d8cba980af>@@$$QEAV<lambda_e82fa975f615b5c7c7b0e4d178fdae67>@@@Z@4HA 00000001800610dd f   libucrt:winapi_thunks.obj
 0001:000600dd       ?fin$0@?0???$?RV<lambda_99476a1ad63dd22509b5d3e65b0ffc95>@@AEAV<lambda_ad1ced32f4ac17aa236e5ef05d6b3b7c>@@V<lambda_f7424dd8d45958661754dc4f2697e9c3>@@@?$__crt_seh_guarded_call@X@@QEAAX$$QEAV<lambda_99476a1ad63dd22509b5d3e65b0ffc95>@@AEAV<lambda_ad1ced32f4ac17aa236e5ef05d6b3b7c>@@$$QEAV<lambda_f7424dd8d45958661754dc4f2697e9c3>@@@Z@4HA 00000001800610dd f   libucrt:mbctype.obj
 0001:000600dd       ?fin$0@?0???$?RV<lambda_72d1df2b273a38828b1ce30cbf4cdab5>@@AEAV<lambda_876a65b173b8412d3a47c70a915b0cf4>@@V<lambda_41932305e351933ebe8f8be3ed8bb5dc>@@@?$__crt_seh_guarded_call@X@@QEAAX$$QEAV<lambda_72d1df2b273a38828b1ce30cbf4cdab5>@@AEAV<lambda_876a65b173b8412d3a47c70a915b0cf4>@@$$QEAV<lambda_41932305e351933ebe8f8be3ed8bb5dc>@@@Z@4HA 00000001800610dd f   libucrt:per_thread_data.obj
 0001:000600dd       ?fin$0@?0???$?RV<lambda_d67e8342c384adda8f857579ab50b2ae>@@AEAV<lambda_30712929f77e709619002f448b6a9510>@@V<lambda_4525336fd7e478d965fb7ca7a337cad8>@@@?$__crt_seh_guarded_call@X@@QEAAX$$QEAV<lambda_d67e8342c384adda8f857579ab50b2ae>@@AEAV<lambda_30712929f77e709619002f448b6a9510>@@$$QEAV<lambda_4525336fd7e478d965fb7ca7a337cad8>@@@Z@4HA 00000001800610dd f   libucrt:wsetlocale.obj
 0001:000600dd       ?fin$0@?0???$?RV<lambda_fb3a7dec4e47f37f22dae91bb15c9095>@@AEAV<lambda_698284760c8add0bfb0756c19673e34b>@@V<lambda_dfb8eca1e75fef3034a8fb18dd509707>@@@?$__crt_seh_guarded_call@X@@QEAAX$$QEAV<lambda_fb3a7dec4e47f37f22dae91bb15c9095>@@AEAV<lambda_698284760c8add0bfb0756c19673e34b>@@$$QEAV<lambda_dfb8eca1e75fef3034a8fb18dd509707>@@@Z@4HA 00000001800610dd f   libucrt:per_thread_data.obj
 0001:000600dd       ?fin$0@?0???$?RV<lambda_5e887d1dcbef67a5eb4283622ba103bf>@@AEAV<lambda_4466841279450cc726390878d4a41900>@@V<lambda_341c25c0346d94847f1f3c463c57e077>@@@?$__crt_seh_guarded_call@X@@QEAAX$$QEAV<lambda_5e887d1dcbef67a5eb4283622ba103bf>@@AEAV<lambda_4466841279450cc726390878d4a41900>@@$$QEAV<lambda_341c25c0346d94847f1f3c463c57e077>@@@Z@4HA 00000001800610dd f   libucrt:per_thread_data.obj
 0001:000600f7       raise$fin$0                00000001800610f7 f   libucrt:signal.obj
 0001:0006011b       ?fin$0@?0???$?RV<lambda_5df02c53a8f32f81fd64e5bbb78039f1>@@AEAV<lambda_2af78c5f5901b1372d98f9ab3177dfa6>@@AEAV<lambda_f51fe5fd7c79a33db34fc9310f277369>@@@?$__crt_seh_guarded_call@X@@QEAAX$$QEAV<lambda_5df02c53a8f32f81fd64e5bbb78039f1>@@AEAV<lambda_2af78c5f5901b1372d98f9ab3177dfa6>@@AEAV<lambda_f51fe5fd7c79a33db34fc9310f277369>@@@Z@4HA 000000018006111b f   libucrt:wsetlocale.obj
 0001:0006013c       __acrt_uninitialize_locale$fin$0 000000018006113c f   libucrt:wsetlocale.obj
 0001:0006013c       __acrt_update_thread_locale_data$fin$0 000000018006113c f   libucrt:locale_refcounting.obj
 0001:00060155       __acrt_lowio_ensure_fh_exists$fin$0 0000000180061155 f   libucrt:osfinfo.obj
 0001:00060155       __acrt_initialize_lowio$fin$0 0000000180061155 f   libucrt:ioinit.obj
 0001:00060155       _alloc_osfhnd$fin$0        0000000180061155 f   libucrt:osfinfo.obj
 0001:0006016e       common_control87$filt$0    000000018006116e f   libucrt:ieee.obj
 0001:0006016e       _ctrlfp$filt$0             000000018006116e f   libucrt:fpctrl.obj
 0001:0006019a       _fcloseall$fin$0           000000018006119a f   libucrt:closeall.obj
 0001:0006019a       ?fin$0@?0??__acrt_stdio_allocate_stream@@YA?AV__crt_stdio_stream@@XZ@4HA 000000018006119a f   libucrt:stream.obj
 0001:000601b3       ?fin$0@?0???$?RV<lambda_b521505b218e5242e90febf6bfebc422>@@AEAV<lambda_6978c1fb23f02e42e1d9e99668cc68aa>@@V<lambda_314360699dd331753a4119843814e9a7>@@@?$__crt_seh_guarded_call@H@@QEAAH$$QEAV<lambda_b521505b218e5242e90febf6bfebc422>@@AEAV<lambda_6978c1fb23f02e42e1d9e99668cc68aa>@@$$QEAV<lambda_314360699dd331753a4119843814e9a7>@@@Z@4HA 00000001800611b3 f   libucrt:commit.obj
 0001:000601b3       ?fin$0@?0???$?RV<lambda_bfedae4ebbf01fab1bb6dcc6a9e276e0>@@AEAV<lambda_2fe9b910cf3cbf4a0ab98a02ba45b3ec>@@V<lambda_237c231691f317818eb88cc1d5d642d6>@@@?$__crt_seh_guarded_call@H@@QEAAH$$QEAV<lambda_bfedae4ebbf01fab1bb6dcc6a9e276e0>@@AEAV<lambda_2fe9b910cf3cbf4a0ab98a02ba45b3ec>@@$$QEAV<lambda_237c231691f317818eb88cc1d5d642d6>@@@Z@4HA 00000001800611b3 f   libucrt:close.obj
 0001:000601cd       ?fin$0@?0???$common_sopen_dispatch@D@@YAHQEBDHHHQEAHH@Z@4HA 00000001800611cd f   libucrt:open.obj
 0001:00060220       _read$fin$0                0000000180061220 f   libucrt:read.obj
 0001:00060220       _write$fin$0               0000000180061220 f   libucrt:write.obj
 0001:00060220       ?fin$0@?0???$common_lseek@_J@@YA_JH_JH@Z@4HA 0000000180061220 f   libucrt:lseek.obj
 0001:00060237       _isindst$fin$0             0000000180061237 f   libucrt:tzset.obj
 0001:00060237       __tzset$fin$0              0000000180061237 f   libucrt:tzset.obj
 0001:00060250       __acrt_update_thread_multibyte_data$fin$0 0000000180061250 f   libucrt:mbctype.obj
 0001:00060269       ?fin$0@?0???$common_getenv_s@D@@YAHQEA_KQEAD_KQEBD@Z@4HA 0000000180061269 f   libucrt:getenv.obj
 0001:00060290       _IsNonwritableInCurrentImage$filt$0 0000000180061290 f   LIBCMT:pesect.obj
 0001:00060320       ??__Fg_persistent_steam_events@?A0xdf905945@@YAXXZ 0000000180061320 f   greenworks_api.obj
 0001:00060324       ??__Finitlocks@std@@YAXXZ  0000000180061324 f   libcpmt:xlock.obj
 0001:00060330       ??__F_Fac_tidy_reg@std@@YAXXZ 0000000180061330 f   libcpmt:locale0.obj
 0001:0006035c       ??__Fclassic_locale@std@@YAXXZ 000000018006135c f   libcpmt:locale0.obj
 0001:000603bc       ??__Finit_atexit@@YAXXZ    00000001800613bc f   libcpmt:iosptrs.obj
 0001:00060410       ??__Finitlocks@std@@YAXXZ  0000000180061410 f   libcpmt:iosptrs.obj
 0002:00000670       ?initlocks$initializer$@std@@3P6AXXZEA 0000000180062670     libcpmt:xlock.obj
 0002:00000678       ?initlocks$initializer$@std@@3P6AXXZEA 0000000180062678     libcpmt:iosptrs.obj
 0002:00000680       ?init_atexit$initializer$@@3P6AXXZEA 0000000180062680     libcpmt:iosptrs.obj
 0002:00000688       ?_Fac_tidy_reg$initializer$@std@@3P6AXXZEA 0000000180062688     libcpmt:locale0.obj
 0002:00000690       ?classic_locale$initializer$@std@@3P6AXXZEA 0000000180062690     libcpmt:locale0.obj
 0002:000006a0       ?X$initializer$@?A0x03570d69@api@greenworks@@3P6AXXZEA 00000001800626a0     greenworks_api_utils.obj
 0002:000006a8       ?X$initializer$@?A0x3d8aa09c@api@greenworks@@3P6AXXZEA 00000001800626a8     steam_api_achievement.obj
 0002:000006b0       ?X$initializer$@?A0xeb4a7f0e@api@greenworks@@3P6AXXZEA 00000001800626b0     steam_api_auth.obj
 0002:000006b8       ?X$initializer$@?A0x452d44e3@api@greenworks@@3P6AXXZEA 00000001800626b8     steam_api_cloud.obj
 0002:000006c0       ?X$initializer$@?A0xf2ee2f33@api@greenworks@@3P6AXXZEA 00000001800626c0     steam_api_dlc.obj
 0002:000006c8       ?X$initializer$@?A0x441f1908@api@greenworks@@3P6AXXZEA 00000001800626c8     steam_api_friends.obj
 0002:000006d0       ?X$initializer$@?A0xa5dd25c1@api@greenworks@@3P6AXXZEA 00000001800626d0     steam_api_settings.obj
 0002:000006d8       ?X$initializer$@?A0x0f10cf66@api@greenworks@@3P6AXXZEA 00000001800626d8     steam_api_stats.obj
 0002:000006e0       ?X$initializer$@?A0x1f4b5bb9@api@greenworks@@3P6AXXZEA 00000001800626e0     steam_api_workshop.obj
 0002:000006e8       ?g_persistent_steam_events$initializer$@?A0xdf905945@@3P6AXXZEA 00000001800626e8     greenworks_api.obj
 0002:00000700       ?pinit@@3P6AHXZEA          0000000180062700     libcpmt:winapisupp.obj
 0002:00000708       ?__scrt_initialize_tss_var@@3P6AHXZEA 0000000180062708     LIBCMT:thread_safe_statics.obj
 0002:00000868       $cppxdata$??_G_Fac_node@std@@QEAAPEAXI@Z 0000000180062868     libcpmt:locale0.obj
 0002:00000890       $cppxdata$?_Locimp_dtor@_Locimp@locale@std@@CAXPEAV123@@Z 0000000180062890     libcpmt:locale0.obj
 0002:000008b8       $cppxdata$??_G_Locimp@locale@std@@MEAAPEAXI@Z 00000001800628b8     libcpmt:locale0.obj
 0002:000008e0       $cppxdata$?_Init@locale@std@@CAPEAV_Locimp@12@_N@Z 00000001800628e0     libcpmt:locale0.obj
 0002:00000908       $cppxdata$??__Fclassic_locale@std@@YAXXZ 0000000180062908     libcpmt:locale0.obj
 0002:00000980       ?_Win_errtab@std@@3QBU_Win_errtab_t@1@B 0000000180062980     libcpmt:syserror.obj
 0002:00000bd0       ?_Sys_errtab@std@@3QBU_Sys_errtab_t@1@B 0000000180062bd0     libcpmt:syserror.obj
 0002:00001770       digits                     0000000180063770     libcpmt:xstoul.obj
 0002:00001798       ndigs                      0000000180063798     libcpmt:xstoul.obj
 0002:000017d0       ?mods@?1??_Xfsopen@std@@YAPEAU_iobuf@@PEBDHH@Z@4QBQEBDB 00000001800637d0     libcpmt:fiopen.obj
 0002:000018b0       digits                     00000001800638b0     libcpmt:xstoull.obj
 0002:000018d8       ndigs                      00000001800638d8     libcpmt:xstoull.obj
 0002:00001910       $cppxdata$??__Finit_atexit@@YAXXZ 0000000180063910     libcpmt:iosptrs.obj
 0002:00001b10       ?digits@?1??_Stoxflt@@9@9  0000000180063b10     libcpmt:xstoxflt.obj
 0002:00001b28       ?vals@?1??_Stoxflt@@9@9    0000000180063b28     libcpmt:xstoxflt.obj
 0002:00001b68       tenth                      0000000180063b68     libcpmt:xfdtento.obj
 0002:00001b98       tenth                      0000000180063b98     libcpmt:xdtento.obj
 0002:00001bc0       tenth                      0000000180063bc0     libcpmt:xldtento.obj
 0002:00002700       ?LcidToLocaleNameTable@@3QBULcidToLocaleName@@B 0000000180064700     libcpmt:winapinls.obj
 0002:00003540       ?LocaleNameToIndexTable@@3QBULocaleNameIndex@@B 0000000180065540     libcpmt:winapinls.obj
 0002:00005320       ?mask@?3??_FDint@@9@9      0000000180067320     libcpmt:xfdint.obj
 0002:00005340       ?sub@?3??_FDint@@9@9       0000000180067340     libcpmt:xfdint.obj
 0002:00005350       ?mask@?3??_Dint@@9@9       0000000180067350     libcpmt:xdint.obj
 0002:00005370       ?sub@?3??_Dint@@9@9        0000000180067370     libcpmt:xdint.obj
 0002:000053a0       GS_ExceptionPointers       00000001800673a0     LIBCMT:gs_report.obj
 0002:000053f0       ?ExceptionTemplate@?1??_CxxThrowException@@9@4UEHExceptionRecord@@B 00000001800673f0     libvcruntime:throw.obj
 0002:00005460       ?ExceptionTemplate@?1??_UnwindNestedFrames@@9@4U_EXCEPTION_RECORD@@B 0000000180067460     libvcruntime:trnsctrl.obj
 0002:000054f8       ?module_names@?A0xece66f1d@@3QBQEB_WB 00000001800674f8     libvcruntime:winapi_downlevel.obj
 0002:000055c4       ?candidate_modules@?1??try_get_EventRegister@@YAP6AKPEBU_GUID@@P6AX0KE_K1PEAU_EVENT_FILTER_DESCRIPTOR@@PEAX@Z3PEA_K@ZXZ@4QBW4module_id@?A0xece66f1d@@B 00000001800675c4     libvcruntime:winapi_downlevel.obj
 0002:000055d8       ?candidate_modules@?1??try_get_EventSetInformation@@YAP6AK_KW4_EVENT_INFO_CLASS@@PEAXK@ZXZ@4QBW4module_id@?A0xece66f1d@@B 00000001800675d8     libvcruntime:winapi_downlevel.obj
 0002:000055f4       ?candidate_modules@?1??try_get_EventUnregister@@YAP6AK_K@ZXZ@4QBW4module_id@?A0xece66f1d@@B 00000001800675f4     libvcruntime:winapi_downlevel.obj
 0002:00005608       ?candidate_modules@?1??try_get_EventWriteTransfer@@YAP6AK_KPEBU_EVENT_DESCRIPTOR@@PEBU_GUID@@2KPEAU_EVENT_DATA_DESCRIPTOR@@@ZXZ@4QBW4module_id@?A0xece66f1d@@B 0000000180067608     libvcruntime:winapi_downlevel.obj
 0002:00005628       ?candidate_modules@?1??try_get_FlsAlloc@@YAP6AKP6AXPEAX@Z@ZXZ@4QBW4module_id@?A0xece66f1d@@B 0000000180067628     libvcruntime:winapi_downlevel.obj
 0002:00005630       ?candidate_modules@?1??try_get_FlsFree@@YAP6AHK@ZXZ@4QBW4module_id@?A0xece66f1d@@B 0000000180067630     libvcruntime:winapi_downlevel.obj
 0002:00005638       ?candidate_modules@?1??try_get_FlsGetValue@@YAP6APEAXK@ZXZ@4QBW4module_id@?A0xece66f1d@@B 0000000180067638     libvcruntime:winapi_downlevel.obj
 0002:00005640       ?candidate_modules@?1??try_get_FlsSetValue@@YAP6AHKPEAX@ZXZ@4QBW4module_id@?A0xece66f1d@@B 0000000180067640     libvcruntime:winapi_downlevel.obj
 0002:00005648       ?candidate_modules@?1??try_get_InitializeCriticalSectionEx@@YAP6AHPEAU_RTL_CRITICAL_SECTION@@KK@ZXZ@4QBW4module_id@?A0xece66f1d@@B 0000000180067648     libvcruntime:winapi_downlevel.obj
 0002:00005b20       ?rttiTable@@3QBQEBDB       0000000180067b20     libvcruntime:undname.obj
 0002:00005b50       ?tokenTable@@3QBQEBDB      0000000180067b50     libvcruntime:undname.obj
 0002:00005bc0       ?nameTable@@3QBQEBDB       0000000180067bc0     libvcruntime:undname.obj
 0002:000063c0       errtable                   00000001800683c0     libucrt:errno.obj
 0002:00006e90       __acrt_initializers        0000000180068e90     libucrt:initialization.obj
 0002:000070f0       _first_127char             00000001800690f0     libucrt:wsetlocale.obj
 0002:00007810       ?_names@?1??_get_fname@@9@9 0000000180069810     libucrt:fpexcept.obj
 0002:00007ae0       module_names               0000000180069ae0     libucrt:winapi_thunks.obj
 0002:00008010       ?candidate_modules@?1??try_get_AreFileApisANSI@@YAP6AHXZXZ@4QBW4module_id@?A0x1dd686d3@@B 000000018006a010     libucrt:winapi_thunks.obj
 0002:00008028       ?candidate_modules@?1??try_get_CompareStringEx@@YAP6AHPEB_WK0H0HPEAU_nlsversioninfo@@PEAX_J@ZXZ@4QBW4module_id@?A0x1dd686d3@@B 000000018006a028     libucrt:winapi_thunks.obj
 0002:00008030       ?candidate_modules@?1??try_get_EnumSystemLocalesEx@@YAP6AHP6AHPEA_WK_J@ZK1PEAX@ZXZ@4QBW4module_id@?A0x1dd686d3@@B 000000018006a030     libucrt:winapi_thunks.obj
 0002:00008050       ?candidate_modules@?1??try_get_FlsAlloc@@YAP6AKP6AXPEAX@Z@ZXZ@4QBW4module_id@?A0x1dd686d3@@B 000000018006a050     libucrt:winapi_thunks.obj
 0002:00008058       ?candidate_modules@?1??try_get_FlsFree@@YAP6AHK@ZXZ@4QBW4module_id@?A0x1dd686d3@@B 000000018006a058     libucrt:winapi_thunks.obj
 0002:00008060       ?candidate_modules@?1??try_get_FlsGetValue@@YAP6APEAXK@ZXZ@4QBW4module_id@?A0x1dd686d3@@B 000000018006a060     libucrt:winapi_thunks.obj
 0002:00008068       ?candidate_modules@?1??try_get_FlsSetValue@@YAP6AHKPEAX@ZXZ@4QBW4module_id@?A0x1dd686d3@@B 000000018006a068     libucrt:winapi_thunks.obj
 0002:00008070       ?candidate_modules@?1??try_get_GetActiveWindow@@YAP6APEAUHWND__@@XZXZ@4QBW4module_id@?A0x1dd686d3@@B 000000018006a070     libucrt:winapi_thunks.obj
 0002:00008088       ?candidate_modules@?1??try_get_GetCurrentPackageId@@YAP6AJPEAIPEAE@ZXZ@4QBW4module_id@?A0x1dd686d3@@B 000000018006a088     libucrt:winapi_thunks.obj
 0002:00008090       ?candidate_modules@?1??try_get_GetFileInformationByHandleEx@@YAP6AHPEAXW4_FILE_INFO_BY_HANDLE_CLASS@@0K@ZXZ@4QBW4module_id@?A0x1dd686d3@@B 000000018006a090     libucrt:winapi_thunks.obj
 0002:00008098       ?candidate_modules@?1??try_get_GetLastActivePopup@@YAP6APEAUHWND__@@PEAU2@@ZXZ@4QBW4module_id@?A0x1dd686d3@@B 000000018006a098     libucrt:winapi_thunks.obj
 0002:000080b8       ?candidate_modules@?1??try_get_GetLocaleInfoEx@@YAP6AHPEB_WKPEA_WH@ZXZ@4QBW4module_id@?A0x1dd686d3@@B 000000018006a0b8     libucrt:winapi_thunks.obj
 0002:000080c0       ?candidate_modules@?1??try_get_GetProcessWindowStation@@YAP6APEAUHWINSTA__@@XZXZ@4QBW4module_id@?A0x1dd686d3@@B 000000018006a0c0     libucrt:winapi_thunks.obj
 0002:000080e0       ?candidate_modules@?1??try_get_GetSystemTimePreciseAsFileTime@@YAP6AXPEAU_FILETIME@@@ZXZ@4QBW4module_id@?A0x1dd686d3@@B 000000018006a0e0     libucrt:winapi_thunks.obj
 0002:000080e8       ?candidate_modules@?1??try_get_GetUserDefaultLocaleName@@YAP6AHPEA_WH@ZXZ@4QBW4module_id@?A0x1dd686d3@@B 000000018006a0e8     libucrt:winapi_thunks.obj
 0002:00008110       ?candidate_modules@?1??try_get_GetUserObjectInformationW@@YAP6AHPEAXH0KPEAK@ZXZ@4QBW4module_id@?A0x1dd686d3@@B 000000018006a110     libucrt:winapi_thunks.obj
 0002:00008138       ?candidate_modules@?1??try_get_InitializeCriticalSectionEx@@YAP6AHPEAU_RTL_CRITICAL_SECTION@@KK@ZXZ@4QBW4module_id@?A0x1dd686d3@@B 000000018006a138     libucrt:winapi_thunks.obj
 0002:00008140       ?candidate_modules@?1??try_get_IsValidLocaleName@@YAP6AHPEB_W@ZXZ@4QBW4module_id@?A0x1dd686d3@@B 000000018006a140     libucrt:winapi_thunks.obj
 0002:00008160       ?candidate_modules@?1??try_get_LCMapStringEx@@YAP6AHPEB_WK0HPEA_WHPEAU_nlsversioninfo@@PEAX_J@ZXZ@4QBW4module_id@?A0x1dd686d3@@B 000000018006a160     libucrt:winapi_thunks.obj
 0002:00008168       ?candidate_modules@?1??try_get_LCIDToLocaleName@@YAP6AHKPEA_WHK@ZXZ@4QBW4module_id@?A0x1dd686d3@@B 000000018006a168     libucrt:winapi_thunks.obj
 0002:00008188       ?candidate_modules@?1??try_get_LocaleNameToLCID@@YAP6AKPEB_WK@ZXZ@4QBW4module_id@?A0x1dd686d3@@B 000000018006a188     libucrt:winapi_thunks.obj
 0002:000081a8       ?candidate_modules@?1??try_get_MessageBoxA@@YAP6AHPEAUHWND__@@PEBD1I@ZXZ@4QBW4module_id@?A0x1dd686d3@@B 000000018006a1a8     libucrt:winapi_thunks.obj
 0002:000081c0       ?candidate_modules@?1??try_get_MessageBoxW@@YAP6AHPEAUHWND__@@PEB_W1I@ZXZ@4QBW4module_id@?A0x1dd686d3@@B 000000018006a1c0     libucrt:winapi_thunks.obj
 0002:000081d8       _mb_locale_names           000000018006a1d8     libucrt:mbctype.obj
 0002:00009bc0       __real@433fffffffffffff    000000018006bbc0     libucrt:fpsr.obj
 0002:00009bc8       __real@c33fffffffffffff    000000018006bbc8     libucrt:fpsr.obj
 0002:00009bd0       LcidToLocaleNameTable      000000018006bbd0     libucrt:lcidtoname_downlevel.obj
 0002:0000aa10       LocaleNameToIndexTable     000000018006ca10     libucrt:lcidtoname_downlevel.obj
 0002:0000b8c0       __real_ninf                000000018006d8c0     libucrt:log10.obj
 0002:0000b8d0       __real_inf                 000000018006d8d0     libucrt:log10.obj
 0002:0000b8e0       __real_neg_qnan            000000018006d8e0     libucrt:log10.obj
 0002:0000b8f0       __real_qnanbit             000000018006d8f0     libucrt:log10.obj
 0002:0000b900       __int_1023                 000000018006d900     libucrt:log10.obj
 0002:0000b910       __mask_001                 000000018006d910     libucrt:log10.obj
 0002:0000b920       __mask_mant                000000018006d920     libucrt:log10.obj
 0002:0000b930       __mask_mant_top8           000000018006d930     libucrt:log10.obj
 0002:0000b940       __mask_mant9               000000018006d940     libucrt:log10.obj
 0002:0000b950       __real_log10_e             000000018006d950     libucrt:log10.obj
 0002:0000b960       __real_log10_e_lead        000000018006d960     libucrt:log10.obj
 0002:0000b970       __real_log10_e_tail        000000018006d970     libucrt:log10.obj
 0002:0000b980       __real_log10_2_lead        000000018006d980     libucrt:log10.obj
 0002:0000b990       __real_log10_2_tail        000000018006d990     libucrt:log10.obj
 0002:0000b9a0       __real_two                 000000018006d9a0     libucrt:log10.obj
 0002:0000b9b0       __real_one                 000000018006d9b0     libucrt:log10.obj
 0002:0000b9c0       __real_half                000000018006d9c0     libucrt:log10.obj
 0002:0000b9d0       __mask_100                 000000018006d9d0     libucrt:log10.obj
 0002:0000b9e0       __real_1_over_512          000000018006d9e0     libucrt:log10.obj
 0002:0000b9f0       __real_1_over_2            000000018006d9f0     libucrt:log10.obj
 0002:0000ba00       __real_1_over_3            000000018006da00     libucrt:log10.obj
 0002:0000ba10       __real_1_over_4            000000018006da10     libucrt:log10.obj
 0002:0000ba20       __real_1_over_5            000000018006da20     libucrt:log10.obj
 0002:0000ba30       __real_1_over_6            000000018006da30     libucrt:log10.obj
 0002:0000ba40       __real_neg_1023            000000018006da40     libucrt:log10.obj
 0002:0000ba50       __mask_2045                000000018006da50     libucrt:log10.obj
 0002:0000ba60       __real_threshold           000000018006da60     libucrt:log10.obj
 0002:0000ba70       __real_near_one_lt         000000018006da70     libucrt:log10.obj
 0002:0000ba80       __real_near_one_gt         000000018006da80     libucrt:log10.obj
 0002:0000ba90       __real_min_norm            000000018006da90     libucrt:log10.obj
 0002:0000baa0       __real_notsign             000000018006daa0     libucrt:log10.obj
 0002:0000bab0       __real_ca1                 000000018006dab0     libucrt:log10.obj
 0002:0000bac0       __real_ca2                 000000018006dac0     libucrt:log10.obj
 0002:0000bad0       __real_ca3                 000000018006dad0     libucrt:log10.obj
 0002:0000bae0       __real_ca4                 000000018006dae0     libucrt:log10.obj
 0002:0000baf0       __mask_lower               000000018006daf0     libucrt:log10.obj
 0002:0000bb00       __flag_x_zero              000000018006db00     libucrt:log10.obj
 0002:0000bb04       __flag_x_neg               000000018006db04     libucrt:log10.obj
 0002:0000bb08       __flag_x_nan               000000018006db08     libucrt:log10.obj
 0002:0000e720       ?piecewise_construct@std@@3Upiecewise_construct_t@1@B 0000000180070720     steam_api_settings.obj
 0002:0000e788       ?mask@?1??class_set@@9@9   0000000180070788     zlib:deflate.obj
 0002:0000e790       crc_table                  0000000180070790     zlib:crc32.obj
 0002:00010790       ?lenfix@?1??fixedtables@@9@9 0000000180072790     zlib:inflate.obj
 0002:00010f90       ?distfix@?1??fixedtables@@9@9 0000000180072f90     zlib:inflate.obj
 0002:00011010       ?order@?1??MOZ_Z_inflate@@9@9 0000000180073010     zlib:inflate.obj
 0002:00011038       ?my_version@?1??MOZ_Z_deflateInit2_@@9@9 0000000180073038     zlib:deflate.obj
 0002:00011040       configuration_table        0000000180073040     zlib:deflate.obj
 0002:00011130       ?dext@?1??MOZ_Z_inflate_table@@9@9 0000000180073130     zlib:inftrees.obj
 0002:00011170       ?dbase@?1??MOZ_Z_inflate_table@@9@9 0000000180073170     zlib:inftrees.obj
 0002:000111b0       ?lbase@?1??MOZ_Z_inflate_table@@9@9 00000001800731b0     zlib:inftrees.obj
 0002:000111f0       ?lext@?1??MOZ_Z_inflate_table@@9@9 00000001800731f0     zlib:inftrees.obj
 0002:00011530       extra_blbits               0000000180073530     zlib:trees.obj
 0002:00011580       static_dtree               0000000180073580     zlib:trees.obj
 0002:00011600       base_dist                  0000000180073600     zlib:trees.obj
 0002:00011680       extra_lbits                0000000180073680     zlib:trees.obj
 0002:00011700       base_length                0000000180073700     zlib:trees.obj
 0002:00011780       static_ltree               0000000180073780     zlib:trees.obj
 0002:00011c00       extra_dbits                0000000180073c00     zlib:trees.obj
 0002:00011c80       bl_order                   0000000180073c80     zlib:trees.obj
 0002:00014388       ?_TlgEvent@?3??__telemetry_main_invoke_trigger@@9@4U<unnamed-type-_TlgEvent>@?3??1@9@B 0000000180076388     libvcruntime:telemetry.obj
 0002:000143c4       ?_TlgEvent@?3??__telemetry_main_return_trigger@@9@4U<unnamed-type-_TlgEvent>@?3??1@9@B 00000001800763c4     libvcruntime:telemetry.obj
 0002:000143ff       ?_Tlg_Microsoft_CRTProviderProv_Meta@@3U<unnamed-type-_Tlg_Microsoft_CRTProviderProv_Meta>@@B 00000001800763ff     libvcruntime:telemetry.obj
 0002:000148f0       $unwind$?FunctionCallbackWrapper@imp@Nan@@YAXAEBV?$FunctionCallbackInfo@VValue@v8@@@v8@@@Z 00000001800768f0     greenworks_api_utils.obj
 0002:00014900       $unwind$?Set@Nan@@YA?AV?$Maybe@_N@v8@@V?$Local@VObject@v8@@@3@V?$Local@VValue@v8@@@3@1@Z 0000000180076900     greenworks_api_utils.obj
 0002:0001490c       $unwind$?New@?$Factory@VFunctionTemplate@v8@@@imp@Nan@@SA?AV?$Local@VFunctionTemplate@v8@@@v8@@P6AXAEBV?$FunctionCallbackInfo@VValue@v8@@@3@@ZV?$Local@VValue@v8@@@5@V?$Local@VSignature@v8@@@5@@Z 000000018007690c     greenworks_api_utils.obj
 0002:0001491c       $chain$0$?New@?$Factory@VFunctionTemplate@v8@@@imp@Nan@@SA?AV?$Local@VFunctionTemplate@v8@@@v8@@P6AXAEBV?$FunctionCallbackInfo@VValue@v8@@@3@@ZV?$Local@VValue@v8@@@5@V?$Local@VSignature@v8@@@5@@Z 000000018007691c     greenworks_api_utils.obj
